                                      1 ;--------------------------------------------------------
                                      2 ; File Created by SDCC : free open source ISO C Compiler
                                      3 ; Version 4.5.0 #15242 (Mac OS X x86_64)
                                      4 ;--------------------------------------------------------
                                      5 	.module stm8l15x_rtc
                                      6 	
                                      7 ;--------------------------------------------------------
                                      8 ; Public variables in this module
                                      9 ;--------------------------------------------------------
                                     10 	.globl _RTC_DeInit
                                     11 	.globl _RTC_Init
                                     12 	.globl _RTC_StructInit
                                     13 	.globl _RTC_WriteProtectionCmd
                                     14 	.globl _RTC_EnterInitMode
                                     15 	.globl _RTC_ExitInitMode
                                     16 	.globl _RTC_WaitForSynchro
                                     17 	.globl _RTC_RatioCmd
                                     18 	.globl _RTC_BypassShadowCmd
                                     19 	.globl _RTC_SetTime
                                     20 	.globl _RTC_TimeStructInit
                                     21 	.globl _RTC_GetTime
                                     22 	.globl _RTC_GetSubSecond
                                     23 	.globl _RTC_SetDate
                                     24 	.globl _RTC_DateStructInit
                                     25 	.globl _RTC_GetDate
                                     26 	.globl _RTC_SetAlarm
                                     27 	.globl _RTC_AlarmStructInit
                                     28 	.globl _RTC_GetAlarm
                                     29 	.globl _RTC_AlarmCmd
                                     30 	.globl _RTC_AlarmSubSecondConfig
                                     31 	.globl _RTC_WakeUpClockConfig
                                     32 	.globl _RTC_SetWakeUpCounter
                                     33 	.globl _RTC_GetWakeUpCounter
                                     34 	.globl _RTC_WakeUpCmd
                                     35 	.globl _RTC_DayLightSavingConfig
                                     36 	.globl _RTC_GetStoreOperation
                                     37 	.globl _RTC_OutputConfig
                                     38 	.globl _RTC_SynchroShiftConfig
                                     39 	.globl _RTC_SmoothCalibConfig
                                     40 	.globl _RTC_CalibOutputConfig
                                     41 	.globl _RTC_CalibOutputCmd
                                     42 	.globl _RTC_TamperLevelConfig
                                     43 	.globl _RTC_TamperFilterConfig
                                     44 	.globl _RTC_TamperSamplingFreqConfig
                                     45 	.globl _RTC_TamperPinsPrechargeDuration
                                     46 	.globl _RTC_TamperCmd
                                     47 	.globl _RTC_ITConfig
                                     48 	.globl _RTC_GetFlagStatus
                                     49 	.globl _RTC_ClearFlag
                                     50 	.globl _RTC_GetITStatus
                                     51 	.globl _RTC_ClearITPendingBit
                                     52 ;--------------------------------------------------------
                                     53 ; ram data
                                     54 ;--------------------------------------------------------
                                     55 	.area DATA
                                     56 ;--------------------------------------------------------
                                     57 ; ram data
                                     58 ;--------------------------------------------------------
                                     59 	.area INITIALIZED
                                     60 ;--------------------------------------------------------
                                     61 ; absolute external ram data
                                     62 ;--------------------------------------------------------
                                     63 	.area DABS (ABS)
                                     64 
                                     65 ; default segment ordering for linker
                                     66 	.area HOME
                                     67 	.area GSINIT
                                     68 	.area GSFINAL
                                     69 	.area CONST
                                     70 	.area INITIALIZER
                                     71 	.area CODE
                                     72 
                                     73 ;--------------------------------------------------------
                                     74 ; global & static initialisations
                                     75 ;--------------------------------------------------------
                                     76 	.area HOME
                                     77 	.area GSINIT
                                     78 	.area GSFINAL
                                     79 	.area GSINIT
                                     80 ;--------------------------------------------------------
                                     81 ; Home
                                     82 ;--------------------------------------------------------
                                     83 	.area HOME
                                     84 	.area HOME
                                     85 ;--------------------------------------------------------
                                     86 ; code
                                     87 ;--------------------------------------------------------
                                     88 	.area CODE
                                     89 ;	STM8L15x_StdPeriph_Driver/src/stm8l15x_rtc.c: 232: ErrorStatus RTC_DeInit(void)
                                     90 ; genLabel
                                     91 ;	-----------------------------------------
                                     92 ;	 function RTC_DeInit
                                     93 ;	-----------------------------------------
                                     94 ;	Register assignment is optimal.
                                     95 ;	Stack space usage: 0 bytes.
      000000                         96 _RTC_DeInit:
                                     97 ;	STM8L15x_StdPeriph_Driver/src/stm8l15x_rtc.c: 239: RTC->WPR = 0xCA;
                                     98 ; genPointerSet
      000000 35 CA 51 59      [ 1]   99 	mov	0x5159+0, #0xca
                                    100 ;	STM8L15x_StdPeriph_Driver/src/stm8l15x_rtc.c: 240: RTC->WPR = 0x53;
                                    101 ; genPointerSet
      000004 35 53 51 59      [ 1]  102 	mov	0x5159+0, #0x53
                                    103 ;	STM8L15x_StdPeriph_Driver/src/stm8l15x_rtc.c: 243: if (RTC_EnterInitMode() == ERROR)
                                    104 ; genCall
      000008 CDr01r35         [ 4]  105 	call	_RTC_EnterInitMode
                                    106 ; genIfx
      00000B 4D               [ 1]  107 	tnz	a
                                    108 ; peephole j5 changed absolute to relative unconditional jump.
      00000C 26 06            [ 1]  109 	jrne	00121$
                                    110 ; peephole j7 removed jra by using inverse jump logic
                                    111 ; peephole j30 removed unused label 00203$.
                                    112 ;	STM8L15x_StdPeriph_Driver/src/stm8l15x_rtc.c: 245: status = ERROR;
                                    113 ; genAssign
      00000E 4F               [ 1]  114 	clr	a
                                    115 ;	STM8L15x_StdPeriph_Driver/src/stm8l15x_rtc.c: 247: RTC->WPR = 0xFF; 
                                    116 ; genPointerSet
      00000F 35 FF 51 59      [ 1]  117 	mov	0x5159+0, #0xff
                                    118 ; genGoto
      000013 81               [ 4]  119 	ret
                                    120 ; peephole j2e replaced jump by return.
                                    121 ; genLabel
      000014                        122 00121$:
                                    123 ;	STM8L15x_StdPeriph_Driver/src/stm8l15x_rtc.c: 252: RTC->TR1 = RTC_TR1_RESET_VALUE;
                                    124 ; genPointerSet
      000014 35 00 51 40      [ 1]  125 	mov	0x5140+0, #0x00
                                    126 ;	STM8L15x_StdPeriph_Driver/src/stm8l15x_rtc.c: 253: RTC->TR2 = RTC_TR2_RESET_VALUE;
                                    127 ; genPointerSet
      000018 35 00 51 41      [ 1]  128 	mov	0x5141+0, #0x00
                                    129 ;	STM8L15x_StdPeriph_Driver/src/stm8l15x_rtc.c: 254: RTC->TR3 = RTC_TR3_RESET_VALUE;
                                    130 ; genPointerSet
      00001C 35 00 51 42      [ 1]  131 	mov	0x5142+0, #0x00
                                    132 ;	STM8L15x_StdPeriph_Driver/src/stm8l15x_rtc.c: 257: RTC->DR1 = RTC_DR1_RESET_VALUE;
                                    133 ; genPointerSet
      000020 35 01 51 44      [ 1]  134 	mov	0x5144+0, #0x01
                                    135 ;	STM8L15x_StdPeriph_Driver/src/stm8l15x_rtc.c: 258: RTC->DR2 = RTC_DR2_RESET_VALUE;
                                    136 ; genPointerSet
      000024 35 21 51 45      [ 1]  137 	mov	0x5145+0, #0x21
                                    138 ;	STM8L15x_StdPeriph_Driver/src/stm8l15x_rtc.c: 259: RTC->DR3 = RTC_DR3_RESET_VALUE;
                                    139 ; genPointerSet
      000028 35 00 51 46      [ 1]  140 	mov	0x5146+0, #0x00
                                    141 ;	STM8L15x_StdPeriph_Driver/src/stm8l15x_rtc.c: 262: RTC->SPRERH = RTC_SPRERH_RESET_VALUE;
                                    142 ; genPointerSet
      00002C 35 00 51 50      [ 1]  143 	mov	0x5150+0, #0x00
                                    144 ;	STM8L15x_StdPeriph_Driver/src/stm8l15x_rtc.c: 263: RTC->SPRERL = RTC_SPRERL_RESET_VALUE;
                                    145 ; genPointerSet
      000030 35 FF 51 51      [ 1]  146 	mov	0x5151+0, #0xff
                                    147 ;	STM8L15x_StdPeriph_Driver/src/stm8l15x_rtc.c: 264: RTC->APRER  = RTC_APRER_RESET_VALUE;
                                    148 ; genPointerSet
      000034 35 7F 51 52      [ 1]  149 	mov	0x5152+0, #0x7f
                                    150 ;	STM8L15x_StdPeriph_Driver/src/stm8l15x_rtc.c: 266: RTC->TCR1 = RTC_TCR1_RESET_VALUE;
                                    151 ; genPointerSet
      000038 35 00 51 6C      [ 1]  152 	mov	0x516c+0, #0x00
                                    153 ;	STM8L15x_StdPeriph_Driver/src/stm8l15x_rtc.c: 267: RTC->TCR2 = RTC_TCR2_RESET_VALUE;
                                    154 ; genPointerSet
      00003C 35 00 51 6D      [ 1]  155 	mov	0x516d+0, #0x00
                                    156 ;	STM8L15x_StdPeriph_Driver/src/stm8l15x_rtc.c: 271: RTC->CR1 = RTC_CR1_RESET_VALUE;
                                    157 ; genPointerSet
      000040 35 00 51 48      [ 1]  158 	mov	0x5148+0, #0x00
                                    159 ;	STM8L15x_StdPeriph_Driver/src/stm8l15x_rtc.c: 272: RTC->CR2 = RTC_CR2_RESET_VALUE;
                                    160 ; genPointerSet
      000044 35 00 51 49      [ 1]  161 	mov	0x5149+0, #0x00
                                    162 ;	STM8L15x_StdPeriph_Driver/src/stm8l15x_rtc.c: 273: RTC->CR3 = RTC_CR3_RESET_VALUE;
                                    163 ; genPointerSet
      000048 35 00 51 4A      [ 1]  164 	mov	0x514a+0, #0x00
                                    165 ;	STM8L15x_StdPeriph_Driver/src/stm8l15x_rtc.c: 276: while (((RTC->ISR1 & RTC_ISR1_WUTWF) == RESET) && ( wutwfcount != WUTWF_TIMEOUT))
                                    166 ; genAssign
      00004C 5F               [ 1]  167 	clrw	x
                                    168 ; genLabel
      00004D                        169 00102$:
                                    170 ; genPointerGet
                                    171 ; genAnd
                                    172 ; peephole j530x replaced 'ld-bcp-jreq' by 'btjf' ('0x514c').
                                    173 ; peephole j5 changed absolute to relative unconditional jump.
      00004D 72 04 51 4C 0C   [ 2]  174 	btjt	0x514c, #2, 00104$
                                    175 ; peephole j34 removed jra by using inverse bit-test-jump logic
                                    176 ; peephole j30 removed unused label 00204$.
                                    177 ; skipping generated iCode
                                    178 ; genCmpEQorNE
      000052 A3 FF FF         [ 2]  179 	cpw	x, #0xffff
                                    180 ; peephole j5 changed absolute to relative unconditional jump.
      000055 27 07            [ 1]  181 	jreq	00104$
                                    182 ; peephole j10 removed jra by using inverse jump logic
                                    183 ; peephole j30 removed unused label 00206$.
                                    184 ; skipping generated iCode
                                    185 ;	STM8L15x_StdPeriph_Driver/src/stm8l15x_rtc.c: 278: wutwfcount++;
                                    186 ; genPlus
      000057 5C               [ 1]  187 	incw	x
                                    188 ;	STM8L15x_StdPeriph_Driver/src/stm8l15x_rtc.c: 279: RTC->ISR1 = 0;
                                    189 ; genPointerSet
      000058 35 00 51 4C      [ 1]  190 	mov	0x514c+0, #0x00
                                    191 ; genGoto
      00005C 20 EF            [ 2]  192 	jra	00102$
                                    193 ; peephole j5 changed absolute to relative unconditional jump.
                                    194 ; genLabel
      00005E                        195 00104$:
                                    196 ;	STM8L15x_StdPeriph_Driver/src/stm8l15x_rtc.c: 282: if ((RTC->ISR1 & RTC_ISR1_WUTWF) == RESET)
                                    197 ; genPointerGet
                                    198 ; genAnd
                                    199 ; peephole j530x replaced 'ld-bcp-jreq' by 'btjf' ('0x514c').
                                    200 ; peephole j5 changed absolute to relative unconditional jump.
      00005E 72 04 51 4C 06   [ 2]  201 	btjt	0x514c, #2, 00118$
                                    202 ; peephole j34 removed jra by using inverse bit-test-jump logic
                                    203 ; peephole j30 removed unused label 00208$.
                                    204 ; skipping generated iCode
                                    205 ;	STM8L15x_StdPeriph_Driver/src/stm8l15x_rtc.c: 284: status = ERROR;
                                    206 ; genAssign
      000063 4F               [ 1]  207 	clr	a
                                    208 ;	STM8L15x_StdPeriph_Driver/src/stm8l15x_rtc.c: 286: RTC->WPR = 0xFF; 
                                    209 ; genPointerSet
      000064 35 FF 51 59      [ 1]  210 	mov	0x5159+0, #0xff
                                    211 ; genGoto
      000068 81               [ 4]  212 	ret
                                    213 ; peephole j2e replaced jump by return.
                                    214 ; genLabel
      000069                        215 00118$:
                                    216 ;	STM8L15x_StdPeriph_Driver/src/stm8l15x_rtc.c: 291: RTC->CR1 = RTC_CR1_RESET_VALUE;
                                    217 ; genPointerSet
      000069 35 00 51 48      [ 1]  218 	mov	0x5148+0, #0x00
                                    219 ;	STM8L15x_StdPeriph_Driver/src/stm8l15x_rtc.c: 294: RTC->WUTRH = RTC_WUTRH_RESET_VALUE;
                                    220 ; genPointerSet
      00006D 35 FF 51 54      [ 1]  221 	mov	0x5154+0, #0xff
                                    222 ;	STM8L15x_StdPeriph_Driver/src/stm8l15x_rtc.c: 295: RTC->WUTRL = RTC_WUTRL_RESET_VALUE;
                                    223 ; genPointerSet
      000071 35 FF 51 55      [ 1]  224 	mov	0x5155+0, #0xff
                                    225 ;	STM8L15x_StdPeriph_Driver/src/stm8l15x_rtc.c: 298: RTC->ALRMAR1 = RTC_ALRMAR1_RESET_VALUE;
                                    226 ; genPointerSet
      000075 35 00 51 5C      [ 1]  227 	mov	0x515c+0, #0x00
                                    228 ;	STM8L15x_StdPeriph_Driver/src/stm8l15x_rtc.c: 299: RTC->ALRMAR2 = RTC_ALRMAR2_RESET_VALUE;
                                    229 ; genPointerSet
      000079 35 00 51 5D      [ 1]  230 	mov	0x515d+0, #0x00
                                    231 ;	STM8L15x_StdPeriph_Driver/src/stm8l15x_rtc.c: 300: RTC->ALRMAR3 = RTC_ALRMAR3_RESET_VALUE;
                                    232 ; genPointerSet
      00007D 35 00 51 5E      [ 1]  233 	mov	0x515e+0, #0x00
                                    234 ;	STM8L15x_StdPeriph_Driver/src/stm8l15x_rtc.c: 301: RTC->ALRMAR4 = RTC_ALRMAR4_RESET_VALUE;
                                    235 ; genPointerSet
      000081 35 00 51 5F      [ 1]  236 	mov	0x515f+0, #0x00
                                    237 ;	STM8L15x_StdPeriph_Driver/src/stm8l15x_rtc.c: 303: RTC->ALRMASSRH = RTC_ALRMASSRH_RESET_VALUE;
                                    238 ; genPointerSet
      000085 35 00 51 64      [ 1]  239 	mov	0x5164+0, #0x00
                                    240 ;	STM8L15x_StdPeriph_Driver/src/stm8l15x_rtc.c: 304: RTC->ALRMASSRL = RTC_ALRMASSRL_RESET_VALUE;
                                    241 ; genPointerSet
      000089 35 00 51 65      [ 1]  242 	mov	0x5165+0, #0x00
                                    243 ;	STM8L15x_StdPeriph_Driver/src/stm8l15x_rtc.c: 305: RTC->ALRMASSMSKR = RTC_ALRMASSMSKR_RESET_VALUE;
                                    244 ; genPointerSet
      00008D 35 00 51 66      [ 1]  245 	mov	0x5166+0, #0x00
                                    246 ;	STM8L15x_StdPeriph_Driver/src/stm8l15x_rtc.c: 308: RTC->ISR1 = (uint8_t)0x00;
                                    247 ; genPointerSet
      000091 35 00 51 4C      [ 1]  248 	mov	0x514c+0, #0x00
                                    249 ;	STM8L15x_StdPeriph_Driver/src/stm8l15x_rtc.c: 309: RTC->ISR2 = RTC_ISR2_RESET_VALUE;
                                    250 ; genPointerSet
      000095 35 00 51 4D      [ 1]  251 	mov	0x514d+0, #0x00
                                    252 ;	STM8L15x_StdPeriph_Driver/src/stm8l15x_rtc.c: 311: if ((RTC->ISR1 & RTC_ISR1_RECALPF) != RESET)
                                    253 ; genPointerGet
                                    254 ; genAnd
                                    255 ; peephole j531x replaced 'ld-bcp-jrne' by 'btjt' ('0x514c').
                                    256 ; peephole j5 changed absolute to relative unconditional jump.
      000099 72 03 51 4C 0E   [ 2]  257 	btjf	0x514c, #1, 00110$
                                    258 ; peephole j33 removed jra by using inverse bit-test-jump logic
                                    259 ; peephole j30 removed unused label 00209$.
                                    260 ; skipping generated iCode
                                    261 ;	STM8L15x_StdPeriph_Driver/src/stm8l15x_rtc.c: 313: while (((RTC->ISR1 & RTC_ISR1_RECALPF) != RESET) && (recalpfcount != RECALPF_TIMEOUT))
                                    262 ; genAssign
      00009E 5F               [ 1]  263 	clrw	x
                                    264 ; genLabel
      00009F                        265 00106$:
                                    266 ; genPointerGet
                                    267 ; genAnd
                                    268 ; peephole j531x replaced 'ld-bcp-jrne' by 'btjt' ('0x514c').
                                    269 ; peephole j5 changed absolute to relative unconditional jump.
      00009F 72 03 51 4C 08   [ 2]  270 	btjf	0x514c, #1, 00110$
                                    271 ; peephole j33 removed jra by using inverse bit-test-jump logic
                                    272 ; peephole j30 removed unused label 00210$.
                                    273 ; skipping generated iCode
                                    274 ; genCmpEQorNE
      0000A4 A3 FF FF         [ 2]  275 	cpw	x, #0xffff
                                    276 ; peephole j5 changed absolute to relative unconditional jump.
      0000A7 27 03            [ 1]  277 	jreq	00110$
                                    278 ; peephole j10 removed jra by using inverse jump logic
                                    279 ; peephole j30 removed unused label 00212$.
                                    280 ; skipping generated iCode
                                    281 ;	STM8L15x_StdPeriph_Driver/src/stm8l15x_rtc.c: 315: recalpfcount++;
                                    282 ; genPlus
      0000A9 5C               [ 1]  283 	incw	x
                                    284 ; genGoto
      0000AA 20 F3            [ 2]  285 	jra	00106$
                                    286 ; peephole j5 changed absolute to relative unconditional jump.
                                    287 ; genLabel
      0000AC                        288 00110$:
                                    289 ;	STM8L15x_StdPeriph_Driver/src/stm8l15x_rtc.c: 318: if ((RTC->ISR1 & RTC_ISR1_RECALPF) == RESET)
                                    290 ; genPointerGet
                                    291 ; genAnd
                                    292 ; peephole j530x replaced 'ld-bcp-jreq' by 'btjf' ('0x514c').
                                    293 ; peephole j5 changed absolute to relative unconditional jump.
      0000AC 72 02 51 4C 14   [ 2]  294 	btjt	0x514c, #1, 00115$
                                    295 ; peephole j34 removed jra by using inverse bit-test-jump logic
                                    296 ; peephole j30 removed unused label 00214$.
                                    297 ; skipping generated iCode
                                    298 ;	STM8L15x_StdPeriph_Driver/src/stm8l15x_rtc.c: 320: RTC->CALRH = RTC_CALRH_RESET_VALUE;
                                    299 ; genPointerSet
      0000B1 35 00 51 6A      [ 1]  300 	mov	0x516a+0, #0x00
                                    301 ;	STM8L15x_StdPeriph_Driver/src/stm8l15x_rtc.c: 321: RTC->CALRL = RTC_CALRL_RESET_VALUE;
                                    302 ; genPointerSet
      0000B5 35 00 51 6B      [ 1]  303 	mov	0x516b+0, #0x00
                                    304 ;	STM8L15x_StdPeriph_Driver/src/stm8l15x_rtc.c: 323: if (RTC_WaitForSynchro() == ERROR)
                                    305 ; genCall
      0000B9 CDr01r5B         [ 4]  306 	call	_RTC_WaitForSynchro
                                    307 ; genIfx
      0000BC 4D               [ 1]  308 	tnz	a
                                    309 ; peephole j5 changed absolute to relative unconditional jump.
      0000BD 26 03            [ 1]  310 	jrne	00112$
                                    311 ; peephole j7 removed jra by using inverse jump logic
                                    312 ; peephole j30 removed unused label 00215$.
                                    313 ;	STM8L15x_StdPeriph_Driver/src/stm8l15x_rtc.c: 325: status = ERROR;
                                    314 ; genAssign
      0000BF 4F               [ 1]  315 	clr	a
                                    316 ; genGoto
      0000C0 20 04            [ 2]  317 	jra	00116$
                                    318 ; peephole j5 changed absolute to relative unconditional jump.
                                    319 ; genLabel
      0000C2                        320 00112$:
                                    321 ;	STM8L15x_StdPeriph_Driver/src/stm8l15x_rtc.c: 329: status = SUCCESS;
                                    322 ; genAssign
      0000C2 A6 01            [ 1]  323 	ld	a, #0x01
                                    324 ; genGoto
                                    325 ; peephole j5 changed absolute to relative unconditional jump.
                                    326 ; genLabel
                                    327 ;	STM8L15x_StdPeriph_Driver/src/stm8l15x_rtc.c: 334: status = ERROR;
                                    328 ; genAssign
                                    329 ; genLabel
      0000C4 21                     330 	.byte 0x21
                                    331 ; peephole jrf1 used jump-on-false opcode to shorten jump over 1-byte instruction.
      0000C5                        332 00115$:
      0000C5 4F               [ 1]  333 	clr	a
      0000C6                        334 00116$:
                                    335 ;	STM8L15x_StdPeriph_Driver/src/stm8l15x_rtc.c: 338: RTC->WPR = 0xFF; 
                                    336 ; genPointerSet
      0000C6 35 FF 51 59      [ 1]  337 	mov	0x5159+0, #0xff
                                    338 ; genLabel
                                    339 ; peephole j30 removed unused label 00122$.
                                    340 ;	STM8L15x_StdPeriph_Driver/src/stm8l15x_rtc.c: 343: return (ErrorStatus)status;
                                    341 ; genReturn
                                    342 ; genLabel
                                    343 ; peephole j30 removed unused label 00123$.
                                    344 ;	STM8L15x_StdPeriph_Driver/src/stm8l15x_rtc.c: 344: }
                                    345 ; genEndFunction
      0000CA 81               [ 4]  346 	ret
                                    347 ;	Total RTC_DeInit function size at codegen: 1 bytes.
                                    348 ;	STM8L15x_StdPeriph_Driver/src/stm8l15x_rtc.c: 359: ErrorStatus RTC_Init(RTC_InitTypeDef* RTC_InitStruct)
                                    349 ; genLabel
                                    350 ;	-----------------------------------------
                                    351 ;	 function RTC_Init
                                    352 ;	-----------------------------------------
                                    353 ;	Register assignment might be sub-optimal.
                                    354 ;	Stack space usage: 3 bytes.
      0000CB                        355 _RTC_Init:
      0000CB 52 03            [ 2]  356 	sub	sp, #3
                                    357 ; genReceive
      0000CD 1F 02            [ 2]  358 	ldw	(0x02, sp), x
                                    359 ;	STM8L15x_StdPeriph_Driver/src/stm8l15x_rtc.c: 369: RTC->WPR = 0xCA;
                                    360 ; genPointerSet
      0000CF 35 CA 51 59      [ 1]  361 	mov	0x5159+0, #0xca
                                    362 ;	STM8L15x_StdPeriph_Driver/src/stm8l15x_rtc.c: 370: RTC->WPR = 0x53;
                                    363 ; genPointerSet
      0000D3 35 53 51 59      [ 1]  364 	mov	0x5159+0, #0x53
                                    365 ;	STM8L15x_StdPeriph_Driver/src/stm8l15x_rtc.c: 373: if (RTC_EnterInitMode() == ERROR)
                                    366 ; genCall
      0000D7 CDr01r35         [ 4]  367 	call	_RTC_EnterInitMode
                                    368 ; genIfx
      0000DA 4D               [ 1]  369 	tnz	a
                                    370 ; peephole j5 changed absolute to relative unconditional jump.
      0000DB 26 03            [ 1]  371 	jrne	00102$
                                    372 ; peephole j7 removed jra by using inverse jump logic
                                    373 ; peephole j30 removed unused label 00113$.
                                    374 ;	STM8L15x_StdPeriph_Driver/src/stm8l15x_rtc.c: 375: status = ERROR;
                                    375 ; genAssign
      0000DD 4F               [ 1]  376 	clr	a
                                    377 ; genGoto
      0000DE 20 2D            [ 2]  378 	jra	00103$
                                    379 ; peephole j5 changed absolute to relative unconditional jump.
                                    380 ; genLabel
      0000E0                        381 00102$:
                                    382 ;	STM8L15x_StdPeriph_Driver/src/stm8l15x_rtc.c: 380: RTC->CR1 &= ((uint8_t)~( RTC_CR1_FMT ));
                                    383 ; genPointerGet
                                    384 ; genAnd
                                    385 ; genPointerSet
      0000E0 72 1D 51 48      [ 1]  386 	bres	0x5148, #6
                                    387 ; peephole 204x replaced 'and' by 'bres' ('0x5148').
                                    388 ;	STM8L15x_StdPeriph_Driver/src/stm8l15x_rtc.c: 383: RTC->CR1 |=  ((uint8_t)(RTC_InitStruct->RTC_HourFormat));
                                    389 ; genPointerGet
      0000E4 C6 51 48         [ 1]  390 	ld	a, 0x5148
      0000E7 6B 01            [ 1]  391 	ld	(0x01, sp), a
                                    392 ; genPointerGet
      0000E9 1E 02            [ 2]  393 	ldw	x, (0x02, sp)
      0000EB F6               [ 1]  394 	ld	a, (x)
                                    395 ; genOr
      0000EC 1A 01            [ 1]  396 	or	a, (0x01, sp)
                                    397 ; genPointerSet
      0000EE C7 51 48         [ 1]  398 	ld	0x5148, a
                                    399 ;	STM8L15x_StdPeriph_Driver/src/stm8l15x_rtc.c: 386: RTC->SPRERH = (uint8_t)(RTC_InitStruct->RTC_SynchPrediv >> 8);
                                    400 ; genPlus
      0000F1 1E 02            [ 2]  401 	ldw	x, (0x02, sp)
      0000F3 5C               [ 1]  402 	incw	x
      0000F4 5C               [ 1]  403 	incw	x
                                    404 ; genPointerGet
      0000F5 E6 01            [ 1]  405 	ld	a, (0x1, x)
                                    406 ; peephole 0 removed dead load into yl from a.
      0000F7 F6               [ 1]  407 	ld	a, (x)
                                    408 ; genGetByte
                                    409 ; genPointerSet
      0000F8 C7 51 50         [ 1]  410 	ld	0x5150, a
                                    411 ;	STM8L15x_StdPeriph_Driver/src/stm8l15x_rtc.c: 387: RTC->SPRERL = (uint8_t)(RTC_InitStruct->RTC_SynchPrediv);
                                    412 ; genPointerGet
      0000FB E6 01            [ 1]  413 	ld	a, (0x1, x)
                                    414 ; genPointerSet
      0000FD C7 51 51         [ 1]  415 	ld	0x5151, a
                                    416 ;	STM8L15x_StdPeriph_Driver/src/stm8l15x_rtc.c: 388: RTC->APRER =  (uint8_t)(RTC_InitStruct->RTC_AsynchPrediv);
                                    417 ; genAssign
      000100 1E 02            [ 2]  418 	ldw	x, (0x02, sp)
                                    419 ; genPointerGet
      000102 E6 01            [ 1]  420 	ld	a, (0x1, x)
                                    421 ; genPointerSet
      000104 C7 51 52         [ 1]  422 	ld	0x5152, a
                                    423 ;	STM8L15x_StdPeriph_Driver/src/stm8l15x_rtc.c: 391: RTC->ISR1 &= (uint8_t)~RTC_ISR1_INIT;
                                    424 ; genPointerGet
                                    425 ; genAnd
                                    426 ; genPointerSet
      000107 72 1F 51 4C      [ 1]  427 	bres	0x514c, #7
                                    428 ; peephole 204x replaced 'and' by 'bres' ('0x514c').
                                    429 ;	STM8L15x_StdPeriph_Driver/src/stm8l15x_rtc.c: 393: status = SUCCESS;
                                    430 ; genAssign
      00010B A6 01            [ 1]  431 	ld	a, #0x01
                                    432 ; genLabel
      00010D                        433 00103$:
                                    434 ;	STM8L15x_StdPeriph_Driver/src/stm8l15x_rtc.c: 397: RTC->WPR = 0xFF; 
                                    435 ; genPointerSet
      00010D 35 FF 51 59      [ 1]  436 	mov	0x5159+0, #0xff
                                    437 ;	STM8L15x_StdPeriph_Driver/src/stm8l15x_rtc.c: 400: return (ErrorStatus)(status);
                                    438 ; genReturn
                                    439 ; genLabel
                                    440 ; peephole j30 removed unused label 00104$.
                                    441 ;	STM8L15x_StdPeriph_Driver/src/stm8l15x_rtc.c: 401: }
                                    442 ; genEndFunction
      000111 5B 03            [ 2]  443 	addw	sp, #3
      000113 81               [ 4]  444 	ret
                                    445 ;	Total RTC_Init function size at codegen: 3 bytes.
                                    446 ;	STM8L15x_StdPeriph_Driver/src/stm8l15x_rtc.c: 410: void RTC_StructInit(RTC_InitTypeDef* RTC_InitStruct)
                                    447 ; genLabel
                                    448 ;	-----------------------------------------
                                    449 ;	 function RTC_StructInit
                                    450 ;	-----------------------------------------
                                    451 ;	Register assignment might be sub-optimal.
                                    452 ;	Stack space usage: 0 bytes.
      000114                        453 _RTC_StructInit:
                                    454 ; genReceive
      000114 51               [ 1]  455 	exgw	x, y
                                    456 ;	STM8L15x_StdPeriph_Driver/src/stm8l15x_rtc.c: 413: RTC_InitStruct->RTC_HourFormat = RTC_HourFormat_24;
                                    457 ; genPointerSet
      000115 90 7F            [ 1]  458 	clr	(y)
                                    459 ;	STM8L15x_StdPeriph_Driver/src/stm8l15x_rtc.c: 416: RTC_InitStruct->RTC_AsynchPrediv = RTC_APRER_RESET_VALUE;
                                    460 ; genPlus
      000117 93               [ 1]  461 	ldw	x, y
      000118 5C               [ 1]  462 	incw	x
                                    463 ; genPointerSet
      000119 A6 7F            [ 1]  464 	ld	a, #0x7f
      00011B F7               [ 1]  465 	ld	(x), a
                                    466 ;	STM8L15x_StdPeriph_Driver/src/stm8l15x_rtc.c: 419: RTC_InitStruct->RTC_SynchPrediv = RTC_SPRERL_RESET_VALUE;
                                    467 ; genPlus
      00011C 93               [ 1]  468 	ldw	x, y
                                    469 ; genPointerSet
                                    470 ; peephole 10a moved addition of offset into storage instruction
      00011D 90 AE 00 FF      [ 2]  471 	ldw	y, #0x00ff
      000121 EF 02            [ 2]  472 	ldw	(0x02, x), y
                                    473 ; genLabel
                                    474 ; peephole j30 removed unused label 00101$.
                                    475 ;	STM8L15x_StdPeriph_Driver/src/stm8l15x_rtc.c: 420: }
                                    476 ; genEndFunction
      000123 81               [ 4]  477 	ret
                                    478 ;	Total RTC_StructInit function size at codegen: 1 bytes.
                                    479 ;	STM8L15x_StdPeriph_Driver/src/stm8l15x_rtc.c: 430: void RTC_WriteProtectionCmd(FunctionalState NewState)
                                    480 ; genLabel
                                    481 ;	-----------------------------------------
                                    482 ;	 function RTC_WriteProtectionCmd
                                    483 ;	-----------------------------------------
                                    484 ;	Register assignment is optimal.
                                    485 ;	Stack space usage: 0 bytes.
      000124                        486 _RTC_WriteProtectionCmd:
                                    487 ; genReceive
                                    488 ;	STM8L15x_StdPeriph_Driver/src/stm8l15x_rtc.c: 435: if (NewState != DISABLE)
                                    489 ; genIfx
      000124 4D               [ 1]  490 	tnz	a
                                    491 ; peephole j5 changed absolute to relative unconditional jump.
      000125 27 05            [ 1]  492 	jreq	00102$
                                    493 ; peephole j10 removed jra by using inverse jump logic
                                    494 ; peephole j30 removed unused label 00113$.
                                    495 ;	STM8L15x_StdPeriph_Driver/src/stm8l15x_rtc.c: 438: RTC->WPR = RTC_WPR_EnableKey;
                                    496 ; genPointerSet
      000127 35 FF 51 59      [ 1]  497 	mov	0x5159+0, #0xff
                                    498 ; genGoto
      00012B 81               [ 4]  499 	ret
                                    500 ; peephole j2e replaced jump by return.
                                    501 ; genLabel
      00012C                        502 00102$:
                                    503 ;	STM8L15x_StdPeriph_Driver/src/stm8l15x_rtc.c: 443: RTC->WPR = RTC_WPR_DisableKey1;
                                    504 ; genPointerSet
      00012C 35 CA 51 59      [ 1]  505 	mov	0x5159+0, #0xca
                                    506 ;	STM8L15x_StdPeriph_Driver/src/stm8l15x_rtc.c: 444: RTC->WPR = RTC_WPR_DisableKey2;
                                    507 ; genPointerSet
      000130 35 53 51 59      [ 1]  508 	mov	0x5159+0, #0x53
                                    509 ; genLabel
                                    510 ; peephole j30 removed unused label 00104$.
                                    511 ;	STM8L15x_StdPeriph_Driver/src/stm8l15x_rtc.c: 446: }
                                    512 ; genEndFunction
      000134 81               [ 4]  513 	ret
                                    514 ;	Total RTC_WriteProtectionCmd function size at codegen: 1 bytes.
                                    515 ;	STM8L15x_StdPeriph_Driver/src/stm8l15x_rtc.c: 458: ErrorStatus RTC_EnterInitMode(void)
                                    516 ; genLabel
                                    517 ;	-----------------------------------------
                                    518 ;	 function RTC_EnterInitMode
                                    519 ;	-----------------------------------------
                                    520 ;	Register assignment is optimal.
                                    521 ;	Stack space usage: 0 bytes.
      000135                        522 _RTC_EnterInitMode:
                                    523 ;	STM8L15x_StdPeriph_Driver/src/stm8l15x_rtc.c: 464: if ((RTC->ISR1 & RTC_ISR1_INITF) == RESET)
                                    524 ; genPointerGet
                                    525 ; genAnd
                                    526 ; peephole j530x replaced 'ld-bcp-jreq' by 'btjf' ('0x514c').
                                    527 ; peephole j5 changed absolute to relative unconditional jump.
      000135 72 0C 51 4C 12   [ 2]  528 	btjt	0x514c, #6, 00106$
                                    529 ; peephole j34 removed jra by using inverse bit-test-jump logic
                                    530 ; peephole j30 removed unused label 00148$.
                                    531 ; skipping generated iCode
                                    532 ;	STM8L15x_StdPeriph_Driver/src/stm8l15x_rtc.c: 467: RTC->ISR1 = (uint8_t)RTC_ISR1_INIT;
                                    533 ; genPointerSet
      00013A 35 80 51 4C      [ 1]  534 	mov	0x514c+0, #0x80
                                    535 ;	STM8L15x_StdPeriph_Driver/src/stm8l15x_rtc.c: 470: while (((RTC->ISR1 & RTC_ISR1_INITF) == RESET) && ( initfcount != INITF_TIMEOUT))
                                    536 ; genAssign
      00013E 5F               [ 1]  537 	clrw	x
                                    538 ; genLabel
      00013F                        539 00102$:
                                    540 ; genPointerGet
                                    541 ; genAnd
                                    542 ; peephole j530x replaced 'ld-bcp-jreq' by 'btjf' ('0x514c').
                                    543 ; peephole j5 changed absolute to relative unconditional jump.
      00013F 72 0C 51 4C 08   [ 2]  544 	btjt	0x514c, #6, 00106$
                                    545 ; peephole j34 removed jra by using inverse bit-test-jump logic
                                    546 ; peephole j30 removed unused label 00149$.
                                    547 ; skipping generated iCode
                                    548 ; genCmpEQorNE
      000144 A3 FF FF         [ 2]  549 	cpw	x, #0xffff
                                    550 ; peephole j5 changed absolute to relative unconditional jump.
      000147 27 03            [ 1]  551 	jreq	00106$
                                    552 ; peephole j10 removed jra by using inverse jump logic
                                    553 ; peephole j30 removed unused label 00151$.
                                    554 ; skipping generated iCode
                                    555 ;	STM8L15x_StdPeriph_Driver/src/stm8l15x_rtc.c: 472: initfcount++;
                                    556 ; genPlus
      000149 5C               [ 1]  557 	incw	x
                                    558 ; genGoto
      00014A 20 F3            [ 2]  559 	jra	00102$
                                    560 ; peephole j5 changed absolute to relative unconditional jump.
                                    561 ; genLabel
      00014C                        562 00106$:
                                    563 ;	STM8L15x_StdPeriph_Driver/src/stm8l15x_rtc.c: 476: if ((RTC->ISR1 & RTC_ISR1_INITF) == RESET)
                                    564 ; genPointerGet
                                    565 ; genAnd
                                    566 ; peephole j530x replaced 'ld-bcp-jreq' by 'btjf' ('0x514c').
                                    567 ; peephole j5 changed absolute to relative unconditional jump.
      00014C 72 0C 51 4C 02   [ 2]  568 	btjt	0x514c, #6, 00108$
                                    569 ; peephole j34 removed jra by using inverse bit-test-jump logic
                                    570 ; peephole j30 removed unused label 00153$.
                                    571 ; skipping generated iCode
                                    572 ;	STM8L15x_StdPeriph_Driver/src/stm8l15x_rtc.c: 478: status = ERROR;
                                    573 ; genAssign
      000151 4F               [ 1]  574 	clr	a
                                    575 ; genGoto
      000152 81               [ 4]  576 	ret
                                    577 ; peephole j2e replaced jump by return.
                                    578 ; genLabel
      000153                        579 00108$:
                                    580 ;	STM8L15x_StdPeriph_Driver/src/stm8l15x_rtc.c: 482: status = SUCCESS;
                                    581 ; genAssign
      000153 A6 01            [ 1]  582 	ld	a, #0x01
                                    583 ; genLabel
                                    584 ; peephole j30 removed unused label 00109$.
                                    585 ;	STM8L15x_StdPeriph_Driver/src/stm8l15x_rtc.c: 485: return (ErrorStatus)status;
                                    586 ; genReturn
                                    587 ; genLabel
                                    588 ; peephole j30 removed unused label 00110$.
                                    589 ;	STM8L15x_StdPeriph_Driver/src/stm8l15x_rtc.c: 486: }
                                    590 ; genEndFunction
      000155 81               [ 4]  591 	ret
                                    592 ;	Total RTC_EnterInitMode function size at codegen: 1 bytes.
                                    593 ;	STM8L15x_StdPeriph_Driver/src/stm8l15x_rtc.c: 498: void RTC_ExitInitMode(void)
                                    594 ; genLabel
                                    595 ;	-----------------------------------------
                                    596 ;	 function RTC_ExitInitMode
                                    597 ;	-----------------------------------------
                                    598 ;	Register assignment is optimal.
                                    599 ;	Stack space usage: 0 bytes.
      000156                        600 _RTC_ExitInitMode:
                                    601 ;	STM8L15x_StdPeriph_Driver/src/stm8l15x_rtc.c: 501: RTC->ISR1 &= (uint8_t)~RTC_ISR1_INIT;
                                    602 ; genPointerGet
                                    603 ; genAnd
                                    604 ; genPointerSet
      000156 72 1F 51 4C      [ 1]  605 	bres	0x514c, #7
                                    606 ; peephole 204x replaced 'and' by 'bres' ('0x514c').
                                    607 ; genLabel
                                    608 ; peephole j30 removed unused label 00101$.
                                    609 ;	STM8L15x_StdPeriph_Driver/src/stm8l15x_rtc.c: 502: }
                                    610 ; genEndFunction
      00015A 81               [ 4]  611 	ret
                                    612 ;	Total RTC_ExitInitMode function size at codegen: 1 bytes.
                                    613 ;	STM8L15x_StdPeriph_Driver/src/stm8l15x_rtc.c: 527: ErrorStatus RTC_WaitForSynchro(void)
                                    614 ; genLabel
                                    615 ;	-----------------------------------------
                                    616 ;	 function RTC_WaitForSynchro
                                    617 ;	-----------------------------------------
                                    618 ;	Register assignment is optimal.
                                    619 ;	Stack space usage: 0 bytes.
      00015B                        620 _RTC_WaitForSynchro:
                                    621 ;	STM8L15x_StdPeriph_Driver/src/stm8l15x_rtc.c: 533: RTC->WPR = 0xCA;
                                    622 ; genPointerSet
      00015B 35 CA 51 59      [ 1]  623 	mov	0x5159+0, #0xca
                                    624 ;	STM8L15x_StdPeriph_Driver/src/stm8l15x_rtc.c: 534: RTC->WPR = 0x53;
                                    625 ; genPointerSet
      00015F 35 53 51 59      [ 1]  626 	mov	0x5159+0, #0x53
                                    627 ;	STM8L15x_StdPeriph_Driver/src/stm8l15x_rtc.c: 537: RTC->ISR1 &= (uint8_t)~(RTC_ISR1_RSF | RTC_ISR1_INIT);
                                    628 ; genPointerGet
      000163 C6 51 4C         [ 1]  629 	ld	a, 0x514c
                                    630 ; genAnd
      000166 A4 5F            [ 1]  631 	and	a, #0x5f
                                    632 ; genPointerSet
      000168 C7 51 4C         [ 1]  633 	ld	0x514c, a
                                    634 ;	STM8L15x_StdPeriph_Driver/src/stm8l15x_rtc.c: 540: while (((RTC->ISR1 & RTC_ISR1_RSF) == RESET) && ( rsfcount != RSF_TIMEOUT))
                                    635 ; genAssign
      00016B 5F               [ 1]  636 	clrw	x
                                    637 ; genLabel
      00016C                        638 00102$:
                                    639 ; genPointerGet
                                    640 ; genAnd
                                    641 ; peephole j530x replaced 'ld-bcp-jreq' by 'btjf' ('0x514c').
                                    642 ; peephole j5 changed absolute to relative unconditional jump.
      00016C 72 0A 51 4C 08   [ 2]  643 	btjt	0x514c, #5, 00104$
                                    644 ; peephole j34 removed jra by using inverse bit-test-jump logic
                                    645 ; peephole j30 removed unused label 00139$.
                                    646 ; skipping generated iCode
                                    647 ; genCmpEQorNE
      000171 A3 FF FF         [ 2]  648 	cpw	x, #0xffff
                                    649 ; peephole j5 changed absolute to relative unconditional jump.
      000174 27 03            [ 1]  650 	jreq	00104$
                                    651 ; peephole j10 removed jra by using inverse jump logic
                                    652 ; peephole j30 removed unused label 00141$.
                                    653 ; skipping generated iCode
                                    654 ;	STM8L15x_StdPeriph_Driver/src/stm8l15x_rtc.c: 542: rsfcount++;
                                    655 ; genPlus
      000176 5C               [ 1]  656 	incw	x
                                    657 ; genGoto
      000177 20 F3            [ 2]  658 	jra	00102$
                                    659 ; peephole j5 changed absolute to relative unconditional jump.
                                    660 ; genLabel
      000179                        661 00104$:
                                    662 ;	STM8L15x_StdPeriph_Driver/src/stm8l15x_rtc.c: 546: if ((RTC->ISR1 & RTC_ISR1_RSF) != RESET)
                                    663 ; genPointerGet
                                    664 ; genAnd
                                    665 ; peephole j531x replaced 'ld-bcp-jrne' by 'btjt' ('0x514c').
                                    666 ; peephole j5 changed absolute to relative unconditional jump.
      000179 72 0B 51 4C 03   [ 2]  667 	btjf	0x514c, #5, 00106$
                                    668 ; peephole j33 removed jra by using inverse bit-test-jump logic
                                    669 ; peephole j30 removed unused label 00143$.
                                    670 ; skipping generated iCode
                                    671 ;	STM8L15x_StdPeriph_Driver/src/stm8l15x_rtc.c: 548: status = SUCCESS;
                                    672 ; genAssign
      00017E A6 01            [ 1]  673 	ld	a, #0x01
                                    674 ; genGoto
                                    675 ; peephole j5 changed absolute to relative unconditional jump.
                                    676 ; genLabel
                                    677 ;	STM8L15x_StdPeriph_Driver/src/stm8l15x_rtc.c: 552: status = ERROR;
                                    678 ; genAssign
                                    679 ; genLabel
      000180 21                     680 	.byte 0x21
                                    681 ; peephole jrf1 used jump-on-false opcode to shorten jump over 1-byte instruction.
      000181                        682 00106$:
      000181 4F               [ 1]  683 	clr	a
      000182                        684 00107$:
                                    685 ;	STM8L15x_StdPeriph_Driver/src/stm8l15x_rtc.c: 556: RTC->WPR = 0xFF; 
                                    686 ; genPointerSet
      000182 35 FF 51 59      [ 1]  687 	mov	0x5159+0, #0xff
                                    688 ;	STM8L15x_StdPeriph_Driver/src/stm8l15x_rtc.c: 558: return (ErrorStatus)status;
                                    689 ; genReturn
                                    690 ; genLabel
                                    691 ; peephole j30 removed unused label 00108$.
                                    692 ;	STM8L15x_StdPeriph_Driver/src/stm8l15x_rtc.c: 559: }
                                    693 ; genEndFunction
      000186 81               [ 4]  694 	ret
                                    695 ;	Total RTC_WaitForSynchro function size at codegen: 1 bytes.
                                    696 ;	STM8L15x_StdPeriph_Driver/src/stm8l15x_rtc.c: 568: void RTC_RatioCmd(FunctionalState NewState)
                                    697 ; genLabel
                                    698 ;	-----------------------------------------
                                    699 ;	 function RTC_RatioCmd
                                    700 ;	-----------------------------------------
                                    701 ;	Register assignment is optimal.
                                    702 ;	Stack space usage: 1 bytes.
      000187                        703 _RTC_RatioCmd:
      000187 88               [ 1]  704 	push	a
                                    705 ; genReceive
      000188 6B 01            [ 1]  706 	ld	(0x01, sp), a
                                    707 ;	STM8L15x_StdPeriph_Driver/src/stm8l15x_rtc.c: 574: RTC->WPR = 0xCA;
                                    708 ; genPointerSet
      00018A 35 CA 51 59      [ 1]  709 	mov	0x5159+0, #0xca
                                    710 ;	STM8L15x_StdPeriph_Driver/src/stm8l15x_rtc.c: 575: RTC->WPR = 0x53;
                                    711 ; genPointerSet
      00018E 35 53 51 59      [ 1]  712 	mov	0x5159+0, #0x53
                                    713 ;	STM8L15x_StdPeriph_Driver/src/stm8l15x_rtc.c: 580: RTC->CR1 |= (uint8_t)RTC_CR1_RATIO;
                                    714 ; genPointerGet
      000192 C6 51 48         [ 1]  715 	ld	a, 0x5148
                                    716 ;	STM8L15x_StdPeriph_Driver/src/stm8l15x_rtc.c: 577: if (NewState != DISABLE)
                                    717 ; genIfx
      000195 0D 01            [ 1]  718 	tnz	(0x01, sp)
                                    719 ; peephole j5 changed absolute to relative unconditional jump.
      000197 27 07            [ 1]  720 	jreq	00102$
                                    721 ; peephole j10 removed jra by using inverse jump logic
                                    722 ; peephole j30 removed unused label 00113$.
                                    723 ;	STM8L15x_StdPeriph_Driver/src/stm8l15x_rtc.c: 580: RTC->CR1 |= (uint8_t)RTC_CR1_RATIO;
                                    724 ; genOr
      000199 AA 20            [ 1]  725 	or	a, #0x20
                                    726 ; genPointerSet
      00019B C7 51 48         [ 1]  727 	ld	0x5148, a
                                    728 ; genGoto
      00019E 20 05            [ 2]  729 	jra	00103$
                                    730 ; peephole j5 changed absolute to relative unconditional jump.
                                    731 ; genLabel
      0001A0                        732 00102$:
                                    733 ;	STM8L15x_StdPeriph_Driver/src/stm8l15x_rtc.c: 585: RTC->CR1 &= (uint8_t)~RTC_CR1_RATIO;
                                    734 ; genAnd
      0001A0 A4 DF            [ 1]  735 	and	a, #0xdf
                                    736 ; genPointerSet
      0001A2 C7 51 48         [ 1]  737 	ld	0x5148, a
                                    738 ; genLabel
      0001A5                        739 00103$:
                                    740 ;	STM8L15x_StdPeriph_Driver/src/stm8l15x_rtc.c: 589: RTC->WPR = 0xFF; 
                                    741 ; genPointerSet
      0001A5 35 FF 51 59      [ 1]  742 	mov	0x5159+0, #0xff
                                    743 ; genLabel
                                    744 ; peephole j30 removed unused label 00104$.
                                    745 ;	STM8L15x_StdPeriph_Driver/src/stm8l15x_rtc.c: 590: }
                                    746 ; genEndFunction
      0001A9 84               [ 1]  747 	pop	a
      0001AA 81               [ 4]  748 	ret
                                    749 ;	Total RTC_RatioCmd function size at codegen: 2 bytes.
                                    750 ;	STM8L15x_StdPeriph_Driver/src/stm8l15x_rtc.c: 598: void RTC_BypassShadowCmd(FunctionalState NewState)
                                    751 ; genLabel
                                    752 ;	-----------------------------------------
                                    753 ;	 function RTC_BypassShadowCmd
                                    754 ;	-----------------------------------------
                                    755 ;	Register assignment is optimal.
                                    756 ;	Stack space usage: 1 bytes.
      0001AB                        757 _RTC_BypassShadowCmd:
      0001AB 88               [ 1]  758 	push	a
                                    759 ; genReceive
      0001AC 6B 01            [ 1]  760 	ld	(0x01, sp), a
                                    761 ;	STM8L15x_StdPeriph_Driver/src/stm8l15x_rtc.c: 604: RTC->WPR = 0xCA;
                                    762 ; genPointerSet
      0001AE 35 CA 51 59      [ 1]  763 	mov	0x5159+0, #0xca
                                    764 ;	STM8L15x_StdPeriph_Driver/src/stm8l15x_rtc.c: 605: RTC->WPR = 0x53;
                                    765 ; genPointerSet
      0001B2 35 53 51 59      [ 1]  766 	mov	0x5159+0, #0x53
                                    767 ;	STM8L15x_StdPeriph_Driver/src/stm8l15x_rtc.c: 610: RTC->CR1 |= (uint8_t)RTC_CR1_BYPSHAD;
                                    768 ; genPointerGet
      0001B6 C6 51 48         [ 1]  769 	ld	a, 0x5148
                                    770 ;	STM8L15x_StdPeriph_Driver/src/stm8l15x_rtc.c: 607: if (NewState != DISABLE)
                                    771 ; genIfx
      0001B9 0D 01            [ 1]  772 	tnz	(0x01, sp)
                                    773 ; peephole j5 changed absolute to relative unconditional jump.
      0001BB 27 07            [ 1]  774 	jreq	00102$
                                    775 ; peephole j10 removed jra by using inverse jump logic
                                    776 ; peephole j30 removed unused label 00113$.
                                    777 ;	STM8L15x_StdPeriph_Driver/src/stm8l15x_rtc.c: 610: RTC->CR1 |= (uint8_t)RTC_CR1_BYPSHAD;
                                    778 ; genOr
      0001BD AA 10            [ 1]  779 	or	a, #0x10
                                    780 ; genPointerSet
      0001BF C7 51 48         [ 1]  781 	ld	0x5148, a
                                    782 ; genGoto
      0001C2 20 05            [ 2]  783 	jra	00103$
                                    784 ; peephole j5 changed absolute to relative unconditional jump.
                                    785 ; genLabel
      0001C4                        786 00102$:
                                    787 ;	STM8L15x_StdPeriph_Driver/src/stm8l15x_rtc.c: 615: RTC->CR1 &= (uint8_t)~RTC_CR1_BYPSHAD;
                                    788 ; genAnd
      0001C4 A4 EF            [ 1]  789 	and	a, #0xef
                                    790 ; genPointerSet
      0001C6 C7 51 48         [ 1]  791 	ld	0x5148, a
                                    792 ; genLabel
      0001C9                        793 00103$:
                                    794 ;	STM8L15x_StdPeriph_Driver/src/stm8l15x_rtc.c: 619: RTC->WPR = 0xFF; 
                                    795 ; genPointerSet
      0001C9 35 FF 51 59      [ 1]  796 	mov	0x5159+0, #0xff
                                    797 ; genLabel
                                    798 ; peephole j30 removed unused label 00104$.
                                    799 ;	STM8L15x_StdPeriph_Driver/src/stm8l15x_rtc.c: 620: }
                                    800 ; genEndFunction
      0001CD 84               [ 1]  801 	pop	a
      0001CE 81               [ 4]  802 	ret
                                    803 ;	Total RTC_BypassShadowCmd function size at codegen: 2 bytes.
                                    804 ;	STM8L15x_StdPeriph_Driver/src/stm8l15x_rtc.c: 659: ErrorStatus RTC_SetTime(RTC_Format_TypeDef RTC_Format,
                                    805 ; genLabel
                                    806 ;	-----------------------------------------
                                    807 ;	 function RTC_SetTime
                                    808 ;	-----------------------------------------
                                    809 ;	Register assignment might be sub-optimal.
                                    810 ;	Stack space usage: 6 bytes.
      0001CF                        811 _RTC_SetTime:
      0001CF 52 06            [ 2]  812 	sub	sp, #6
                                    813 ; genReceive
      0001D1 6B 06            [ 1]  814 	ld	(0x06, sp), a
                                    815 ; genReceive
      0001D3 1F 04            [ 2]  816 	ldw	(0x04, sp), x
                                    817 ;	STM8L15x_StdPeriph_Driver/src/stm8l15x_rtc.c: 671: if ((RTC->CR1 & RTC_CR1_FMT) != RESET)
                                    818 ; genPointerGet
                                    819 ; Dummy read
      0001D5 C6 51 48         [ 1]  820 	ld	a, 0x5148
                                    821 ;	STM8L15x_StdPeriph_Driver/src/stm8l15x_rtc.c: 701: RTC->WPR = 0xCA;
                                    822 ; genPointerSet
      0001D8 35 CA 51 59      [ 1]  823 	mov	0x5159+0, #0xca
                                    824 ;	STM8L15x_StdPeriph_Driver/src/stm8l15x_rtc.c: 702: RTC->WPR = 0x53;
                                    825 ; genPointerSet
      0001DC 35 53 51 59      [ 1]  826 	mov	0x5159+0, #0x53
                                    827 ;	STM8L15x_StdPeriph_Driver/src/stm8l15x_rtc.c: 705: if (RTC_EnterInitMode() == ERROR)
                                    828 ; genCall
      0001E0 CDr01r35         [ 4]  829 	call	_RTC_EnterInitMode
                                    830 ; genIfx
      0001E3 4D               [ 1]  831 	tnz	a
                                    832 ; peephole j5 changed absolute to relative unconditional jump.
      0001E4 26 07            [ 1]  833 	jrne	00123$
                                    834 ; peephole j7 removed jra by using inverse jump logic
                                    835 ; peephole j30 removed unused label 00166$.
                                    836 ;	STM8L15x_StdPeriph_Driver/src/stm8l15x_rtc.c: 707: status = ERROR;
                                    837 ; genAssign
      0001E6 4F               [ 1]  838 	clr	a
                                    839 ;	STM8L15x_StdPeriph_Driver/src/stm8l15x_rtc.c: 709: RTC->WPR = 0xFF; 
                                    840 ; genPointerSet
      0001E7 35 FF 51 59      [ 1]  841 	mov	0x5159+0, #0xff
                                    842 ; genGoto
      0001EB 20 6B            [ 2]  843 	jra	00124$
                                    844 ; peephole j5 changed absolute to relative unconditional jump.
                                    845 ; genLabel
      0001ED                        846 00123$:
                                    847 ;	STM8L15x_StdPeriph_Driver/src/stm8l15x_rtc.c: 714: if ((RTC->CR1 & RTC_CR1_FMT) != RESET)
                                    848 ; genPointerGet
                                    849 ; genAnd
                                    850 ; peephole j531x replaced 'ld-bcp-jrne' by 'btjt' ('0x5148').
                                    851 ; peephole j5 changed absolute to relative unconditional jump.
      0001ED 72 0D 51 48 07   [ 2]  852 	btjf	0x5148, #6, 00111$
                                    853 ; peephole j33 removed jra by using inverse bit-test-jump logic
                                    854 ; peephole j30 removed unused label 00167$.
                                    855 ; skipping generated iCode
                                    856 ;	STM8L15x_StdPeriph_Driver/src/stm8l15x_rtc.c: 717: temp = RTC_TimeStruct->RTC_H12;
                                    857 ; genAssign
      0001F2 1E 04            [ 2]  858 	ldw	x, (0x04, sp)
                                    859 ; genPointerGet
      0001F4 E6 03            [ 1]  860 	ld	a, (0x3, x)
      0001F6 6B 01            [ 1]  861 	ld	(0x01, sp), a
                                    862 ; genGoto
                                    863 ; peephole j5 changed absolute to relative unconditional jump.
                                    864 ; genLabel
                                    865 ;	STM8L15x_StdPeriph_Driver/src/stm8l15x_rtc.c: 721: temp = 0;
                                    866 ; genAssign
                                    867 ; genLabel
      0001F8 C5                     868 	.byte 0xc5
                                    869 ; peephole jrf7 used bcp opcode to jump over 2-byte instruction.
      0001F9                        870 00111$:
      0001F9 0F 01            [ 1]  871 	clr	(0x01, sp)
      0001FB                        872 00112$:
                                    873 ;	STM8L15x_StdPeriph_Driver/src/stm8l15x_rtc.c: 726: RTC->TR1 = (uint8_t)(RTC_TimeStruct->RTC_Seconds);
                                    874 ; genAssign
      0001FB 16 04            [ 2]  875 	ldw	y, (0x04, sp)
                                    876 ;	STM8L15x_StdPeriph_Driver/src/stm8l15x_rtc.c: 727: RTC->TR2 = (uint8_t)(RTC_TimeStruct->RTC_Minutes) ;
                                    877 ; genPlus
      0001FD 1E 04            [ 2]  878 	ldw	x, (0x04, sp)
      0001FF 5C               [ 1]  879 	incw	x
      000200 1F 02            [ 2]  880 	ldw	(0x02, sp), x
                                    881 ;	STM8L15x_StdPeriph_Driver/src/stm8l15x_rtc.c: 728: RTC->TR3 = (uint8_t)( temp | RTC_TimeStruct->RTC_Hours) ;
                                    882 ; genCast
                                    883 ; genAssign
      000202 1E 04            [ 2]  884 	ldw	x, (0x04, sp)
                                    885 ;	STM8L15x_StdPeriph_Driver/src/stm8l15x_rtc.c: 726: RTC->TR1 = (uint8_t)(RTC_TimeStruct->RTC_Seconds);
                                    886 ; genPointerGet
      000204 90 E6 02         [ 1]  887 	ld	a, (0x2, y)
                                    888 ;	STM8L15x_StdPeriph_Driver/src/stm8l15x_rtc.c: 724: if (RTC_Format != RTC_Format_BIN)
                                    889 ; genIfx
      000207 0D 06            [ 1]  890 	tnz	(0x06, sp)
                                    891 ; peephole j5 changed absolute to relative unconditional jump.
      000209 27 12            [ 1]  892 	jreq	00114$
                                    893 ; peephole j10 removed jra by using inverse jump logic
                                    894 ; peephole j30 removed unused label 00168$.
                                    895 ;	STM8L15x_StdPeriph_Driver/src/stm8l15x_rtc.c: 726: RTC->TR1 = (uint8_t)(RTC_TimeStruct->RTC_Seconds);
                                    896 ; genPointerSet
      00020B C7 51 40         [ 1]  897 	ld	0x5140, a
                                    898 ;	STM8L15x_StdPeriph_Driver/src/stm8l15x_rtc.c: 727: RTC->TR2 = (uint8_t)(RTC_TimeStruct->RTC_Minutes) ;
                                    899 ; genPointerGet
      00020E 16 02            [ 2]  900 	ldw	y, (0x02, sp)
      000210 90 F6            [ 1]  901 	ld	a, (y)
                                    902 ; genPointerSet
      000212 C7 51 41         [ 1]  903 	ld	0x5141, a
                                    904 ;	STM8L15x_StdPeriph_Driver/src/stm8l15x_rtc.c: 728: RTC->TR3 = (uint8_t)( temp | RTC_TimeStruct->RTC_Hours) ;
                                    905 ; genPointerGet
      000215 F6               [ 1]  906 	ld	a, (x)
                                    907 ; genOr
      000216 1A 01            [ 1]  908 	or	a, (0x01, sp)
                                    909 ; genPointerSet
      000218 C7 51 42         [ 1]  910 	ld	0x5142, a
                                    911 ; genGoto
      00021B 20 1D            [ 2]  912 	jra	00115$
                                    913 ; peephole j5 changed absolute to relative unconditional jump.
                                    914 ; genLabel
      00021D                        915 00114$:
                                    916 ;	STM8L15x_StdPeriph_Driver/src/stm8l15x_rtc.c: 732: RTC->TR1 = (uint8_t)(ByteToBcd2(RTC_TimeStruct->RTC_Seconds));
                                    917 ; genSend
      00021D 89               [ 2]  918 	pushw	x
                                    919 ; genCall
      00021E CDr09r23         [ 4]  920 	call	_ByteToBcd2
      000221 85               [ 2]  921 	popw	x
                                    922 ; genPointerSet
      000222 C7 51 40         [ 1]  923 	ld	0x5140, a
                                    924 ;	STM8L15x_StdPeriph_Driver/src/stm8l15x_rtc.c: 733: RTC->TR2 = (uint8_t)(ByteToBcd2(RTC_TimeStruct->RTC_Minutes)) ;
                                    925 ; genPointerGet
      000225 16 02            [ 2]  926 	ldw	y, (0x02, sp)
      000227 90 F6            [ 1]  927 	ld	a, (y)
                                    928 ; genSend
      000229 89               [ 2]  929 	pushw	x
                                    930 ; genCall
      00022A CDr09r23         [ 4]  931 	call	_ByteToBcd2
      00022D 85               [ 2]  932 	popw	x
                                    933 ; genPointerSet
      00022E C7 51 41         [ 1]  934 	ld	0x5141, a
                                    935 ;	STM8L15x_StdPeriph_Driver/src/stm8l15x_rtc.c: 734: RTC->TR3 = (uint8_t)( temp | ByteToBcd2(RTC_TimeStruct->RTC_Hours));
                                    936 ; genPointerGet
      000231 F6               [ 1]  937 	ld	a, (x)
                                    938 ; genSend
                                    939 ; genCall
      000232 CDr09r23         [ 4]  940 	call	_ByteToBcd2
                                    941 ; genOr
      000235 1A 01            [ 1]  942 	or	a, (0x01, sp)
                                    943 ; genPointerSet
      000237 C7 51 42         [ 1]  944 	ld	0x5142, a
                                    945 ; genLabel
      00023A                        946 00115$:
                                    947 ;	STM8L15x_StdPeriph_Driver/src/stm8l15x_rtc.c: 737: (void)(RTC->DR3);
                                    948 ; genPointerGet
                                    949 ; Dummy read
      00023A C6 51 46         [ 1]  950 	ld	a, 0x5146
                                    951 ;	STM8L15x_StdPeriph_Driver/src/stm8l15x_rtc.c: 740: RTC->ISR1 &= (uint8_t)~RTC_ISR1_INIT;
                                    952 ; genPointerGet
                                    953 ; genAnd
                                    954 ; genPointerSet
      00023D 72 1F 51 4C      [ 1]  955 	bres	0x514c, #7
                                    956 ; peephole 204x replaced 'and' by 'bres' ('0x514c').
                                    957 ;	STM8L15x_StdPeriph_Driver/src/stm8l15x_rtc.c: 743: RTC->WPR = 0xFF; 
                                    958 ; genPointerSet
      000241 35 FF 51 59      [ 1]  959 	mov	0x5159+0, #0xff
                                    960 ;	STM8L15x_StdPeriph_Driver/src/stm8l15x_rtc.c: 746: if ((RTC->CR1 & RTC_CR1_BYPSHAD) == RESET)
                                    961 ; genPointerGet
                                    962 ; genAnd
                                    963 ; peephole j530x replaced 'ld-bcp-jreq' by 'btjf' ('0x5148').
                                    964 ; peephole j5 changed absolute to relative unconditional jump.
      000245 72 08 51 48 0C   [ 2]  965 	btjt	0x5148, #4, 00120$
                                    966 ; peephole j34 removed jra by using inverse bit-test-jump logic
                                    967 ; peephole j30 removed unused label 00169$.
                                    968 ; skipping generated iCode
                                    969 ;	STM8L15x_StdPeriph_Driver/src/stm8l15x_rtc.c: 748: if (RTC_WaitForSynchro() == ERROR)
                                    970 ; genCall
      00024A CDr01r5B         [ 4]  971 	call	_RTC_WaitForSynchro
                                    972 ; genIfx
      00024D 4D               [ 1]  973 	tnz	a
                                    974 ; peephole j5 changed absolute to relative unconditional jump.
      00024E 26 03            [ 1]  975 	jrne	00117$
                                    976 ; peephole j7 removed jra by using inverse jump logic
                                    977 ; peephole j30 removed unused label 00170$.
                                    978 ;	STM8L15x_StdPeriph_Driver/src/stm8l15x_rtc.c: 750: status = ERROR;
                                    979 ; genAssign
      000250 4F               [ 1]  980 	clr	a
                                    981 ; genGoto
      000251 20 05            [ 2]  982 	jra	00124$
                                    983 ; peephole j5 changed absolute to relative unconditional jump.
                                    984 ; genLabel
      000253                        985 00117$:
                                    986 ;	STM8L15x_StdPeriph_Driver/src/stm8l15x_rtc.c: 754: status = SUCCESS;
                                    987 ; genAssign
      000253 A6 01            [ 1]  988 	ld	a, #0x01
                                    989 ; genGoto
                                    990 ; peephole j5 changed absolute to relative unconditional jump.
                                    991 ; genLabel
                                    992 ;	STM8L15x_StdPeriph_Driver/src/stm8l15x_rtc.c: 759: status = SUCCESS;
                                    993 ; genAssign
                                    994 ; genLabel
      000255 C5                     995 	.byte 0xc5
                                    996 ; peephole jrf6 used bcp opcode to jump over 2-byte instruction.
      000256                        997 00120$:
      000256 A6 01            [ 1]  998 	ld	a, #0x01
      000258                        999 00124$:
                                   1000 ;	STM8L15x_StdPeriph_Driver/src/stm8l15x_rtc.c: 763: return (ErrorStatus)status;
                                   1001 ; genReturn
                                   1002 ; genLabel
                                   1003 ; peephole j30 removed unused label 00125$.
                                   1004 ;	STM8L15x_StdPeriph_Driver/src/stm8l15x_rtc.c: 764: }
                                   1005 ; genEndFunction
      000258 5B 06            [ 2] 1006 	addw	sp, #6
      00025A 81               [ 4] 1007 	ret
                                   1008 ;	Total RTC_SetTime function size at codegen: 3 bytes.
                                   1009 ;	STM8L15x_StdPeriph_Driver/src/stm8l15x_rtc.c: 775: void RTC_TimeStructInit(RTC_TimeTypeDef* RTC_TimeStruct)
                                   1010 ; genLabel
                                   1011 ;	-----------------------------------------
                                   1012 ;	 function RTC_TimeStructInit
                                   1013 ;	-----------------------------------------
                                   1014 ;	Register assignment might be sub-optimal.
                                   1015 ;	Stack space usage: 0 bytes.
      00025B                       1016 _RTC_TimeStructInit:
                                   1017 ; genReceive
                                   1018 ;	STM8L15x_StdPeriph_Driver/src/stm8l15x_rtc.c: 778: RTC_TimeStruct->RTC_H12 = RTC_H12_AM;
                                   1019 ; genPlus
                                   1020 ; peephole 5w replaced exgw-ldw by ldw.
      00025B 90 93            [ 1] 1021 	ldw	y, x
                                   1022 ; genPointerSet
                                   1023 ; peephole 9a moved addition of offset into clear instruction
      00025D 6F 03            [ 1] 1024 	clr	(0x0003, x)
                                   1025 ;	STM8L15x_StdPeriph_Driver/src/stm8l15x_rtc.c: 779: RTC_TimeStruct->RTC_Hours = 0;
                                   1026 ; genPointerSet
      00025F 90 7F            [ 1] 1027 	clr	(y)
                                   1028 ;	STM8L15x_StdPeriph_Driver/src/stm8l15x_rtc.c: 780: RTC_TimeStruct->RTC_Minutes = 0;
                                   1029 ; genPlus
      000261 93               [ 1] 1030 	ldw	x, y
                                   1031 ; genPointerSet
                                   1032 ; peephole 10j moved addition of offset into instruction
      000262 6F 01            [ 1] 1033 	clr	(0x01, x)
                                   1034 ;	STM8L15x_StdPeriph_Driver/src/stm8l15x_rtc.c: 781: RTC_TimeStruct->RTC_Seconds = 0;
                                   1035 ; genPlus
      000264 93               [ 1] 1036 	ldw	x, y
                                   1037 ; genPointerSet
                                   1038 ; peephole 10i moved addition of offset into instruction
      000265 6F 02            [ 1] 1039 	clr	(0x02, x)
                                   1040 ; genLabel
                                   1041 ; peephole j30 removed unused label 00101$.
                                   1042 ;	STM8L15x_StdPeriph_Driver/src/stm8l15x_rtc.c: 782: }
                                   1043 ; genEndFunction
      000267 81               [ 4] 1044 	ret
                                   1045 ;	Total RTC_TimeStructInit function size at codegen: 1 bytes.
                                   1046 ;	STM8L15x_StdPeriph_Driver/src/stm8l15x_rtc.c: 798: void RTC_GetTime(RTC_Format_TypeDef RTC_Format,
                                   1047 ; genLabel
                                   1048 ;	-----------------------------------------
                                   1049 ;	 function RTC_GetTime
                                   1050 ;	-----------------------------------------
                                   1051 ;	Register assignment might be sub-optimal.
                                   1052 ;	Stack space usage: 6 bytes.
      000268                       1053 _RTC_GetTime:
      000268 52 06            [ 2] 1054 	sub	sp, #6
                                   1055 ; genReceive
      00026A 6B 06            [ 1] 1056 	ld	(0x06, sp), a
                                   1057 ; genReceive
                                   1058 ;	STM8L15x_StdPeriph_Driver/src/stm8l15x_rtc.c: 808: RTC_TimeStruct->RTC_Seconds = RTC->TR1;
                                   1059 ; genPlus
                                   1060 ; peephole 5w replaced exgw-ldw by ldw.
      00026C 90 93            [ 1] 1061 	ldw	y, x
      00026E 5C               [ 1] 1062 	incw	x
      00026F 5C               [ 1] 1063 	incw	x
      000270 1F 01            [ 2] 1064 	ldw	(0x01, sp), x
                                   1065 ; genPointerGet
      000272 C6 51 40         [ 1] 1066 	ld	a, 0x5140
                                   1067 ; genPointerSet
      000275 1E 01            [ 2] 1068 	ldw	x, (0x01, sp)
      000277 F7               [ 1] 1069 	ld	(x), a
                                   1070 ;	STM8L15x_StdPeriph_Driver/src/stm8l15x_rtc.c: 811: RTC_TimeStruct->RTC_Minutes = RTC->TR2;
                                   1071 ; genPlus
      000278 93               [ 1] 1072 	ldw	x, y
      000279 5C               [ 1] 1073 	incw	x
      00027A 1F 03            [ 2] 1074 	ldw	(0x03, sp), x
                                   1075 ; genPointerGet
      00027C C6 51 41         [ 1] 1076 	ld	a, 0x5141
                                   1077 ; genPointerSet
      00027F 1E 03            [ 2] 1078 	ldw	x, (0x03, sp)
      000281 F7               [ 1] 1079 	ld	(x), a
                                   1080 ;	STM8L15x_StdPeriph_Driver/src/stm8l15x_rtc.c: 814: tmpreg = (uint8_t)RTC->TR3;
                                   1081 ; genPointerGet
      000282 C6 51 42         [ 1] 1082 	ld	a, 0x5142
      000285 6B 05            [ 1] 1083 	ld	(0x05, sp), a
                                   1084 ;	STM8L15x_StdPeriph_Driver/src/stm8l15x_rtc.c: 817: (void) (RTC->DR3) ;
                                   1085 ; genPointerGet
                                   1086 ; Dummy read
      000287 C6 51 46         [ 1] 1087 	ld	a, 0x5146
                                   1088 ;	STM8L15x_StdPeriph_Driver/src/stm8l15x_rtc.c: 821: RTC_TimeStruct->RTC_Hours = (uint8_t)(tmpreg & (uint8_t)~(RTC_TR3_PM));
                                   1089 ; genCast
                                   1090 ; genAssign
      00028A 93               [ 1] 1091 	ldw	x, y
                                   1092 ; genAnd
      00028B 7B 05            [ 1] 1093 	ld	a, (0x05, sp)
      00028D A4 BF            [ 1] 1094 	and	a, #0xbf
                                   1095 ; genPointerSet
      00028F F7               [ 1] 1096 	ld	(x), a
                                   1097 ;	STM8L15x_StdPeriph_Driver/src/stm8l15x_rtc.c: 824: RTC_TimeStruct->RTC_H12 = (RTC_H12_TypeDef)(tmpreg & RTC_TR3_PM);
                                   1098 ; genPlus
      000290 72 A9 00 03      [ 2] 1099 	addw	y, #0x0003
                                   1100 ; genAnd
      000294 7B 05            [ 1] 1101 	ld	a, (0x05, sp)
      000296 A4 40            [ 1] 1102 	and	a, #0x40
                                   1103 ; genPointerSet
      000298 90 F7            [ 1] 1104 	ld	(y), a
                                   1105 ;	STM8L15x_StdPeriph_Driver/src/stm8l15x_rtc.c: 827: if (RTC_Format == RTC_Format_BIN)
                                   1106 ; genIfx
      00029A 0D 06            [ 1] 1107 	tnz	(0x06, sp)
                                   1108 ; peephole j5 changed absolute to relative unconditional jump.
      00029C 26 19            [ 1] 1109 	jrne	00103$
                                   1110 ; peephole j7 removed jra by using inverse jump logic
                                   1111 ; peephole j30 removed unused label 00112$.
                                   1112 ;	STM8L15x_StdPeriph_Driver/src/stm8l15x_rtc.c: 830: RTC_TimeStruct->RTC_Hours = (uint8_t)Bcd2ToByte(RTC_TimeStruct->RTC_Hours);
                                   1113 ; genPointerGet
      00029E F6               [ 1] 1114 	ld	a, (x)
                                   1115 ; genSend
      00029F 89               [ 2] 1116 	pushw	x
                                   1117 ; genCall
      0002A0 CDr09r36         [ 4] 1118 	call	_Bcd2ToByte
      0002A3 85               [ 2] 1119 	popw	x
                                   1120 ; genPointerSet
      0002A4 F7               [ 1] 1121 	ld	(x), a
                                   1122 ;	STM8L15x_StdPeriph_Driver/src/stm8l15x_rtc.c: 831: RTC_TimeStruct->RTC_Minutes = (uint8_t)Bcd2ToByte(RTC_TimeStruct->RTC_Minutes);
                                   1123 ; genPointerGet
      0002A5 1E 03            [ 2] 1124 	ldw	x, (0x03, sp)
      0002A7 F6               [ 1] 1125 	ld	a, (x)
                                   1126 ; genSend
                                   1127 ; genCall
      0002A8 CDr09r36         [ 4] 1128 	call	_Bcd2ToByte
                                   1129 ; genPointerSet
      0002AB 1E 03            [ 2] 1130 	ldw	x, (0x03, sp)
      0002AD F7               [ 1] 1131 	ld	(x), a
                                   1132 ;	STM8L15x_StdPeriph_Driver/src/stm8l15x_rtc.c: 832: RTC_TimeStruct->RTC_Seconds = (uint8_t)Bcd2ToByte(RTC_TimeStruct->RTC_Seconds);
                                   1133 ; genPointerGet
      0002AE 1E 01            [ 2] 1134 	ldw	x, (0x01, sp)
      0002B0 F6               [ 1] 1135 	ld	a, (x)
                                   1136 ; genSend
                                   1137 ; genCall
      0002B1 CDr09r36         [ 4] 1138 	call	_Bcd2ToByte
                                   1139 ; genPointerSet
      0002B4 1E 01            [ 2] 1140 	ldw	x, (0x01, sp)
      0002B6 F7               [ 1] 1141 	ld	(x), a
                                   1142 ; genLabel
      0002B7                       1143 00103$:
                                   1144 ;	STM8L15x_StdPeriph_Driver/src/stm8l15x_rtc.c: 834: }
                                   1145 ; genEndFunction
      0002B7 5B 06            [ 2] 1146 	addw	sp, #6
      0002B9 81               [ 4] 1147 	ret
                                   1148 ;	Total RTC_GetTime function size at codegen: 3 bytes.
                                   1149 ;	STM8L15x_StdPeriph_Driver/src/stm8l15x_rtc.c: 845: uint16_t RTC_GetSubSecond(void)
                                   1150 ; genLabel
                                   1151 ;	-----------------------------------------
                                   1152 ;	 function RTC_GetSubSecond
                                   1153 ;	-----------------------------------------
                                   1154 ;	Register assignment might be sub-optimal.
                                   1155 ;	Stack space usage: 2 bytes.
      0002BA                       1156 _RTC_GetSubSecond:
      0002BA 89               [ 2] 1157 	pushw	x
                                   1158 ;	STM8L15x_StdPeriph_Driver/src/stm8l15x_rtc.c: 851: ssrhreg = RTC->SSRH;
                                   1159 ; genPointerGet
      0002BB C6 51 57         [ 1] 1160 	ld	a, 0x5157
      0002BE 95               [ 1] 1161 	ld	xh, a
                                   1162 ;	STM8L15x_StdPeriph_Driver/src/stm8l15x_rtc.c: 852: ssrlreg = RTC->SSRL;
                                   1163 ; genPointerGet
      0002BF C6 51 58         [ 1] 1164 	ld	a, 0x5158
      0002C2 97               [ 1] 1165 	ld	xl, a
                                   1166 ;	STM8L15x_StdPeriph_Driver/src/stm8l15x_rtc.c: 855: (void) (RTC->DR3);
                                   1167 ; genPointerGet
                                   1168 ; Dummy read
      0002C3 C6 51 46         [ 1] 1169 	ld	a, 0x5146
                                   1170 ;	STM8L15x_StdPeriph_Driver/src/stm8l15x_rtc.c: 858: ssrreg = (uint16_t)((uint16_t)((uint16_t)ssrhreg << 8) | (uint16_t)(ssrlreg));
                                   1171 ; genCast
                                   1172 ; genAssign
                                   1173 ; peephole 1 removed dead clear of a.
                                   1174 ; genLeftShiftLiteral
      0002C6 0F 02            [ 1] 1175 	clr	(0x02, sp)
                                   1176 ; genCast
                                   1177 ; genAssign
                                   1178 ; peephole 3 removed dead clrw of y.
                                   1179 ; genOr
                                   1180 ;	STM8L15x_StdPeriph_Driver/src/stm8l15x_rtc.c: 859: return (uint16_t)(ssrreg);
                                   1181 ; genReturn
                                   1182 ; genLabel
                                   1183 ; peephole j30 removed unused label 00101$.
                                   1184 ;	STM8L15x_StdPeriph_Driver/src/stm8l15x_rtc.c: 860: }
                                   1185 ; genEndFunction
      0002C8 5B 02            [ 2] 1186 	addw	sp, #2
      0002CA 81               [ 4] 1187 	ret
                                   1188 ;	Total RTC_GetSubSecond function size at codegen: 3 bytes.
                                   1189 ;	STM8L15x_StdPeriph_Driver/src/stm8l15x_rtc.c: 876: ErrorStatus RTC_SetDate(RTC_Format_TypeDef RTC_Format,
                                   1190 ; genLabel
                                   1191 ;	-----------------------------------------
                                   1192 ;	 function RTC_SetDate
                                   1193 ;	-----------------------------------------
                                   1194 ;	Register assignment might be sub-optimal.
                                   1195 ;	Stack space usage: 10 bytes.
      0002CB                       1196 _RTC_SetDate:
      0002CB 52 0A            [ 2] 1197 	sub	sp, #10
                                   1198 ; genReceive
      0002CD 6B 0A            [ 1] 1199 	ld	(0x0a, sp), a
                                   1200 ; genReceive
                                   1201 ;	STM8L15x_StdPeriph_Driver/src/stm8l15x_rtc.c: 881: if ((RTC_Format == RTC_Format_BIN) && ((RTC_DateStruct->RTC_Month & TEN_VALUE_BCD) == TEN_VALUE_BCD))
                                   1202 ; genPlus
      0002CF 1F 08            [ 2] 1203 	ldw	(0x08, sp), x
                                   1204 ; peephole 13 removed redundant load from (0x08, sp) into x.
      0002D1 5C               [ 1] 1205 	incw	x
      0002D2 1F 01            [ 2] 1206 	ldw	(0x01, sp), x
                                   1207 ; genIfx
      0002D4 0D 0A            [ 1] 1208 	tnz	(0x0a, sp)
                                   1209 ; peephole j5 changed absolute to relative unconditional jump.
      0002D6 26 11            [ 1] 1210 	jrne	00106$
                                   1211 ; peephole j7 removed jra by using inverse jump logic
                                   1212 ; peephole j30 removed unused label 00163$.
                                   1213 ; genPointerGet
      0002D8 1E 01            [ 2] 1214 	ldw	x, (0x01, sp)
      0002DA F6               [ 1] 1215 	ld	a, (x)
                                   1216 ; genAnd
      0002DB 97               [ 1] 1217 	ld	xl, a
                                   1218 ; peephole 4 removed redundant load from xl into a.
                                   1219 ; genCmpEQorNE
      0002DC 43               [ 1] 1220 	cpl	a
      0002DD A5 10            [ 1] 1221 	bcp	a, #0x10
                                   1222 ; peephole 111 replaced 'and-cp' by 'cpl-bcp'.
                                   1223 ; peephole j5 changed absolute to relative unconditional jump.
                                   1224 ; peephole j10 removed jra by using inverse jump logic
                                   1225 ; peephole j30 removed unused label 00165$.
                                   1226 ; peephole j5 changed absolute to relative unconditional jump.
      0002DF 26 08            [ 1] 1227 	jrne	00106$
                                   1228 ; peephole j7 removed jra by using inverse jump logic
                                   1229 ; peephole j30 removed unused label 00166$.
                                   1230 ; skipping generated iCode
                                   1231 ;	STM8L15x_StdPeriph_Driver/src/stm8l15x_rtc.c: 883: RTC_DateStruct->RTC_Month = (RTC_Month_TypeDef)((RTC_DateStruct->RTC_Month & (uint8_t)~(TEN_VALUE_BCD)) + TEN_VALUE_BIN);
                                   1232 ; genAnd
      0002E1 9F               [ 1] 1233 	ld	a, xl
      0002E2 A4 EF            [ 1] 1234 	and	a, #0xef
                                   1235 ; genPlus
      0002E4 AB 0A            [ 1] 1236 	add	a, #0x0a
                                   1237 ; genPointerSet
      0002E6 1E 01            [ 2] 1238 	ldw	x, (0x01, sp)
      0002E8 F7               [ 1] 1239 	ld	(x), a
                                   1240 ;	STM8L15x_StdPeriph_Driver/src/stm8l15x_rtc.c: 902: assert_param(IS_RTC_DATE_MAX(Bcd2ToByte((uint8_t)RTC_DateStruct->RTC_Date)));
                                   1241 ; genLabel
      0002E9                       1242 00106$:
                                   1243 ;	STM8L15x_StdPeriph_Driver/src/stm8l15x_rtc.c: 907: RTC->WPR = 0xCA;
                                   1244 ; genPointerSet
      0002E9 35 CA 51 59      [ 1] 1245 	mov	0x5159+0, #0xca
                                   1246 ;	STM8L15x_StdPeriph_Driver/src/stm8l15x_rtc.c: 908: RTC->WPR = 0x53;
                                   1247 ; genPointerSet
      0002ED 35 53 51 59      [ 1] 1248 	mov	0x5159+0, #0x53
                                   1249 ;	STM8L15x_StdPeriph_Driver/src/stm8l15x_rtc.c: 911: if (RTC_EnterInitMode() == ERROR)
                                   1250 ; genCall
      0002F1 CDr01r35         [ 4] 1251 	call	_RTC_EnterInitMode
                                   1252 ; genIfx
      0002F4 4D               [ 1] 1253 	tnz	a
                                   1254 ; peephole j5 changed absolute to relative unconditional jump.
      0002F5 26 07            [ 1] 1255 	jrne	00117$
                                   1256 ; peephole j7 removed jra by using inverse jump logic
                                   1257 ; peephole j30 removed unused label 00167$.
                                   1258 ;	STM8L15x_StdPeriph_Driver/src/stm8l15x_rtc.c: 913: status = ERROR;
                                   1259 ; genAssign
      0002F7 4F               [ 1] 1260 	clr	a
                                   1261 ;	STM8L15x_StdPeriph_Driver/src/stm8l15x_rtc.c: 915: RTC->WPR = 0xFF; 
                                   1262 ; genPointerSet
      0002F8 35 FF 51 59      [ 1] 1263 	mov	0x5159+0, #0xff
                                   1264 ; genGoto
      0002FC 20 71            [ 2] 1265 	jra	00118$
                                   1266 ; peephole j5 changed absolute to relative unconditional jump.
                                   1267 ; genLabel
      0002FE                       1268 00117$:
                                   1269 ;	STM8L15x_StdPeriph_Driver/src/stm8l15x_rtc.c: 919: (void)(RTC->TR1);
                                   1270 ; genPointerGet
                                   1271 ; Dummy read
      0002FE C6 51 40         [ 1] 1272 	ld	a, 0x5140
                                   1273 ;	STM8L15x_StdPeriph_Driver/src/stm8l15x_rtc.c: 924: RTC->DR1 = (uint8_t)(RTC_DateStruct->RTC_Date);
                                   1274 ; genAssign
      000301 1E 08            [ 2] 1275 	ldw	x, (0x08, sp)
                                   1276 ;	STM8L15x_StdPeriph_Driver/src/stm8l15x_rtc.c: 925: RTC->DR2 = (uint8_t)((RTC_DateStruct->RTC_Month) | (uint8_t)((RTC_DateStruct->RTC_WeekDay) << 5));
                                   1277 ; genCast
                                   1278 ; genAssign
      000303 16 08            [ 2] 1279 	ldw	y, (0x08, sp)
      000305 17 03            [ 2] 1280 	ldw	(0x03, sp), y
                                   1281 ;	STM8L15x_StdPeriph_Driver/src/stm8l15x_rtc.c: 926: RTC->DR3 = (uint8_t)((RTC_DateStruct->RTC_Year));
                                   1282 ; genPlus
      000307 16 08            [ 2] 1283 	ldw	y, (0x08, sp)
      000309 72 A9 00 03      [ 2] 1284 	addw	y, #0x0003
      00030D 17 05            [ 2] 1285 	ldw	(0x05, sp), y
                                   1286 ;	STM8L15x_StdPeriph_Driver/src/stm8l15x_rtc.c: 924: RTC->DR1 = (uint8_t)(RTC_DateStruct->RTC_Date);
                                   1287 ; genPointerGet
      00030F E6 02            [ 1] 1288 	ld	a, (0x2, x)
                                   1289 ;	STM8L15x_StdPeriph_Driver/src/stm8l15x_rtc.c: 922: if (RTC_Format != RTC_Format_BIN)
                                   1290 ; genIfx
      000311 0D 0A            [ 1] 1291 	tnz	(0x0a, sp)
                                   1292 ; peephole j5 changed absolute to relative unconditional jump.
      000313 27 1C            [ 1] 1293 	jreq	00108$
                                   1294 ; peephole j10 removed jra by using inverse jump logic
                                   1295 ; peephole j30 removed unused label 00168$.
                                   1296 ;	STM8L15x_StdPeriph_Driver/src/stm8l15x_rtc.c: 924: RTC->DR1 = (uint8_t)(RTC_DateStruct->RTC_Date);
                                   1297 ; genPointerSet
      000315 C7 51 44         [ 1] 1298 	ld	0x5144, a
                                   1299 ;	STM8L15x_StdPeriph_Driver/src/stm8l15x_rtc.c: 925: RTC->DR2 = (uint8_t)((RTC_DateStruct->RTC_Month) | (uint8_t)((RTC_DateStruct->RTC_WeekDay) << 5));
                                   1300 ; genPointerGet
      000318 1E 01            [ 2] 1301 	ldw	x, (0x01, sp)
      00031A F6               [ 1] 1302 	ld	a, (x)
      00031B 6B 07            [ 1] 1303 	ld	(0x07, sp), a
                                   1304 ; genPointerGet
      00031D 1E 03            [ 2] 1305 	ldw	x, (0x03, sp)
      00031F F6               [ 1] 1306 	ld	a, (x)
                                   1307 ; genLeftShiftLiteral
      000320 4E               [ 1] 1308 	swap	a
      000321 A4 F0            [ 1] 1309 	and	a, #0xf0
      000323 48               [ 1] 1310 	sll	a
                                   1311 ; genOr
      000324 1A 07            [ 1] 1312 	or	a, (0x07, sp)
                                   1313 ; genPointerSet
      000326 C7 51 45         [ 1] 1314 	ld	0x5145, a
                                   1315 ;	STM8L15x_StdPeriph_Driver/src/stm8l15x_rtc.c: 926: RTC->DR3 = (uint8_t)((RTC_DateStruct->RTC_Year));
                                   1316 ; genPointerGet
      000329 1E 05            [ 2] 1317 	ldw	x, (0x05, sp)
      00032B F6               [ 1] 1318 	ld	a, (x)
                                   1319 ; genPointerSet
      00032C C7 51 46         [ 1] 1320 	ld	0x5146, a
                                   1321 ; genGoto
      00032F 20 23            [ 2] 1322 	jra	00109$
                                   1323 ; peephole j5 changed absolute to relative unconditional jump.
                                   1324 ; genLabel
      000331                       1325 00108$:
                                   1326 ;	STM8L15x_StdPeriph_Driver/src/stm8l15x_rtc.c: 930: RTC->DR1 = (uint8_t)(ByteToBcd2 ((uint8_t)RTC_DateStruct->RTC_Date));
                                   1327 ; genSend
                                   1328 ; genCall
      000331 CDr09r23         [ 4] 1329 	call	_ByteToBcd2
                                   1330 ; genPointerSet
      000334 C7 51 44         [ 1] 1331 	ld	0x5144, a
                                   1332 ;	STM8L15x_StdPeriph_Driver/src/stm8l15x_rtc.c: 931: RTC->DR2 = (uint8_t)((ByteToBcd2((uint8_t)RTC_DateStruct->RTC_Month)) | (uint8_t)((RTC_DateStruct->RTC_WeekDay) << 5));
                                   1333 ; genPointerGet
      000337 1E 01            [ 2] 1334 	ldw	x, (0x01, sp)
      000339 F6               [ 1] 1335 	ld	a, (x)
                                   1336 ; genSend
                                   1337 ; genCall
      00033A CDr09r23         [ 4] 1338 	call	_ByteToBcd2
      00033D 6B 07            [ 1] 1339 	ld	(0x07, sp), a
                                   1340 ; genPointerGet
      00033F 1E 03            [ 2] 1341 	ldw	x, (0x03, sp)
      000341 F6               [ 1] 1342 	ld	a, (x)
                                   1343 ; genLeftShiftLiteral
      000342 4E               [ 1] 1344 	swap	a
      000343 A4 F0            [ 1] 1345 	and	a, #0xf0
      000345 48               [ 1] 1346 	sll	a
                                   1347 ; genOr
      000346 1A 07            [ 1] 1348 	or	a, (0x07, sp)
                                   1349 ; genPointerSet
      000348 C7 51 45         [ 1] 1350 	ld	0x5145, a
                                   1351 ;	STM8L15x_StdPeriph_Driver/src/stm8l15x_rtc.c: 932: RTC->DR3 = (uint8_t)(ByteToBcd2((uint8_t)RTC_DateStruct->RTC_Year));
                                   1352 ; genPointerGet
      00034B 1E 05            [ 2] 1353 	ldw	x, (0x05, sp)
      00034D F6               [ 1] 1354 	ld	a, (x)
                                   1355 ; genSend
                                   1356 ; genCall
      00034E CDr09r23         [ 4] 1357 	call	_ByteToBcd2
                                   1358 ; genPointerSet
      000351 C7 51 46         [ 1] 1359 	ld	0x5146, a
                                   1360 ; genLabel
      000354                       1361 00109$:
                                   1362 ;	STM8L15x_StdPeriph_Driver/src/stm8l15x_rtc.c: 936: RTC->ISR1 &= (uint8_t)~RTC_ISR1_INIT;
                                   1363 ; genPointerGet
                                   1364 ; genAnd
                                   1365 ; genPointerSet
      000354 72 1F 51 4C      [ 1] 1366 	bres	0x514c, #7
                                   1367 ; peephole 204x replaced 'and' by 'bres' ('0x514c').
                                   1368 ;	STM8L15x_StdPeriph_Driver/src/stm8l15x_rtc.c: 939: RTC->WPR = 0xFF; 
                                   1369 ; genPointerSet
      000358 35 FF 51 59      [ 1] 1370 	mov	0x5159+0, #0xff
                                   1371 ;	STM8L15x_StdPeriph_Driver/src/stm8l15x_rtc.c: 942: if ((RTC->CR1 & RTC_CR1_BYPSHAD) == RESET)
                                   1372 ; genPointerGet
                                   1373 ; genAnd
                                   1374 ; peephole j530x replaced 'ld-bcp-jreq' by 'btjf' ('0x5148').
                                   1375 ; peephole j5 changed absolute to relative unconditional jump.
      00035C 72 08 51 48 0C   [ 2] 1376 	btjt	0x5148, #4, 00114$
                                   1377 ; peephole j34 removed jra by using inverse bit-test-jump logic
                                   1378 ; peephole j30 removed unused label 00169$.
                                   1379 ; skipping generated iCode
                                   1380 ;	STM8L15x_StdPeriph_Driver/src/stm8l15x_rtc.c: 944: if (RTC_WaitForSynchro() == ERROR)
                                   1381 ; genCall
      000361 CDr01r5B         [ 4] 1382 	call	_RTC_WaitForSynchro
                                   1383 ; genIfx
      000364 4D               [ 1] 1384 	tnz	a
                                   1385 ; peephole j5 changed absolute to relative unconditional jump.
      000365 26 03            [ 1] 1386 	jrne	00111$
                                   1387 ; peephole j7 removed jra by using inverse jump logic
                                   1388 ; peephole j30 removed unused label 00170$.
                                   1389 ;	STM8L15x_StdPeriph_Driver/src/stm8l15x_rtc.c: 946: status = ERROR;
                                   1390 ; genAssign
      000367 4F               [ 1] 1391 	clr	a
                                   1392 ; genGoto
      000368 20 05            [ 2] 1393 	jra	00118$
                                   1394 ; peephole j5 changed absolute to relative unconditional jump.
                                   1395 ; genLabel
      00036A                       1396 00111$:
                                   1397 ;	STM8L15x_StdPeriph_Driver/src/stm8l15x_rtc.c: 950: status = SUCCESS;
                                   1398 ; genAssign
      00036A A6 01            [ 1] 1399 	ld	a, #0x01
                                   1400 ; genGoto
                                   1401 ; peephole j5 changed absolute to relative unconditional jump.
                                   1402 ; genLabel
                                   1403 ;	STM8L15x_StdPeriph_Driver/src/stm8l15x_rtc.c: 955: status = SUCCESS;
                                   1404 ; genAssign
                                   1405 ; genLabel
      00036C C5                    1406 	.byte 0xc5
                                   1407 ; peephole jrf6 used bcp opcode to jump over 2-byte instruction.
      00036D                       1408 00114$:
      00036D A6 01            [ 1] 1409 	ld	a, #0x01
      00036F                       1410 00118$:
                                   1411 ;	STM8L15x_StdPeriph_Driver/src/stm8l15x_rtc.c: 959: return (ErrorStatus)status;
                                   1412 ; genReturn
                                   1413 ; genLabel
                                   1414 ; peephole j30 removed unused label 00119$.
                                   1415 ;	STM8L15x_StdPeriph_Driver/src/stm8l15x_rtc.c: 960: }
                                   1416 ; genEndFunction
      00036F 5B 0A            [ 2] 1417 	addw	sp, #10
      000371 81               [ 4] 1418 	ret
                                   1419 ;	Total RTC_SetDate function size at codegen: 3 bytes.
                                   1420 ;	STM8L15x_StdPeriph_Driver/src/stm8l15x_rtc.c: 968: void RTC_DateStructInit(RTC_DateTypeDef* RTC_DateStruct)
                                   1421 ; genLabel
                                   1422 ;	-----------------------------------------
                                   1423 ;	 function RTC_DateStructInit
                                   1424 ;	-----------------------------------------
                                   1425 ;	Register assignment might be sub-optimal.
                                   1426 ;	Stack space usage: 0 bytes.
      000372                       1427 _RTC_DateStructInit:
                                   1428 ; genReceive
      000372 51               [ 1] 1429 	exgw	x, y
                                   1430 ;	STM8L15x_StdPeriph_Driver/src/stm8l15x_rtc.c: 971: RTC_DateStruct->RTC_WeekDay = RTC_Weekday_Monday;
                                   1431 ; genPointerSet
      000373 A6 01            [ 1] 1432 	ld	a, #0x01
      000375 90 F7            [ 1] 1433 	ld	(y), a
                                   1434 ;	STM8L15x_StdPeriph_Driver/src/stm8l15x_rtc.c: 972: RTC_DateStruct->RTC_Date = 1;
                                   1435 ; genPlus
      000377 93               [ 1] 1436 	ldw	x, y
      000378 5C               [ 1] 1437 	incw	x
      000379 5C               [ 1] 1438 	incw	x
                                   1439 ; genPointerSet
      00037A A6 01            [ 1] 1440 	ld	a, #0x01
      00037C F7               [ 1] 1441 	ld	(x), a
                                   1442 ;	STM8L15x_StdPeriph_Driver/src/stm8l15x_rtc.c: 973: RTC_DateStruct->RTC_Month = RTC_Month_January;
                                   1443 ; genPlus
      00037D 93               [ 1] 1444 	ldw	x, y
      00037E 5C               [ 1] 1445 	incw	x
                                   1446 ; genPointerSet
      00037F A6 01            [ 1] 1447 	ld	a, #0x01
      000381 F7               [ 1] 1448 	ld	(x), a
                                   1449 ;	STM8L15x_StdPeriph_Driver/src/stm8l15x_rtc.c: 974: RTC_DateStruct->RTC_Year = 0;
                                   1450 ; genPlus
      000382 93               [ 1] 1451 	ldw	x, y
                                   1452 ; genPointerSet
                                   1453 ; peephole 9a moved addition of offset into clear instruction
      000383 6F 03            [ 1] 1454 	clr	(0x0003, x)
                                   1455 ; genLabel
                                   1456 ; peephole j30 removed unused label 00101$.
                                   1457 ;	STM8L15x_StdPeriph_Driver/src/stm8l15x_rtc.c: 975: }
                                   1458 ; genEndFunction
      000385 81               [ 4] 1459 	ret
                                   1460 ;	Total RTC_DateStructInit function size at codegen: 1 bytes.
                                   1461 ;	STM8L15x_StdPeriph_Driver/src/stm8l15x_rtc.c: 988: void RTC_GetDate(RTC_Format_TypeDef RTC_Format,
                                   1462 ; genLabel
                                   1463 ;	-----------------------------------------
                                   1464 ;	 function RTC_GetDate
                                   1465 ;	-----------------------------------------
                                   1466 ;	Register assignment might be sub-optimal.
                                   1467 ;	Stack space usage: 6 bytes.
      000386                       1468 _RTC_GetDate:
      000386 52 06            [ 2] 1469 	sub	sp, #6
                                   1470 ; genReceive
      000388 6B 06            [ 1] 1471 	ld	(0x06, sp), a
                                   1472 ; genReceive
      00038A 51               [ 1] 1473 	exgw	x, y
                                   1474 ;	STM8L15x_StdPeriph_Driver/src/stm8l15x_rtc.c: 997: (void) (RTC->TR1) ;
                                   1475 ; genPointerGet
                                   1476 ; Dummy read
      00038B C6 51 40         [ 1] 1477 	ld	a, 0x5140
                                   1478 ;	STM8L15x_StdPeriph_Driver/src/stm8l15x_rtc.c: 998: RTC_DateStruct->RTC_Date = (uint8_t)(RTC->DR1);
                                   1479 ; genPlus
      00038E 93               [ 1] 1480 	ldw	x, y
      00038F 5C               [ 1] 1481 	incw	x
      000390 5C               [ 1] 1482 	incw	x
      000391 1F 01            [ 2] 1483 	ldw	(0x01, sp), x
                                   1484 ; genPointerGet
      000393 C6 51 44         [ 1] 1485 	ld	a, 0x5144
                                   1486 ; genPointerSet
      000396 1E 01            [ 2] 1487 	ldw	x, (0x01, sp)
      000398 F7               [ 1] 1488 	ld	(x), a
                                   1489 ;	STM8L15x_StdPeriph_Driver/src/stm8l15x_rtc.c: 999: tmpreg = (uint8_t)RTC->DR2;
                                   1490 ; genPointerGet
      000399 C6 51 45         [ 1] 1491 	ld	a, 0x5145
      00039C 6B 03            [ 1] 1492 	ld	(0x03, sp), a
                                   1493 ;	STM8L15x_StdPeriph_Driver/src/stm8l15x_rtc.c: 1000: RTC_DateStruct->RTC_Year = (uint8_t)(RTC->DR3);
                                   1494 ; genPlus
      00039E 93               [ 1] 1495 	ldw	x, y
      00039F 1C 00 03         [ 2] 1496 	addw	x, #0x0003
      0003A2 1F 04            [ 2] 1497 	ldw	(0x04, sp), x
                                   1498 ; genPointerGet
      0003A4 C6 51 46         [ 1] 1499 	ld	a, 0x5146
                                   1500 ; genPointerSet
      0003A7 1E 04            [ 2] 1501 	ldw	x, (0x04, sp)
      0003A9 F7               [ 1] 1502 	ld	(x), a
                                   1503 ;	STM8L15x_StdPeriph_Driver/src/stm8l15x_rtc.c: 1003: RTC_DateStruct->RTC_Month = (RTC_Month_TypeDef)(tmpreg & (uint8_t)(RTC_DR2_MT | RTC_DR2_MU));
                                   1504 ; genPlus
      0003AA 93               [ 1] 1505 	ldw	x, y
      0003AB 5C               [ 1] 1506 	incw	x
                                   1507 ; genAnd
      0003AC 7B 03            [ 1] 1508 	ld	a, (0x03, sp)
      0003AE A4 1F            [ 1] 1509 	and	a, #0x1f
                                   1510 ; genPointerSet
      0003B0 F7               [ 1] 1511 	ld	(x), a
                                   1512 ;	STM8L15x_StdPeriph_Driver/src/stm8l15x_rtc.c: 1004: RTC_DateStruct->RTC_WeekDay = (RTC_Weekday_TypeDef)((uint8_t)((uint8_t)tmpreg & (uint8_t)(RTC_DR2_WDU)) >> (uint8_t)5);
                                   1513 ; genCast
                                   1514 ; genAssign
                                   1515 ; genAnd
      0003B1 7B 03            [ 1] 1516 	ld	a, (0x03, sp)
      0003B3 A4 E0            [ 1] 1517 	and	a, #0xe0
                                   1518 ; genRightShiftLiteral
      0003B5 4E               [ 1] 1519 	swap	a
      0003B6 A4 0F            [ 1] 1520 	and	a, #0x0f
      0003B8 44               [ 1] 1521 	srl	a
                                   1522 ; genPointerSet
      0003B9 90 F7            [ 1] 1523 	ld	(y), a
                                   1524 ;	STM8L15x_StdPeriph_Driver/src/stm8l15x_rtc.c: 1007: if (RTC_Format == RTC_Format_BIN)
                                   1525 ; genIfx
      0003BB 0D 06            [ 1] 1526 	tnz	(0x06, sp)
                                   1527 ; peephole j5 changed absolute to relative unconditional jump.
      0003BD 26 1D            [ 1] 1528 	jrne	00103$
                                   1529 ; peephole j7 removed jra by using inverse jump logic
                                   1530 ; peephole j30 removed unused label 00112$.
                                   1531 ;	STM8L15x_StdPeriph_Driver/src/stm8l15x_rtc.c: 1010: RTC_DateStruct->RTC_Year = (uint8_t)Bcd2ToByte((uint8_t)RTC_DateStruct->RTC_Year);
                                   1532 ; genPointerGet
      0003BF 16 04            [ 2] 1533 	ldw	y, (0x04, sp)
      0003C1 90 F6            [ 1] 1534 	ld	a, (y)
                                   1535 ; genSend
      0003C3 89               [ 2] 1536 	pushw	x
                                   1537 ; genCall
      0003C4 CDr09r36         [ 4] 1538 	call	_Bcd2ToByte
      0003C7 85               [ 2] 1539 	popw	x
                                   1540 ; genPointerSet
      0003C8 16 04            [ 2] 1541 	ldw	y, (0x04, sp)
      0003CA 90 F7            [ 1] 1542 	ld	(y), a
                                   1543 ;	STM8L15x_StdPeriph_Driver/src/stm8l15x_rtc.c: 1011: RTC_DateStruct->RTC_Month = (RTC_Month_TypeDef)Bcd2ToByte((uint8_t)RTC_DateStruct->RTC_Month);
                                   1544 ; genPointerGet
      0003CC F6               [ 1] 1545 	ld	a, (x)
                                   1546 ; genSend
      0003CD 89               [ 2] 1547 	pushw	x
                                   1548 ; genCall
      0003CE CDr09r36         [ 4] 1549 	call	_Bcd2ToByte
      0003D1 85               [ 2] 1550 	popw	x
                                   1551 ; genPointerSet
      0003D2 F7               [ 1] 1552 	ld	(x), a
                                   1553 ;	STM8L15x_StdPeriph_Driver/src/stm8l15x_rtc.c: 1012: RTC_DateStruct->RTC_Date = (uint8_t)(Bcd2ToByte((uint8_t)RTC_DateStruct->RTC_Date));
                                   1554 ; genPointerGet
      0003D3 1E 01            [ 2] 1555 	ldw	x, (0x01, sp)
      0003D5 F6               [ 1] 1556 	ld	a, (x)
                                   1557 ; genSend
                                   1558 ; genCall
      0003D6 CDr09r36         [ 4] 1559 	call	_Bcd2ToByte
                                   1560 ; genPointerSet
      0003D9 1E 01            [ 2] 1561 	ldw	x, (0x01, sp)
      0003DB F7               [ 1] 1562 	ld	(x), a
                                   1563 ; genLabel
      0003DC                       1564 00103$:
                                   1565 ;	STM8L15x_StdPeriph_Driver/src/stm8l15x_rtc.c: 1014: }
                                   1566 ; genEndFunction
      0003DC 5B 06            [ 2] 1567 	addw	sp, #6
      0003DE 81               [ 4] 1568 	ret
                                   1569 ;	Total RTC_GetDate function size at codegen: 3 bytes.
                                   1570 ;	STM8L15x_StdPeriph_Driver/src/stm8l15x_rtc.c: 1044: void RTC_SetAlarm(RTC_Format_TypeDef RTC_Format,
                                   1571 ; genLabel
                                   1572 ;	-----------------------------------------
                                   1573 ;	 function RTC_SetAlarm
                                   1574 ;	-----------------------------------------
                                   1575 ;	Register assignment might be sub-optimal.
                                   1576 ;	Stack space usage: 17 bytes.
      0003DF                       1577 _RTC_SetAlarm:
      0003DF 52 11            [ 2] 1578 	sub	sp, #17
                                   1579 ; genReceive
      0003E1 6B 11            [ 1] 1580 	ld	(0x11, sp), a
                                   1581 ; genReceive
      0003E3 51               [ 1] 1582 	exgw	x, y
                                   1583 ;	STM8L15x_StdPeriph_Driver/src/stm8l15x_rtc.c: 1062: if ((RTC->CR1 & RTC_CR1_FMT) != RESET)
                                   1584 ; genPointerGet
                                   1585 ; Dummy read
      0003E4 C6 51 48         [ 1] 1586 	ld	a, 0x5148
                                   1587 ;	STM8L15x_StdPeriph_Driver/src/stm8l15x_rtc.c: 1094: if ((RTC_AlarmStruct->RTC_AlarmMask & RTC_AlarmMask_DateWeekDay) == RESET )
                                   1588 ; genPlus
      0003E7 93               [ 1] 1589 	ldw	x, y
      0003E8 1C 00 04         [ 2] 1590 	addw	x, #0x0004
      0003EB 1F 05            [ 2] 1591 	ldw	(0x05, sp), x
                                   1592 ;	STM8L15x_StdPeriph_Driver/src/stm8l15x_rtc.c: 1108: RTC->WPR = 0xCA;
                                   1593 ; genPointerSet
      0003ED 35 CA 51 59      [ 1] 1594 	mov	0x5159+0, #0xca
                                   1595 ;	STM8L15x_StdPeriph_Driver/src/stm8l15x_rtc.c: 1109: RTC->WPR = 0x53;
                                   1596 ; genPointerSet
      0003F1 35 53 51 59      [ 1] 1597 	mov	0x5159+0, #0x53
                                   1598 ;	STM8L15x_StdPeriph_Driver/src/stm8l15x_rtc.c: 1115: tmpreg1 = (uint8_t)((uint8_t)(RTC_AlarmStruct->RTC_AlarmTime.RTC_Seconds) | \
                                   1599 ; genAssign
      0003F5 17 01            [ 2] 1600 	ldw	(0x01, sp), y
                                   1601 ;	STM8L15x_StdPeriph_Driver/src/stm8l15x_rtc.c: 1118: tmpreg2 = (uint8_t)((uint8_t)(RTC_AlarmStruct->RTC_AlarmTime.RTC_Minutes) | \
                                   1602 ; genPlus
      0003F7 93               [ 1] 1603 	ldw	x, y
      0003F8 5C               [ 1] 1604 	incw	x
      0003F9 1F 03            [ 2] 1605 	ldw	(0x03, sp), x
                                   1606 ;	STM8L15x_StdPeriph_Driver/src/stm8l15x_rtc.c: 1121: tmpreg3 = (uint8_t)((uint8_t)((uint8_t)(RTC_AlarmStruct->RTC_AlarmTime.RTC_Hours) | \
                                   1607 ; genCast
                                   1608 ; genAssign
      0003FB 17 07            [ 2] 1609 	ldw	(0x07, sp), y
                                   1610 ; genPlus
      0003FD 93               [ 1] 1611 	ldw	x, y
      0003FE 1C 00 03         [ 2] 1612 	addw	x, #0x0003
      000401 1F 09            [ 2] 1613 	ldw	(0x09, sp), x
                                   1614 ;	STM8L15x_StdPeriph_Driver/src/stm8l15x_rtc.c: 1125: tmpreg4 = (uint8_t)((uint8_t)((uint8_t)(RTC_AlarmStruct->RTC_AlarmDateWeekDay) | \
                                   1615 ; genPlus
      000403 93               [ 1] 1616 	ldw	x, y
      000404 1C 00 06         [ 2] 1617 	addw	x, #0x0006
      000407 1F 0B            [ 2] 1618 	ldw	(0x0b, sp), x
                                   1619 ; genPlus
      000409 93               [ 1] 1620 	ldw	x, y
      00040A 1C 00 05         [ 2] 1621 	addw	x, #0x0005
      00040D 1F 0D            [ 2] 1622 	ldw	(0x0d, sp), x
                                   1623 ;	STM8L15x_StdPeriph_Driver/src/stm8l15x_rtc.c: 1115: tmpreg1 = (uint8_t)((uint8_t)(RTC_AlarmStruct->RTC_AlarmTime.RTC_Seconds) | \
                                   1624 ; genPointerGet
      00040F 1E 01            [ 2] 1625 	ldw	x, (0x01, sp)
      000411 E6 02            [ 1] 1626 	ld	a, (0x2, x)
      000413 6B 10            [ 1] 1627 	ld	(0x10, sp), a
                                   1628 ;	STM8L15x_StdPeriph_Driver/src/stm8l15x_rtc.c: 1113: if (RTC_Format != RTC_Format_BIN)
                                   1629 ; genIfx
      000415 0D 11            [ 1] 1630 	tnz	(0x11, sp)
                                   1631 ; peephole j5 changed absolute to relative unconditional jump.
      000417 27 47            [ 1] 1632 	jreq	00116$
                                   1633 ; peephole j10 removed jra by using inverse jump logic
                                   1634 ; peephole j30 removed unused label 00132$.
                                   1635 ;	STM8L15x_StdPeriph_Driver/src/stm8l15x_rtc.c: 1115: tmpreg1 = (uint8_t)((uint8_t)(RTC_AlarmStruct->RTC_AlarmTime.RTC_Seconds) | \
                                   1636 ; genPointerGet
      000419 1E 05            [ 2] 1637 	ldw	x, (0x05, sp)
      00041B F6               [ 1] 1638 	ld	a, (x)
                                   1639 ; genAnd
      00041C 97               [ 1] 1640 	ld	xl, a
                                   1641 ; peephole 4 removed redundant load from xl into a.
      00041D A4 80            [ 1] 1642 	and	a, #0x80
                                   1643 ; genOr
      00041F 1A 10            [ 1] 1644 	or	a, (0x10, sp)
      000421 6B 0F            [ 1] 1645 	ld	(0x0f, sp), a
                                   1646 ;	STM8L15x_StdPeriph_Driver/src/stm8l15x_rtc.c: 1118: tmpreg2 = (uint8_t)((uint8_t)(RTC_AlarmStruct->RTC_AlarmTime.RTC_Minutes) | \
                                   1647 ; genPointerGet
      000423 16 03            [ 2] 1648 	ldw	y, (0x03, sp)
      000425 90 F6            [ 1] 1649 	ld	a, (y)
      000427 6B 10            [ 1] 1650 	ld	(0x10, sp), a
                                   1651 ; genLeftShiftLiteral
      000429 9F               [ 1] 1652 	ld	a, xl
      00042A 48               [ 1] 1653 	sll	a
                                   1654 ; genAnd
      00042B A4 80            [ 1] 1655 	and	a, #0x80
                                   1656 ; genOr
      00042D 1A 10            [ 1] 1657 	or	a, (0x10, sp)
      00042F 6B 10            [ 1] 1658 	ld	(0x10, sp), a
                                   1659 ;	STM8L15x_StdPeriph_Driver/src/stm8l15x_rtc.c: 1121: tmpreg3 = (uint8_t)((uint8_t)((uint8_t)(RTC_AlarmStruct->RTC_AlarmTime.RTC_Hours) | \
                                   1660 ; genPointerGet
      000431 16 07            [ 2] 1661 	ldw	y, (0x07, sp)
      000433 90 F6            [ 1] 1662 	ld	a, (y)
      000435 6B 06            [ 1] 1663 	ld	(0x06, sp), a
                                   1664 ; genPointerGet
      000437 16 09            [ 2] 1665 	ldw	y, (0x09, sp)
      000439 90 F6            [ 1] 1666 	ld	a, (y)
                                   1667 ; genOr
      00043B 1A 06            [ 1] 1668 	or	a, (0x06, sp)
      00043D 6B 0A            [ 1] 1669 	ld	(0x0a, sp), a
                                   1670 ; genLeftShiftLiteral
      00043F 9F               [ 1] 1671 	ld	a, xl
      000440 48               [ 1] 1672 	sll	a
      000441 48               [ 1] 1673 	sll	a
                                   1674 ; genAnd
      000442 A4 80            [ 1] 1675 	and	a, #0x80
                                   1676 ; genOr
      000444 1A 0A            [ 1] 1677 	or	a, (0x0a, sp)
      000446 6B 0A            [ 1] 1678 	ld	(0x0a, sp), a
                                   1679 ;	STM8L15x_StdPeriph_Driver/src/stm8l15x_rtc.c: 1125: tmpreg4 = (uint8_t)((uint8_t)((uint8_t)(RTC_AlarmStruct->RTC_AlarmDateWeekDay) | \
                                   1680 ; genPointerGet
      000448 16 0B            [ 2] 1681 	ldw	y, (0x0b, sp)
      00044A 90 F6            [ 1] 1682 	ld	a, (y)
      00044C 6B 09            [ 1] 1683 	ld	(0x09, sp), a
                                   1684 ; genPointerGet
      00044E 16 0D            [ 2] 1685 	ldw	y, (0x0d, sp)
      000450 90 F6            [ 1] 1686 	ld	a, (y)
                                   1687 ; genOr
      000452 1A 09            [ 1] 1688 	or	a, (0x09, sp)
      000454 6B 0E            [ 1] 1689 	ld	(0x0e, sp), a
                                   1690 ; genLeftShiftLiteral
      000456 9F               [ 1] 1691 	ld	a, xl
      000457 48               [ 1] 1692 	sll	a
      000458 48               [ 1] 1693 	sll	a
      000459 48               [ 1] 1694 	sll	a
                                   1695 ; genAnd
      00045A A4 80            [ 1] 1696 	and	a, #0x80
                                   1697 ; genOr
      00045C 1A 0E            [ 1] 1698 	or	a, (0x0e, sp)
                                   1699 ; genGoto
      00045E 20 55            [ 2] 1700 	jra	00117$
                                   1701 ; peephole j5 changed absolute to relative unconditional jump.
                                   1702 ; genLabel
      000460                       1703 00116$:
                                   1704 ;	STM8L15x_StdPeriph_Driver/src/stm8l15x_rtc.c: 1132: tmpreg1 = (uint8_t)((ByteToBcd2(RTC_AlarmStruct->RTC_AlarmTime.RTC_Seconds)) | \
                                   1705 ; genSend
      000460 7B 10            [ 1] 1706 	ld	a, (0x10, sp)
                                   1707 ; genCall
      000462 CDr09r23         [ 4] 1708 	call	_ByteToBcd2
      000465 6B 10            [ 1] 1709 	ld	(0x10, sp), a
                                   1710 ; genPointerGet
      000467 1E 05            [ 2] 1711 	ldw	x, (0x05, sp)
      000469 F6               [ 1] 1712 	ld	a, (x)
                                   1713 ; genAnd
      00046A A4 80            [ 1] 1714 	and	a, #0x80
                                   1715 ; genOr
      00046C 1A 10            [ 1] 1716 	or	a, (0x10, sp)
      00046E 6B 0F            [ 1] 1717 	ld	(0x0f, sp), a
                                   1718 ;	STM8L15x_StdPeriph_Driver/src/stm8l15x_rtc.c: 1135: tmpreg2 = (uint8_t)((ByteToBcd2(RTC_AlarmStruct->RTC_AlarmTime.RTC_Minutes)) | \
                                   1719 ; genPointerGet
      000470 1E 03            [ 2] 1720 	ldw	x, (0x03, sp)
      000472 F6               [ 1] 1721 	ld	a, (x)
                                   1722 ; genSend
                                   1723 ; genCall
      000473 CDr09r23         [ 4] 1724 	call	_ByteToBcd2
      000476 6B 10            [ 1] 1725 	ld	(0x10, sp), a
                                   1726 ; genPointerGet
      000478 1E 05            [ 2] 1727 	ldw	x, (0x05, sp)
      00047A F6               [ 1] 1728 	ld	a, (x)
                                   1729 ; genLeftShiftLiteral
      00047B 48               [ 1] 1730 	sll	a
                                   1731 ; genAnd
      00047C A4 80            [ 1] 1732 	and	a, #0x80
                                   1733 ; genOr
      00047E 1A 10            [ 1] 1734 	or	a, (0x10, sp)
      000480 6B 10            [ 1] 1735 	ld	(0x10, sp), a
                                   1736 ;	STM8L15x_StdPeriph_Driver/src/stm8l15x_rtc.c: 1138: tmpreg3 = (uint8_t)((uint8_t)((ByteToBcd2(RTC_AlarmStruct->RTC_AlarmTime.RTC_Hours)) | \
                                   1737 ; genPointerGet
      000482 1E 07            [ 2] 1738 	ldw	x, (0x07, sp)
      000484 F6               [ 1] 1739 	ld	a, (x)
                                   1740 ; genSend
                                   1741 ; genCall
      000485 CDr09r23         [ 4] 1742 	call	_ByteToBcd2
      000488 6B 08            [ 1] 1743 	ld	(0x08, sp), a
                                   1744 ; genPointerGet
      00048A 1E 09            [ 2] 1745 	ldw	x, (0x09, sp)
      00048C F6               [ 1] 1746 	ld	a, (x)
                                   1747 ; genOr
      00048D 1A 08            [ 1] 1748 	or	a, (0x08, sp)
      00048F 6B 0A            [ 1] 1749 	ld	(0x0a, sp), a
                                   1750 ; genPointerGet
      000491 1E 05            [ 2] 1751 	ldw	x, (0x05, sp)
      000493 F6               [ 1] 1752 	ld	a, (x)
                                   1753 ; genLeftShiftLiteral
      000494 48               [ 1] 1754 	sll	a
      000495 48               [ 1] 1755 	sll	a
                                   1756 ; genAnd
      000496 A4 80            [ 1] 1757 	and	a, #0x80
                                   1758 ; genOr
      000498 1A 0A            [ 1] 1759 	or	a, (0x0a, sp)
      00049A 6B 0A            [ 1] 1760 	ld	(0x0a, sp), a
                                   1761 ;	STM8L15x_StdPeriph_Driver/src/stm8l15x_rtc.c: 1142: tmpreg4 = (uint8_t)((uint8_t)((ByteToBcd2(RTC_AlarmStruct->RTC_AlarmDateWeekDay)) | \
                                   1762 ; genPointerGet
      00049C 1E 0B            [ 2] 1763 	ldw	x, (0x0b, sp)
      00049E F6               [ 1] 1764 	ld	a, (x)
                                   1765 ; genSend
                                   1766 ; genCall
      00049F CDr09r23         [ 4] 1767 	call	_ByteToBcd2
      0004A2 6B 0C            [ 1] 1768 	ld	(0x0c, sp), a
                                   1769 ; genPointerGet
      0004A4 1E 0D            [ 2] 1770 	ldw	x, (0x0d, sp)
      0004A6 F6               [ 1] 1771 	ld	a, (x)
                                   1772 ; genOr
      0004A7 1A 0C            [ 1] 1773 	or	a, (0x0c, sp)
      0004A9 6B 0E            [ 1] 1774 	ld	(0x0e, sp), a
                                   1775 ; genPointerGet
      0004AB 1E 05            [ 2] 1776 	ldw	x, (0x05, sp)
      0004AD F6               [ 1] 1777 	ld	a, (x)
                                   1778 ; genLeftShiftLiteral
      0004AE 48               [ 1] 1779 	sll	a
      0004AF 48               [ 1] 1780 	sll	a
      0004B0 48               [ 1] 1781 	sll	a
                                   1782 ; genAnd
      0004B1 A4 80            [ 1] 1783 	and	a, #0x80
                                   1784 ; genOr
      0004B3 1A 0E            [ 1] 1785 	or	a, (0x0e, sp)
                                   1786 ; genLabel
      0004B5                       1787 00117$:
                                   1788 ;	STM8L15x_StdPeriph_Driver/src/stm8l15x_rtc.c: 1148: RTC->ALRMAR1 = tmpreg1;
                                   1789 ; genPointerSet
      0004B5 AE 51 5C         [ 2] 1790 	ldw	x, #0x515c
      0004B8 88               [ 1] 1791 	push	a
      0004B9 7B 10            [ 1] 1792 	ld	a, (0x10, sp)
      0004BB F7               [ 1] 1793 	ld	(x), a
      0004BC 84               [ 1] 1794 	pop	a
                                   1795 ;	STM8L15x_StdPeriph_Driver/src/stm8l15x_rtc.c: 1149: RTC->ALRMAR2 = tmpreg2;
                                   1796 ; genPointerSet
      0004BD AE 51 5D         [ 2] 1797 	ldw	x, #0x515d
      0004C0 88               [ 1] 1798 	push	a
      0004C1 7B 11            [ 1] 1799 	ld	a, (0x11, sp)
      0004C3 F7               [ 1] 1800 	ld	(x), a
      0004C4 84               [ 1] 1801 	pop	a
                                   1802 ;	STM8L15x_StdPeriph_Driver/src/stm8l15x_rtc.c: 1150: RTC->ALRMAR3 = tmpreg3;
                                   1803 ; genPointerSet
      0004C5 AE 51 5E         [ 2] 1804 	ldw	x, #0x515e
      0004C8 88               [ 1] 1805 	push	a
      0004C9 7B 0B            [ 1] 1806 	ld	a, (0x0b, sp)
      0004CB F7               [ 1] 1807 	ld	(x), a
      0004CC 84               [ 1] 1808 	pop	a
                                   1809 ;	STM8L15x_StdPeriph_Driver/src/stm8l15x_rtc.c: 1151: RTC->ALRMAR4 = tmpreg4;
                                   1810 ; genPointerSet
      0004CD C7 51 5F         [ 1] 1811 	ld	0x515f, a
                                   1812 ;	STM8L15x_StdPeriph_Driver/src/stm8l15x_rtc.c: 1154: RTC->WPR = 0xFF; 
                                   1813 ; genPointerSet
      0004D0 35 FF 51 59      [ 1] 1814 	mov	0x5159+0, #0xff
                                   1815 ; genLabel
                                   1816 ; peephole j30 removed unused label 00118$.
                                   1817 ;	STM8L15x_StdPeriph_Driver/src/stm8l15x_rtc.c: 1155: }
                                   1818 ; genEndFunction
      0004D4 5B 11            [ 2] 1819 	addw	sp, #17
      0004D6 81               [ 4] 1820 	ret
                                   1821 ;	Total RTC_SetAlarm function size at codegen: 3 bytes.
                                   1822 ;	STM8L15x_StdPeriph_Driver/src/stm8l15x_rtc.c: 1165: void RTC_AlarmStructInit(RTC_AlarmTypeDef* RTC_AlarmStruct)
                                   1823 ; genLabel
                                   1824 ;	-----------------------------------------
                                   1825 ;	 function RTC_AlarmStructInit
                                   1826 ;	-----------------------------------------
                                   1827 ;	Register assignment might be sub-optimal.
                                   1828 ;	Stack space usage: 0 bytes.
      0004D7                       1829 _RTC_AlarmStructInit:
                                   1830 ; genReceive
                                   1831 ;	STM8L15x_StdPeriph_Driver/src/stm8l15x_rtc.c: 1168: RTC_AlarmStruct->RTC_AlarmTime.RTC_H12 = RTC_H12_AM;
                                   1832 ; genPlus
                                   1833 ; peephole 5w replaced exgw-ldw by ldw.
      0004D7 90 93            [ 1] 1834 	ldw	y, x
                                   1835 ; genPointerSet
                                   1836 ; peephole 9a moved addition of offset into clear instruction
      0004D9 6F 03            [ 1] 1837 	clr	(0x0003, x)
                                   1838 ;	STM8L15x_StdPeriph_Driver/src/stm8l15x_rtc.c: 1169: RTC_AlarmStruct->RTC_AlarmTime.RTC_Hours = 0;
                                   1839 ; genPointerSet
      0004DB 90 7F            [ 1] 1840 	clr	(y)
                                   1841 ;	STM8L15x_StdPeriph_Driver/src/stm8l15x_rtc.c: 1170: RTC_AlarmStruct->RTC_AlarmTime.RTC_Minutes = 0;
                                   1842 ; genPlus
      0004DD 93               [ 1] 1843 	ldw	x, y
                                   1844 ; genPointerSet
                                   1845 ; peephole 10j moved addition of offset into instruction
      0004DE 6F 01            [ 1] 1846 	clr	(0x01, x)
                                   1847 ;	STM8L15x_StdPeriph_Driver/src/stm8l15x_rtc.c: 1171: RTC_AlarmStruct->RTC_AlarmTime.RTC_Seconds = 0;
                                   1848 ; genPlus
      0004E0 93               [ 1] 1849 	ldw	x, y
                                   1850 ; genPointerSet
                                   1851 ; peephole 10i moved addition of offset into instruction
      0004E1 6F 02            [ 1] 1852 	clr	(0x02, x)
                                   1853 ;	STM8L15x_StdPeriph_Driver/src/stm8l15x_rtc.c: 1174: RTC_AlarmStruct->RTC_AlarmDateWeekDaySel = RTC_AlarmDateWeekDaySel_Date;
                                   1854 ; genPlus
      0004E3 93               [ 1] 1855 	ldw	x, y
                                   1856 ; genPointerSet
                                   1857 ; peephole 9a moved addition of offset into clear instruction
      0004E4 6F 05            [ 1] 1858 	clr	(0x0005, x)
                                   1859 ;	STM8L15x_StdPeriph_Driver/src/stm8l15x_rtc.c: 1175: RTC_AlarmStruct->RTC_AlarmDateWeekDay = 1;
                                   1860 ; genPlus
                                   1861 ; genPointerSet
                                   1862 ; peephole 9 moved addition of offset into storage instruction
                                   1863 ; peephole 14c used y directly instead of going through x.
      0004E6 A6 01            [ 1] 1864 	ld	a, #0x01
      0004E8 90 E7 06         [ 1] 1865 	ld	(0x0006, y), a
                                   1866 ;	STM8L15x_StdPeriph_Driver/src/stm8l15x_rtc.c: 1178: RTC_AlarmStruct->RTC_AlarmMask = RTC_AlarmMask_All;
                                   1867 ; genPlus
                                   1868 ; genPointerSet
                                   1869 ; peephole 9 moved addition of offset into storage instruction
                                   1870 ; peephole 14c used y directly instead of going through x.
      0004EB A6 F0            [ 1] 1871 	ld	a, #0xf0
      0004ED 90 E7 04         [ 1] 1872 	ld	(0x0004, y), a
                                   1873 ; genLabel
                                   1874 ; peephole j30 removed unused label 00101$.
                                   1875 ;	STM8L15x_StdPeriph_Driver/src/stm8l15x_rtc.c: 1179: }
                                   1876 ; genEndFunction
      0004F0 81               [ 4] 1877 	ret
                                   1878 ;	Total RTC_AlarmStructInit function size at codegen: 1 bytes.
                                   1879 ;	STM8L15x_StdPeriph_Driver/src/stm8l15x_rtc.c: 1188: void RTC_GetAlarm(RTC_Format_TypeDef RTC_Format,
                                   1880 ; genLabel
                                   1881 ;	-----------------------------------------
                                   1882 ;	 function RTC_GetAlarm
                                   1883 ;	-----------------------------------------
                                   1884 ;	Register assignment might be sub-optimal.
                                   1885 ;	Stack space usage: 11 bytes.
      0004F1                       1886 _RTC_GetAlarm:
      0004F1 52 0B            [ 2] 1887 	sub	sp, #11
                                   1888 ; genReceive
      0004F3 6B 0B            [ 1] 1889 	ld	(0x0b, sp), a
                                   1890 ; genReceive
      0004F5 1F 09            [ 2] 1891 	ldw	(0x09, sp), x
                                   1892 ;	STM8L15x_StdPeriph_Driver/src/stm8l15x_rtc.c: 1201: tmpreg1 = (uint8_t)RTC->ALRMAR1;
                                   1893 ; genPointerGet
      0004F7 C6 51 5C         [ 1] 1894 	ld	a, 0x515c
      0004FA 6B 08            [ 1] 1895 	ld	(0x08, sp), a
                                   1896 ;	STM8L15x_StdPeriph_Driver/src/stm8l15x_rtc.c: 1202: tmpreg2 = (uint8_t)RTC->ALRMAR2;
                                   1897 ; genPointerGet
      0004FC C6 51 5D         [ 1] 1898 	ld	a, 0x515d
      0004FF 6B 01            [ 1] 1899 	ld	(0x01, sp), a
                                   1900 ;	STM8L15x_StdPeriph_Driver/src/stm8l15x_rtc.c: 1203: tmpreg3 = (uint8_t)RTC->ALRMAR3;
                                   1901 ; genPointerGet
      000501 C6 51 5E         [ 1] 1902 	ld	a, 0x515e
      000504 6B 02            [ 1] 1903 	ld	(0x02, sp), a
                                   1904 ;	STM8L15x_StdPeriph_Driver/src/stm8l15x_rtc.c: 1204: tmpreg4 = (uint8_t)RTC->ALRMAR4;
                                   1905 ; genPointerGet
      000506 C6 51 5F         [ 1] 1906 	ld	a, 0x515f
      000509 6B 03            [ 1] 1907 	ld	(0x03, sp), a
                                   1908 ;	STM8L15x_StdPeriph_Driver/src/stm8l15x_rtc.c: 1207: RTC_AlarmStruct->RTC_AlarmTime.RTC_Seconds = (uint8_t)((uint8_t)tmpreg1 & (uint8_t)((uint8_t)RTC_ALRMAR1_ST | (uint8_t)RTC_ALRMAR1_SU));
                                   1909 ; genPlus
      00050B 1E 09            [ 2] 1910 	ldw	x, (0x09, sp)
      00050D 5C               [ 1] 1911 	incw	x
      00050E 5C               [ 1] 1912 	incw	x
      00050F 1F 04            [ 2] 1913 	ldw	(0x04, sp), x
                                   1914 ; genAnd
      000511 7B 08            [ 1] 1915 	ld	a, (0x08, sp)
      000513 A4 7F            [ 1] 1916 	and	a, #0x7f
                                   1917 ; genPointerSet
      000515 1E 04            [ 2] 1918 	ldw	x, (0x04, sp)
      000517 F7               [ 1] 1919 	ld	(x), a
                                   1920 ;	STM8L15x_StdPeriph_Driver/src/stm8l15x_rtc.c: 1208: alarmmask = (uint8_t)(tmpreg1 & RTC_ALRMAR1_MSK1);
                                   1921 ; genAnd
      000518 7B 08            [ 1] 1922 	ld	a, (0x08, sp)
      00051A A4 80            [ 1] 1923 	and	a, #0x80
      00051C 6B 08            [ 1] 1924 	ld	(0x08, sp), a
                                   1925 ;	STM8L15x_StdPeriph_Driver/src/stm8l15x_rtc.c: 1211: RTC_AlarmStruct->RTC_AlarmTime.RTC_Minutes = (uint8_t)((uint8_t)tmpreg2 & (uint8_t)((uint8_t)RTC_ALRMAR2_MNT | (uint8_t)RTC_ALRMAR2_MNU));
                                   1926 ; genPlus
      00051E 1E 09            [ 2] 1927 	ldw	x, (0x09, sp)
      000520 5C               [ 1] 1928 	incw	x
      000521 1F 06            [ 2] 1929 	ldw	(0x06, sp), x
                                   1930 ; genAnd
      000523 7B 01            [ 1] 1931 	ld	a, (0x01, sp)
      000525 A4 7F            [ 1] 1932 	and	a, #0x7f
                                   1933 ; genPointerSet
      000527 1E 06            [ 2] 1934 	ldw	x, (0x06, sp)
      000529 F7               [ 1] 1935 	ld	(x), a
                                   1936 ;	STM8L15x_StdPeriph_Driver/src/stm8l15x_rtc.c: 1212: alarmmask = (uint8_t)((alarmmask) | (uint8_t)((uint8_t)(tmpreg2 & RTC_ALRMAR2_MSK2) >> 1));
                                   1937 ; genAnd
      00052A 7B 01            [ 1] 1938 	ld	a, (0x01, sp)
      00052C A4 80            [ 1] 1939 	and	a, #0x80
                                   1940 ; genRightShiftLiteral
      00052E 44               [ 1] 1941 	srl	a
                                   1942 ; genOr
      00052F 1A 08            [ 1] 1943 	or	a, (0x08, sp)
      000531 6B 08            [ 1] 1944 	ld	(0x08, sp), a
                                   1945 ;	STM8L15x_StdPeriph_Driver/src/stm8l15x_rtc.c: 1215: RTC_AlarmStruct->RTC_AlarmTime.RTC_Hours = (uint8_t)((uint8_t)tmpreg3 & (uint8_t)((uint8_t)RTC_ALRMAR3_HT | (uint8_t)RTC_ALRMAR3_HU));
                                   1946 ; genCast
                                   1947 ; genAssign
      000533 16 09            [ 2] 1948 	ldw	y, (0x09, sp)
                                   1949 ; genAnd
      000535 7B 02            [ 1] 1950 	ld	a, (0x02, sp)
      000537 A4 3F            [ 1] 1951 	and	a, #0x3f
                                   1952 ; genPointerSet
      000539 90 F7            [ 1] 1953 	ld	(y), a
                                   1954 ;	STM8L15x_StdPeriph_Driver/src/stm8l15x_rtc.c: 1216: RTC_AlarmStruct->RTC_AlarmTime.RTC_H12 = (RTC_H12_TypeDef)((uint8_t)tmpreg3 & (uint8_t)RTC_ALRMAR3_PM);
                                   1955 ; genPlus
      00053B 1E 09            [ 2] 1956 	ldw	x, (0x09, sp)
      00053D 1C 00 03         [ 2] 1957 	addw	x, #0x0003
                                   1958 ; genAnd
      000540 7B 02            [ 1] 1959 	ld	a, (0x02, sp)
      000542 A4 40            [ 1] 1960 	and	a, #0x40
                                   1961 ; genPointerSet
      000544 F7               [ 1] 1962 	ld	(x), a
                                   1963 ;	STM8L15x_StdPeriph_Driver/src/stm8l15x_rtc.c: 1217: alarmmask = (uint8_t)((alarmmask) | (uint8_t)((uint8_t)((uint8_t)tmpreg3 & (uint8_t)RTC_ALRMAR3_MSK3) >> 2));
                                   1964 ; genAnd
      000545 7B 02            [ 1] 1965 	ld	a, (0x02, sp)
      000547 A4 80            [ 1] 1966 	and	a, #0x80
                                   1967 ; genRightShiftLiteral
      000549 44               [ 1] 1968 	srl	a
      00054A 44               [ 1] 1969 	srl	a
                                   1970 ; genOr
      00054B 1A 08            [ 1] 1971 	or	a, (0x08, sp)
      00054D 6B 08            [ 1] 1972 	ld	(0x08, sp), a
                                   1973 ;	STM8L15x_StdPeriph_Driver/src/stm8l15x_rtc.c: 1220: RTC_AlarmStruct->RTC_AlarmDateWeekDay = (uint8_t)((uint8_t)tmpreg4 & (uint8_t)((uint8_t)RTC_ALRMAR4_DT | (uint8_t)RTC_ALRMAR4_DU));
                                   1974 ; genPlus
      00054F 1E 09            [ 2] 1975 	ldw	x, (0x09, sp)
      000551 1C 00 06         [ 2] 1976 	addw	x, #0x0006
      000554 1F 01            [ 2] 1977 	ldw	(0x01, sp), x
                                   1978 ; genAnd
      000556 7B 03            [ 1] 1979 	ld	a, (0x03, sp)
      000558 A4 3F            [ 1] 1980 	and	a, #0x3f
                                   1981 ; genPointerSet
      00055A 1E 01            [ 2] 1982 	ldw	x, (0x01, sp)
      00055C F7               [ 1] 1983 	ld	(x), a
                                   1984 ;	STM8L15x_StdPeriph_Driver/src/stm8l15x_rtc.c: 1221: RTC_AlarmStruct->RTC_AlarmDateWeekDaySel = (RTC_AlarmDateWeekDaySel_TypeDef)((uint8_t)tmpreg4 & (uint8_t)RTC_ALRMAR4_WDSEL);
                                   1985 ; genPlus
      00055D 1E 09            [ 2] 1986 	ldw	x, (0x09, sp)
      00055F 1C 00 05         [ 2] 1987 	addw	x, #0x0005
                                   1988 ; genAnd
      000562 7B 03            [ 1] 1989 	ld	a, (0x03, sp)
      000564 A4 40            [ 1] 1990 	and	a, #0x40
                                   1991 ; genPointerSet
      000566 F7               [ 1] 1992 	ld	(x), a
                                   1993 ;	STM8L15x_StdPeriph_Driver/src/stm8l15x_rtc.c: 1222: alarmmask = (uint8_t)((alarmmask) | (uint8_t)((uint8_t)((uint8_t)tmpreg4 & RTC_ALRMAR4_MSK4) >> 3));
                                   1994 ; genAnd
      000567 7B 03            [ 1] 1995 	ld	a, (0x03, sp)
      000569 A4 80            [ 1] 1996 	and	a, #0x80
                                   1997 ; genRightShiftLiteral
      00056B 44               [ 1] 1998 	srl	a
      00056C 44               [ 1] 1999 	srl	a
      00056D 44               [ 1] 2000 	srl	a
                                   2001 ; genOr
      00056E 1A 08            [ 1] 2002 	or	a, (0x08, sp)
                                   2003 ;	STM8L15x_StdPeriph_Driver/src/stm8l15x_rtc.c: 1224: RTC_AlarmStruct->RTC_AlarmMask = alarmmask;
                                   2004 ; genPlus
      000570 1E 09            [ 2] 2005 	ldw	x, (0x09, sp)
      000572 1C 00 04         [ 2] 2006 	addw	x, #0x0004
                                   2007 ; genPointerSet
      000575 F7               [ 1] 2008 	ld	(x), a
                                   2009 ;	STM8L15x_StdPeriph_Driver/src/stm8l15x_rtc.c: 1226: if (RTC_Format == RTC_Format_BIN)
                                   2010 ; genIfx
      000576 0D 0B            [ 1] 2011 	tnz	(0x0b, sp)
                                   2012 ; peephole j5 changed absolute to relative unconditional jump.
      000578 26 26            [ 1] 2013 	jrne	00103$
                                   2014 ; peephole j7 removed jra by using inverse jump logic
                                   2015 ; peephole j30 removed unused label 00112$.
                                   2016 ;	STM8L15x_StdPeriph_Driver/src/stm8l15x_rtc.c: 1228: RTC_AlarmStruct->RTC_AlarmTime.RTC_Hours = Bcd2ToByte(RTC_AlarmStruct->RTC_AlarmTime.RTC_Hours);
                                   2017 ; genPointerGet
      00057A 90 F6            [ 1] 2018 	ld	a, (y)
                                   2019 ; genSend
      00057C 90 89            [ 2] 2020 	pushw	y
                                   2021 ; genCall
      00057E CDr09r36         [ 4] 2022 	call	_Bcd2ToByte
      000581 90 85            [ 2] 2023 	popw	y
                                   2024 ; genPointerSet
      000583 90 F7            [ 1] 2025 	ld	(y), a
                                   2026 ;	STM8L15x_StdPeriph_Driver/src/stm8l15x_rtc.c: 1229: RTC_AlarmStruct->RTC_AlarmTime.RTC_Minutes = Bcd2ToByte(RTC_AlarmStruct->RTC_AlarmTime.RTC_Minutes);
                                   2027 ; genPointerGet
      000585 1E 06            [ 2] 2028 	ldw	x, (0x06, sp)
      000587 F6               [ 1] 2029 	ld	a, (x)
                                   2030 ; genSend
                                   2031 ; genCall
      000588 CDr09r36         [ 4] 2032 	call	_Bcd2ToByte
                                   2033 ; genPointerSet
      00058B 1E 06            [ 2] 2034 	ldw	x, (0x06, sp)
      00058D F7               [ 1] 2035 	ld	(x), a
                                   2036 ;	STM8L15x_StdPeriph_Driver/src/stm8l15x_rtc.c: 1230: RTC_AlarmStruct->RTC_AlarmTime.RTC_Seconds = Bcd2ToByte(RTC_AlarmStruct->RTC_AlarmTime.RTC_Seconds);
                                   2037 ; genPointerGet
      00058E 1E 04            [ 2] 2038 	ldw	x, (0x04, sp)
      000590 F6               [ 1] 2039 	ld	a, (x)
                                   2040 ; genSend
                                   2041 ; genCall
      000591 CDr09r36         [ 4] 2042 	call	_Bcd2ToByte
                                   2043 ; genPointerSet
      000594 1E 04            [ 2] 2044 	ldw	x, (0x04, sp)
      000596 F7               [ 1] 2045 	ld	(x), a
                                   2046 ;	STM8L15x_StdPeriph_Driver/src/stm8l15x_rtc.c: 1231: RTC_AlarmStruct->RTC_AlarmDateWeekDay = Bcd2ToByte(RTC_AlarmStruct->RTC_AlarmDateWeekDay);
                                   2047 ; genPointerGet
      000597 1E 01            [ 2] 2048 	ldw	x, (0x01, sp)
      000599 F6               [ 1] 2049 	ld	a, (x)
                                   2050 ; genSend
                                   2051 ; genCall
      00059A CDr09r36         [ 4] 2052 	call	_Bcd2ToByte
                                   2053 ; genPointerSet
      00059D 1E 01            [ 2] 2054 	ldw	x, (0x01, sp)
      00059F F7               [ 1] 2055 	ld	(x), a
                                   2056 ; genLabel
      0005A0                       2057 00103$:
                                   2058 ;	STM8L15x_StdPeriph_Driver/src/stm8l15x_rtc.c: 1233: }
                                   2059 ; genEndFunction
      0005A0 5B 0B            [ 2] 2060 	addw	sp, #11
      0005A2 81               [ 4] 2061 	ret
                                   2062 ;	Total RTC_GetAlarm function size at codegen: 3 bytes.
                                   2063 ;	STM8L15x_StdPeriph_Driver/src/stm8l15x_rtc.c: 1242: ErrorStatus RTC_AlarmCmd(FunctionalState NewState)
                                   2064 ; genLabel
                                   2065 ;	-----------------------------------------
                                   2066 ;	 function RTC_AlarmCmd
                                   2067 ;	-----------------------------------------
                                   2068 ;	Register assignment might be sub-optimal.
                                   2069 ;	Stack space usage: 3 bytes.
      0005A3                       2070 _RTC_AlarmCmd:
      0005A3 52 03            [ 2] 2071 	sub	sp, #3
                                   2072 ; genReceive
      0005A5 6B 03            [ 1] 2073 	ld	(0x03, sp), a
                                   2074 ;	STM8L15x_StdPeriph_Driver/src/stm8l15x_rtc.c: 1244: __IO uint16_t alrawfcount = 0;
                                   2075 ; genAssign
      0005A7 5F               [ 1] 2076 	clrw	x
      0005A8 1F 01            [ 2] 2077 	ldw	(0x01, sp), x
                                   2078 ;	STM8L15x_StdPeriph_Driver/src/stm8l15x_rtc.c: 1252: RTC->WPR = 0xCA;
                                   2079 ; genPointerSet
      0005AA 35 CA 51 59      [ 1] 2080 	mov	0x5159+0, #0xca
                                   2081 ;	STM8L15x_StdPeriph_Driver/src/stm8l15x_rtc.c: 1253: RTC->WPR = 0x53;
                                   2082 ; genPointerSet
      0005AE 35 53 51 59      [ 1] 2083 	mov	0x5159+0, #0x53
                                   2084 ;	STM8L15x_StdPeriph_Driver/src/stm8l15x_rtc.c: 1258: RTC->CR2 |= (uint8_t)(RTC_CR2_ALRAE);
                                   2085 ; genPointerGet
      0005B2 C6 51 49         [ 1] 2086 	ld	a, 0x5149
                                   2087 ;	STM8L15x_StdPeriph_Driver/src/stm8l15x_rtc.c: 1256: if (NewState != DISABLE)
                                   2088 ; genIfx
      0005B5 0D 03            [ 1] 2089 	tnz	(0x03, sp)
                                   2090 ; peephole j5 changed absolute to relative unconditional jump.
      0005B7 27 09            [ 1] 2091 	jreq	00109$
                                   2092 ; peephole j10 removed jra by using inverse jump logic
                                   2093 ; peephole j30 removed unused label 00148$.
                                   2094 ;	STM8L15x_StdPeriph_Driver/src/stm8l15x_rtc.c: 1258: RTC->CR2 |= (uint8_t)(RTC_CR2_ALRAE);
                                   2095 ; genOr
      0005B9 AA 01            [ 1] 2096 	or	a, #0x01
                                   2097 ; genPointerSet
      0005BB C7 51 49         [ 1] 2098 	ld	0x5149, a
                                   2099 ;	STM8L15x_StdPeriph_Driver/src/stm8l15x_rtc.c: 1259: status = SUCCESS;
                                   2100 ; genAssign
      0005BE A6 01            [ 1] 2101 	ld	a, #0x01
                                   2102 ; genGoto
      0005C0 20 22            [ 2] 2103 	jra	00110$
                                   2104 ; peephole j5 changed absolute to relative unconditional jump.
                                   2105 ; genLabel
      0005C2                       2106 00109$:
                                   2107 ;	STM8L15x_StdPeriph_Driver/src/stm8l15x_rtc.c: 1263: RTC->CR2 &= (uint8_t)~(RTC_CR2_ALRAE) ;
                                   2108 ; genAnd
      0005C2 A4 FE            [ 1] 2109 	and	a, #0xfe
                                   2110 ; genPointerSet
      0005C4 C7 51 49         [ 1] 2111 	ld	0x5149, a
                                   2112 ;	STM8L15x_StdPeriph_Driver/src/stm8l15x_rtc.c: 1266: temp1 = (uint8_t)(RTC->ISR1 & RTC_ISR1_ALRAWF);
                                   2113 ; genPointerGet
      0005C7 C6 51 4C         [ 1] 2114 	ld	a, 0x514c
                                   2115 ; genAnd
      0005CA A4 01            [ 1] 2116 	and	a, #0x01
                                   2117 ;	STM8L15x_StdPeriph_Driver/src/stm8l15x_rtc.c: 1267: while ((alrawfcount != ALRAWF_TIMEOUT) && (temp1 == RESET))
                                   2118 ; genLabel
      0005CC                       2119 00102$:
                                   2120 ; genCmpEQorNE
      0005CC 1E 01            [ 2] 2121 	ldw	x, (0x01, sp)
      0005CE 5C               [ 1] 2122 	incw	x
                                   2123 ; peephole j5 changed absolute to relative unconditional jump.
      0005CF 27 0A            [ 1] 2124 	jreq	00104$
                                   2125 ; peephole j10 removed jra by using inverse jump logic
                                   2126 ; peephole j30 removed unused label 00150$.
                                   2127 ; skipping generated iCode
                                   2128 ; genIfx
      0005D1 4D               [ 1] 2129 	tnz	a
                                   2130 ; peephole j5 changed absolute to relative unconditional jump.
      0005D2 26 07            [ 1] 2131 	jrne	00104$
                                   2132 ; peephole j7 removed jra by using inverse jump logic
                                   2133 ; peephole j30 removed unused label 00152$.
                                   2134 ;	STM8L15x_StdPeriph_Driver/src/stm8l15x_rtc.c: 1269: alrawfcount++;
                                   2135 ; genAssign
      0005D4 1E 01            [ 2] 2136 	ldw	x, (0x01, sp)
                                   2137 ; genPlus
      0005D6 5C               [ 1] 2138 	incw	x
                                   2139 ; genAssign
      0005D7 1F 01            [ 2] 2140 	ldw	(0x01, sp), x
                                   2141 ; genGoto
      0005D9 20 F1            [ 2] 2142 	jra	00102$
                                   2143 ; peephole j5 changed absolute to relative unconditional jump.
                                   2144 ; genLabel
      0005DB                       2145 00104$:
                                   2146 ;	STM8L15x_StdPeriph_Driver/src/stm8l15x_rtc.c: 1272: if ((RTC->ISR1 &  RTC_ISR1_ALRAWF) == RESET)
                                   2147 ; genPointerGet
                                   2148 ; genAnd
                                   2149 ; peephole j541x replaced 'ld-srl-jrnc' by 'btjf' ('0x514c').
                                   2150 ; peephole j5 changed absolute to relative unconditional jump.
      0005DB 72 00 51 4C 02   [ 2] 2151 	btjt	0x514c, #0, 00106$
                                   2152 ; peephole j34 removed jra by using inverse bit-test-jump logic
                                   2153 ; peephole j30 removed unused label 00153$.
                                   2154 ; skipping generated iCode
                                   2155 ;	STM8L15x_StdPeriph_Driver/src/stm8l15x_rtc.c: 1274: status = ERROR;
                                   2156 ; genAssign
      0005E0 4F               [ 1] 2157 	clr	a
                                   2158 ; genGoto
                                   2159 ; peephole j5 changed absolute to relative unconditional jump.
                                   2160 ; genLabel
                                   2161 ;	STM8L15x_StdPeriph_Driver/src/stm8l15x_rtc.c: 1278: status = SUCCESS;
                                   2162 ; genAssign
                                   2163 ; genLabel
      0005E1 C5                    2164 	.byte 0xc5
                                   2165 ; peephole jrf6 used bcp opcode to jump over 2-byte instruction.
      0005E2                       2166 00106$:
      0005E2 A6 01            [ 1] 2167 	ld	a, #0x01
      0005E4                       2168 00110$:
                                   2169 ;	STM8L15x_StdPeriph_Driver/src/stm8l15x_rtc.c: 1283: RTC->WPR = 0xFF; 
                                   2170 ; genPointerSet
      0005E4 35 FF 51 59      [ 1] 2171 	mov	0x5159+0, #0xff
                                   2172 ;	STM8L15x_StdPeriph_Driver/src/stm8l15x_rtc.c: 1286: return (ErrorStatus)status;
                                   2173 ; genReturn
                                   2174 ; genLabel
                                   2175 ; peephole j30 removed unused label 00111$.
                                   2176 ;	STM8L15x_StdPeriph_Driver/src/stm8l15x_rtc.c: 1287: }
                                   2177 ; genEndFunction
      0005E8 5B 03            [ 2] 2178 	addw	sp, #3
      0005EA 81               [ 4] 2179 	ret
                                   2180 ;	Total RTC_AlarmCmd function size at codegen: 3 bytes.
                                   2181 ;	STM8L15x_StdPeriph_Driver/src/stm8l15x_rtc.c: 1298: ErrorStatus RTC_AlarmSubSecondConfig(uint16_t RTC_AlarmSubSecondValue,
                                   2182 ; genLabel
                                   2183 ;	-----------------------------------------
                                   2184 ;	 function RTC_AlarmSubSecondConfig
                                   2185 ;	-----------------------------------------
                                   2186 ;	Register assignment might be sub-optimal.
                                   2187 ;	Stack space usage: 2 bytes.
      0005EB                       2188 _RTC_AlarmSubSecondConfig:
      0005EB 89               [ 2] 2189 	pushw	x
                                   2190 ; genReceive
                                   2191 ; genReceive
      0005EC 6B 02            [ 1] 2192 	ld	(0x02, sp), a
                                   2193 ;	STM8L15x_StdPeriph_Driver/src/stm8l15x_rtc.c: 1309: RTC->WPR = 0xCA;
                                   2194 ; genPointerSet
      0005EE 35 CA 51 59      [ 1] 2195 	mov	0x5159+0, #0xca
                                   2196 ;	STM8L15x_StdPeriph_Driver/src/stm8l15x_rtc.c: 1310: RTC->WPR = 0x53;
                                   2197 ; genPointerSet
      0005F2 35 53 51 59      [ 1] 2198 	mov	0x5159+0, #0x53
                                   2199 ;	STM8L15x_StdPeriph_Driver/src/stm8l15x_rtc.c: 1313: if ((RTC->ISR1 & RTC_ISR1_INITF) == RESET)
                                   2200 ; genPointerGet
                                   2201 ; genAnd
                                   2202 ; peephole j530x replaced 'ld-bcp-jreq' by 'btjf' ('0x514c').
                                   2203 ; peephole j5 changed absolute to relative unconditional jump.
      0005F6 72 0C 51 4C 24   [ 2] 2204 	btjt	0x514c, #6, 00102$
                                   2205 ; peephole j34 removed jra by using inverse bit-test-jump logic
                                   2206 ; peephole j30 removed unused label 00113$.
                                   2207 ; skipping generated iCode
                                   2208 ;	STM8L15x_StdPeriph_Driver/src/stm8l15x_rtc.c: 1316: alarmstatus = (uint8_t)(RTC->CR2 | RTC_CR2_ALRAE);
                                   2209 ; genPointerGet
      0005FB C6 51 49         [ 1] 2210 	ld	a, 0x5149
                                   2211 ; genOr
      0005FE AA 01            [ 1] 2212 	or	a, #0x01
      000600 6B 01            [ 1] 2213 	ld	(0x01, sp), a
                                   2214 ;	STM8L15x_StdPeriph_Driver/src/stm8l15x_rtc.c: 1319: RTC->CR2 &= (uint8_t)~(RTC_CR2_ALRAE);
                                   2215 ; genPointerGet
                                   2216 ; genAnd
                                   2217 ; genPointerSet
      000602 72 11 51 49      [ 1] 2218 	bres	0x5149, #0
                                   2219 ; peephole 204x replaced 'and' by 'bres' ('0x5149').
                                   2220 ;	STM8L15x_StdPeriph_Driver/src/stm8l15x_rtc.c: 1322: RTC->ALRMASSRH = (uint8_t)(RTC_AlarmSubSecondValue >> 8);
                                   2221 ; genGetByte
      000606 9E               [ 1] 2222 	ld	a, xh
                                   2223 ; genPointerSet
      000607 C7 51 64         [ 1] 2224 	ld	0x5164, a
                                   2225 ;	STM8L15x_StdPeriph_Driver/src/stm8l15x_rtc.c: 1323: RTC->ALRMASSRL = (uint8_t)(RTC_AlarmSubSecondValue);
                                   2226 ; genCast
                                   2227 ; genAssign
      00060A 9F               [ 1] 2228 	ld	a, xl
                                   2229 ; genPointerSet
      00060B C7 51 65         [ 1] 2230 	ld	0x5165, a
                                   2231 ;	STM8L15x_StdPeriph_Driver/src/stm8l15x_rtc.c: 1324: RTC->ALRMASSMSKR = (uint8_t)RTC_AlarmSubSecondMask;
                                   2232 ; genPointerSet
      00060E AE 51 66         [ 2] 2233 	ldw	x, #0x5166
      000611 7B 02            [ 1] 2234 	ld	a, (0x02, sp)
      000613 F7               [ 1] 2235 	ld	(x), a
                                   2236 ;	STM8L15x_StdPeriph_Driver/src/stm8l15x_rtc.c: 1327: RTC->CR2 |= alarmstatus;
                                   2237 ; genPointerGet
      000614 C6 51 49         [ 1] 2238 	ld	a, 0x5149
                                   2239 ; genOr
      000617 1A 01            [ 1] 2240 	or	a, (0x01, sp)
                                   2241 ; genPointerSet
      000619 C7 51 49         [ 1] 2242 	ld	0x5149, a
                                   2243 ;	STM8L15x_StdPeriph_Driver/src/stm8l15x_rtc.c: 1329: status = SUCCESS;
                                   2244 ; genAssign
      00061C A6 01            [ 1] 2245 	ld	a, #0x01
                                   2246 ; genGoto
                                   2247 ; peephole j5 changed absolute to relative unconditional jump.
                                   2248 ; genLabel
                                   2249 ;	STM8L15x_StdPeriph_Driver/src/stm8l15x_rtc.c: 1333: status = ERROR;
                                   2250 ; genAssign
                                   2251 ; genLabel
      00061E 21                    2252 	.byte 0x21
                                   2253 ; peephole jrf1 used jump-on-false opcode to shorten jump over 1-byte instruction.
      00061F                       2254 00102$:
      00061F 4F               [ 1] 2255 	clr	a
      000620                       2256 00103$:
                                   2257 ;	STM8L15x_StdPeriph_Driver/src/stm8l15x_rtc.c: 1337: RTC->WPR = 0xFF; 
                                   2258 ; genPointerSet
      000620 35 FF 51 59      [ 1] 2259 	mov	0x5159+0, #0xff
                                   2260 ;	STM8L15x_StdPeriph_Driver/src/stm8l15x_rtc.c: 1339: return (ErrorStatus)status;
                                   2261 ; genReturn
                                   2262 ; genLabel
                                   2263 ; peephole j30 removed unused label 00104$.
                                   2264 ;	STM8L15x_StdPeriph_Driver/src/stm8l15x_rtc.c: 1340: }
                                   2265 ; genEndFunction
      000624 85               [ 2] 2266 	popw	x
      000625 81               [ 4] 2267 	ret
                                   2268 ;	Total RTC_AlarmSubSecondConfig function size at codegen: 2 bytes.
                                   2269 ;	STM8L15x_StdPeriph_Driver/src/stm8l15x_rtc.c: 1369: void RTC_WakeUpClockConfig(RTC_WakeUpClock_TypeDef RTC_WakeUpClock)
                                   2270 ; genLabel
                                   2271 ;	-----------------------------------------
                                   2272 ;	 function RTC_WakeUpClockConfig
                                   2273 ;	-----------------------------------------
                                   2274 ;	Register assignment is optimal.
                                   2275 ;	Stack space usage: 1 bytes.
      000626                       2276 _RTC_WakeUpClockConfig:
      000626 88               [ 1] 2277 	push	a
                                   2278 ; genReceive
      000627 6B 01            [ 1] 2279 	ld	(0x01, sp), a
                                   2280 ;	STM8L15x_StdPeriph_Driver/src/stm8l15x_rtc.c: 1376: RTC->WPR = 0xCA;
                                   2281 ; genPointerSet
      000629 35 CA 51 59      [ 1] 2282 	mov	0x5159+0, #0xca
                                   2283 ;	STM8L15x_StdPeriph_Driver/src/stm8l15x_rtc.c: 1377: RTC->WPR = 0x53;
                                   2284 ; genPointerSet
      00062D 35 53 51 59      [ 1] 2285 	mov	0x5159+0, #0x53
                                   2286 ;	STM8L15x_StdPeriph_Driver/src/stm8l15x_rtc.c: 1380: RTC->CR2 &= (uint8_t)~RTC_CR2_WUTE;
                                   2287 ; genPointerGet
                                   2288 ; genAnd
                                   2289 ; genPointerSet
      000631 72 15 51 49      [ 1] 2290 	bres	0x5149, #2
                                   2291 ; peephole 204x replaced 'and' by 'bres' ('0x5149').
                                   2292 ;	STM8L15x_StdPeriph_Driver/src/stm8l15x_rtc.c: 1383: RTC->CR1 &= (uint8_t)~RTC_CR1_WUCKSEL;
                                   2293 ; genPointerGet
      000635 C6 51 48         [ 1] 2294 	ld	a, 0x5148
                                   2295 ; genAnd
      000638 A4 F8            [ 1] 2296 	and	a, #0xf8
                                   2297 ; genPointerSet
      00063A C7 51 48         [ 1] 2298 	ld	0x5148, a
                                   2299 ;	STM8L15x_StdPeriph_Driver/src/stm8l15x_rtc.c: 1386: RTC->CR1 |= (uint8_t)RTC_WakeUpClock;
                                   2300 ; genPointerGet
      00063D C6 51 48         [ 1] 2301 	ld	a, 0x5148
                                   2302 ; genOr
      000640 1A 01            [ 1] 2303 	or	a, (0x01, sp)
                                   2304 ; genPointerSet
      000642 C7 51 48         [ 1] 2305 	ld	0x5148, a
                                   2306 ;	STM8L15x_StdPeriph_Driver/src/stm8l15x_rtc.c: 1389: RTC->WPR = 0xFF; 
                                   2307 ; genPointerSet
      000645 35 FF 51 59      [ 1] 2308 	mov	0x5159+0, #0xff
                                   2309 ; genLabel
                                   2310 ; peephole j30 removed unused label 00101$.
                                   2311 ;	STM8L15x_StdPeriph_Driver/src/stm8l15x_rtc.c: 1390: }
                                   2312 ; genEndFunction
      000649 84               [ 1] 2313 	pop	a
      00064A 81               [ 4] 2314 	ret
                                   2315 ;	Total RTC_WakeUpClockConfig function size at codegen: 2 bytes.
                                   2316 ;	STM8L15x_StdPeriph_Driver/src/stm8l15x_rtc.c: 1400: void RTC_SetWakeUpCounter(uint16_t RTC_WakeupCounter)
                                   2317 ; genLabel
                                   2318 ;	-----------------------------------------
                                   2319 ;	 function RTC_SetWakeUpCounter
                                   2320 ;	-----------------------------------------
                                   2321 ;	Register assignment is optimal.
                                   2322 ;	Stack space usage: 0 bytes.
      00064B                       2323 _RTC_SetWakeUpCounter:
                                   2324 ; genReceive
                                   2325 ;	STM8L15x_StdPeriph_Driver/src/stm8l15x_rtc.c: 1403: RTC->WPR = 0xCA;
                                   2326 ; genPointerSet
      00064B 35 CA 51 59      [ 1] 2327 	mov	0x5159+0, #0xca
                                   2328 ;	STM8L15x_StdPeriph_Driver/src/stm8l15x_rtc.c: 1404: RTC->WPR = 0x53;
                                   2329 ; genPointerSet
      00064F 35 53 51 59      [ 1] 2330 	mov	0x5159+0, #0x53
                                   2331 ;	STM8L15x_StdPeriph_Driver/src/stm8l15x_rtc.c: 1408: RTC->WUTRH = (uint8_t)(RTC_WakeupCounter >> 8);
                                   2332 ; genGetByte
      000653 9E               [ 1] 2333 	ld	a, xh
                                   2334 ; genPointerSet
      000654 C7 51 54         [ 1] 2335 	ld	0x5154, a
                                   2336 ;	STM8L15x_StdPeriph_Driver/src/stm8l15x_rtc.c: 1409: RTC->WUTRL = (uint8_t)(RTC_WakeupCounter);
                                   2337 ; genCast
                                   2338 ; genAssign
      000657 9F               [ 1] 2339 	ld	a, xl
                                   2340 ; genPointerSet
      000658 C7 51 55         [ 1] 2341 	ld	0x5155, a
                                   2342 ;	STM8L15x_StdPeriph_Driver/src/stm8l15x_rtc.c: 1412: RTC->WPR = 0xFF; 
                                   2343 ; genPointerSet
      00065B 35 FF 51 59      [ 1] 2344 	mov	0x5159+0, #0xff
                                   2345 ; genLabel
                                   2346 ; peephole j30 removed unused label 00101$.
                                   2347 ;	STM8L15x_StdPeriph_Driver/src/stm8l15x_rtc.c: 1413: }
                                   2348 ; genEndFunction
      00065F 81               [ 4] 2349 	ret
                                   2350 ;	Total RTC_SetWakeUpCounter function size at codegen: 1 bytes.
                                   2351 ;	STM8L15x_StdPeriph_Driver/src/stm8l15x_rtc.c: 1420: uint16_t RTC_GetWakeUpCounter(void)
                                   2352 ; genLabel
                                   2353 ;	-----------------------------------------
                                   2354 ;	 function RTC_GetWakeUpCounter
                                   2355 ;	-----------------------------------------
                                   2356 ;	Register assignment might be sub-optimal.
                                   2357 ;	Stack space usage: 2 bytes.
      000660                       2358 _RTC_GetWakeUpCounter:
      000660 89               [ 2] 2359 	pushw	x
                                   2360 ;	STM8L15x_StdPeriph_Driver/src/stm8l15x_rtc.c: 1425: tmpreg = ((uint16_t)RTC->WUTRH) << 8;
                                   2361 ; genPointerGet
      000661 C6 51 54         [ 1] 2362 	ld	a, 0x5154
                                   2363 ; genCast
                                   2364 ; genAssign
                                   2365 ; peephole 3 removed dead clrw of x.
                                   2366 ; genLeftShiftLiteral
      000664 95               [ 1] 2367 	ld	xh, a
      000665 0F 02            [ 1] 2368 	clr	(0x02, sp)
                                   2369 ;	STM8L15x_StdPeriph_Driver/src/stm8l15x_rtc.c: 1426: tmpreg |= RTC->WUTRL;
                                   2370 ; genPointerGet
      000667 C6 51 55         [ 1] 2371 	ld	a, 0x5155
                                   2372 ; genCast
                                   2373 ; genAssign
                                   2374 ; peephole 3 removed dead clrw of y.
                                   2375 ; genOr
                                   2376 ;	STM8L15x_StdPeriph_Driver/src/stm8l15x_rtc.c: 1429: return (uint16_t)tmpreg;
                                   2377 ; genReturn
      00066A 97               [ 1] 2378 	ld	xl, a
                                   2379 ; genLabel
                                   2380 ; peephole j30 removed unused label 00101$.
                                   2381 ;	STM8L15x_StdPeriph_Driver/src/stm8l15x_rtc.c: 1430: }
                                   2382 ; genEndFunction
      00066B 5B 02            [ 2] 2383 	addw	sp, #2
      00066D 81               [ 4] 2384 	ret
                                   2385 ;	Total RTC_GetWakeUpCounter function size at codegen: 3 bytes.
                                   2386 ;	STM8L15x_StdPeriph_Driver/src/stm8l15x_rtc.c: 1440: ErrorStatus RTC_WakeUpCmd(FunctionalState NewState)
                                   2387 ; genLabel
                                   2388 ;	-----------------------------------------
                                   2389 ;	 function RTC_WakeUpCmd
                                   2390 ;	-----------------------------------------
                                   2391 ;	Register assignment might be sub-optimal.
                                   2392 ;	Stack space usage: 1 bytes.
      00066E                       2393 _RTC_WakeUpCmd:
      00066E 88               [ 1] 2394 	push	a
                                   2395 ; genReceive
      00066F 6B 01            [ 1] 2396 	ld	(0x01, sp), a
                                   2397 ;	STM8L15x_StdPeriph_Driver/src/stm8l15x_rtc.c: 1449: RTC->WPR = 0xCA;
                                   2398 ; genPointerSet
      000671 35 CA 51 59      [ 1] 2399 	mov	0x5159+0, #0xca
                                   2400 ;	STM8L15x_StdPeriph_Driver/src/stm8l15x_rtc.c: 1450: RTC->WPR = 0x53;
                                   2401 ; genPointerSet
      000675 35 53 51 59      [ 1] 2402 	mov	0x5159+0, #0x53
                                   2403 ;	STM8L15x_StdPeriph_Driver/src/stm8l15x_rtc.c: 1455: RTC->CR2 |= (uint8_t)RTC_CR2_WUTE;
                                   2404 ; genPointerGet
      000679 C6 51 49         [ 1] 2405 	ld	a, 0x5149
                                   2406 ;	STM8L15x_StdPeriph_Driver/src/stm8l15x_rtc.c: 1452: if (NewState != DISABLE)
                                   2407 ; genIfx
      00067C 0D 01            [ 1] 2408 	tnz	(0x01, sp)
                                   2409 ; peephole j5 changed absolute to relative unconditional jump.
      00067E 27 09            [ 1] 2410 	jreq	00109$
                                   2411 ; peephole j10 removed jra by using inverse jump logic
                                   2412 ; peephole j30 removed unused label 00149$.
                                   2413 ;	STM8L15x_StdPeriph_Driver/src/stm8l15x_rtc.c: 1455: RTC->CR2 |= (uint8_t)RTC_CR2_WUTE;
                                   2414 ; genOr
      000680 AA 04            [ 1] 2415 	or	a, #0x04
                                   2416 ; genPointerSet
      000682 C7 51 49         [ 1] 2417 	ld	0x5149, a
                                   2418 ;	STM8L15x_StdPeriph_Driver/src/stm8l15x_rtc.c: 1457: status = SUCCESS;
                                   2419 ; genAssign
      000685 A6 01            [ 1] 2420 	ld	a, #0x01
                                   2421 ; genGoto
      000687 20 1C            [ 2] 2422 	jra	00110$
                                   2423 ; peephole j5 changed absolute to relative unconditional jump.
                                   2424 ; genLabel
      000689                       2425 00109$:
                                   2426 ;	STM8L15x_StdPeriph_Driver/src/stm8l15x_rtc.c: 1462: RTC->CR2 &= (uint8_t)~RTC_CR2_WUTE;
                                   2427 ; genAnd
      000689 A4 FB            [ 1] 2428 	and	a, #0xfb
                                   2429 ; genPointerSet
      00068B C7 51 49         [ 1] 2430 	ld	0x5149, a
                                   2431 ;	STM8L15x_StdPeriph_Driver/src/stm8l15x_rtc.c: 1465: while (((RTC->ISR1 & RTC_ISR1_WUTWF) == RESET) && ( wutwfcount != WUTWF_TIMEOUT))
                                   2432 ; genAssign
      00068E 5F               [ 1] 2433 	clrw	x
                                   2434 ; genLabel
      00068F                       2435 00102$:
                                   2436 ; genPointerGet
                                   2437 ; genAnd
                                   2438 ; peephole j530x replaced 'ld-bcp-jreq' by 'btjf' ('0x514c').
                                   2439 ; peephole j5 changed absolute to relative unconditional jump.
      00068F 72 04 51 4C 08   [ 2] 2440 	btjt	0x514c, #2, 00104$
                                   2441 ; peephole j34 removed jra by using inverse bit-test-jump logic
                                   2442 ; peephole j30 removed unused label 00150$.
                                   2443 ; skipping generated iCode
                                   2444 ; genCmpEQorNE
      000694 A3 FF FF         [ 2] 2445 	cpw	x, #0xffff
                                   2446 ; peephole j5 changed absolute to relative unconditional jump.
      000697 27 03            [ 1] 2447 	jreq	00104$
                                   2448 ; peephole j10 removed jra by using inverse jump logic
                                   2449 ; peephole j30 removed unused label 00152$.
                                   2450 ; skipping generated iCode
                                   2451 ;	STM8L15x_StdPeriph_Driver/src/stm8l15x_rtc.c: 1467: wutwfcount++;
                                   2452 ; genPlus
      000699 5C               [ 1] 2453 	incw	x
                                   2454 ; genGoto
      00069A 20 F3            [ 2] 2455 	jra	00102$
                                   2456 ; peephole j5 changed absolute to relative unconditional jump.
                                   2457 ; genLabel
      00069C                       2458 00104$:
                                   2459 ;	STM8L15x_StdPeriph_Driver/src/stm8l15x_rtc.c: 1471: if ((RTC->ISR1 & RTC_ISR1_WUTWF) == RESET)
                                   2460 ; genPointerGet
                                   2461 ; genAnd
                                   2462 ; peephole j530x replaced 'ld-bcp-jreq' by 'btjf' ('0x514c').
                                   2463 ; peephole j5 changed absolute to relative unconditional jump.
      00069C 72 04 51 4C 02   [ 2] 2464 	btjt	0x514c, #2, 00106$
                                   2465 ; peephole j34 removed jra by using inverse bit-test-jump logic
                                   2466 ; peephole j30 removed unused label 00154$.
                                   2467 ; skipping generated iCode
                                   2468 ;	STM8L15x_StdPeriph_Driver/src/stm8l15x_rtc.c: 1473: status = ERROR;
                                   2469 ; genAssign
      0006A1 4F               [ 1] 2470 	clr	a
                                   2471 ; genGoto
                                   2472 ; peephole j5 changed absolute to relative unconditional jump.
                                   2473 ; genLabel
                                   2474 ;	STM8L15x_StdPeriph_Driver/src/stm8l15x_rtc.c: 1477: status = SUCCESS;
                                   2475 ; genAssign
                                   2476 ; genLabel
      0006A2 C5                    2477 	.byte 0xc5
                                   2478 ; peephole jrf6 used bcp opcode to jump over 2-byte instruction.
      0006A3                       2479 00106$:
      0006A3 A6 01            [ 1] 2480 	ld	a, #0x01
      0006A5                       2481 00110$:
                                   2482 ;	STM8L15x_StdPeriph_Driver/src/stm8l15x_rtc.c: 1482: RTC->WPR = 0xFF; 
                                   2483 ; genPointerSet
      0006A5 35 FF 51 59      [ 1] 2484 	mov	0x5159+0, #0xff
                                   2485 ;	STM8L15x_StdPeriph_Driver/src/stm8l15x_rtc.c: 1485: return (ErrorStatus)status;
                                   2486 ; genReturn
                                   2487 ; genLabel
                                   2488 ; peephole j30 removed unused label 00111$.
                                   2489 ;	STM8L15x_StdPeriph_Driver/src/stm8l15x_rtc.c: 1486: }
                                   2490 ; genEndFunction
      0006A9 5B 01            [ 2] 2491 	addw	sp, #1
      0006AB 81               [ 4] 2492 	ret
                                   2493 ;	Total RTC_WakeUpCmd function size at codegen: 3 bytes.
                                   2494 ;	STM8L15x_StdPeriph_Driver/src/stm8l15x_rtc.c: 1522: void RTC_DayLightSavingConfig(RTC_DayLightSaving_TypeDef RTC_DayLightSaving,
                                   2495 ; genLabel
                                   2496 ;	-----------------------------------------
                                   2497 ;	 function RTC_DayLightSavingConfig
                                   2498 ;	-----------------------------------------
                                   2499 ;	Register assignment is optimal.
                                   2500 ;	Stack space usage: 1 bytes.
      0006AC                       2501 _RTC_DayLightSavingConfig:
      0006AC 88               [ 1] 2502 	push	a
                                   2503 ; genReceive
      0006AD 97               [ 1] 2504 	ld	xl, a
                                   2505 ;	STM8L15x_StdPeriph_Driver/src/stm8l15x_rtc.c: 1530: RTC->WPR = 0xCA;
                                   2506 ; genPointerSet
      0006AE 35 CA 51 59      [ 1] 2507 	mov	0x5159+0, #0xca
                                   2508 ;	STM8L15x_StdPeriph_Driver/src/stm8l15x_rtc.c: 1531: RTC->WPR = 0x53;
                                   2509 ; genPointerSet
      0006B2 35 53 51 59      [ 1] 2510 	mov	0x5159+0, #0x53
                                   2511 ;	STM8L15x_StdPeriph_Driver/src/stm8l15x_rtc.c: 1534: RTC->CR3 &= (uint8_t)~(RTC_CR3_BCK);
                                   2512 ; genPointerGet
      0006B6 C6 51 4A         [ 1] 2513 	ld	a, 0x514a
                                   2514 ; genAnd
      0006B9 A4 FB            [ 1] 2515 	and	a, #0xfb
                                   2516 ; genPointerSet
      0006BB C7 51 4A         [ 1] 2517 	ld	0x514a, a
                                   2518 ;	STM8L15x_StdPeriph_Driver/src/stm8l15x_rtc.c: 1537: RTC->CR3 |= (uint8_t)((uint8_t)RTC_DayLightSaving | (uint8_t)RTC_StoreOperation);
                                   2519 ; genPointerGet
      0006BE C6 51 4A         [ 1] 2520 	ld	a, 0x514a
      0006C1 6B 01            [ 1] 2521 	ld	(0x01, sp), a
                                   2522 ; genOr
      0006C3 9F               [ 1] 2523 	ld	a, xl
      0006C4 1A 04            [ 1] 2524 	or	a, (0x04, sp)
                                   2525 ; genOr
      0006C6 1A 01            [ 1] 2526 	or	a, (0x01, sp)
                                   2527 ; genPointerSet
      0006C8 C7 51 4A         [ 1] 2528 	ld	0x514a, a
                                   2529 ;	STM8L15x_StdPeriph_Driver/src/stm8l15x_rtc.c: 1540: RTC->WPR = 0xFF; 
                                   2530 ; genPointerSet
      0006CB 35 FF 51 59      [ 1] 2531 	mov	0x5159+0, #0xff
                                   2532 ; genLabel
                                   2533 ; peephole j30 removed unused label 00101$.
                                   2534 ;	STM8L15x_StdPeriph_Driver/src/stm8l15x_rtc.c: 1541: }
                                   2535 ; genEndFunction
      0006CF 84               [ 1] 2536 	pop	a
      0006D0 85               [ 2] 2537 	popw	x
      0006D1 84               [ 1] 2538 	pop	a
      0006D2 FC               [ 2] 2539 	jp	(x)
                                   2540 ;	Total RTC_DayLightSavingConfig function size at codegen: 4 bytes.
                                   2541 ;	STM8L15x_StdPeriph_Driver/src/stm8l15x_rtc.c: 1549: RTC_StoreOperation_TypeDef  RTC_GetStoreOperation(void)
                                   2542 ; genLabel
                                   2543 ;	-----------------------------------------
                                   2544 ;	 function RTC_GetStoreOperation
                                   2545 ;	-----------------------------------------
                                   2546 ;	Register assignment is optimal.
                                   2547 ;	Stack space usage: 0 bytes.
      0006D3                       2548 _RTC_GetStoreOperation:
                                   2549 ;	STM8L15x_StdPeriph_Driver/src/stm8l15x_rtc.c: 1552: return (RTC_StoreOperation_TypeDef)(RTC->CR3 & RTC_CR3_BCK);
                                   2550 ; genPointerGet
      0006D3 C6 51 4A         [ 1] 2551 	ld	a, 0x514a
                                   2552 ; genAnd
      0006D6 A4 04            [ 1] 2553 	and	a, #0x04
                                   2554 ; genReturn
                                   2555 ; genLabel
                                   2556 ; peephole j30 removed unused label 00101$.
                                   2557 ;	STM8L15x_StdPeriph_Driver/src/stm8l15x_rtc.c: 1553: }
                                   2558 ; genEndFunction
      0006D8 81               [ 4] 2559 	ret
                                   2560 ;	Total RTC_GetStoreOperation function size at codegen: 1 bytes.
                                   2561 ;	STM8L15x_StdPeriph_Driver/src/stm8l15x_rtc.c: 1587: void RTC_OutputConfig(RTC_Output_TypeDef RTC_Output,
                                   2562 ; genLabel
                                   2563 ;	-----------------------------------------
                                   2564 ;	 function RTC_OutputConfig
                                   2565 ;	-----------------------------------------
                                   2566 ;	Register assignment is optimal.
                                   2567 ;	Stack space usage: 1 bytes.
      0006D9                       2568 _RTC_OutputConfig:
      0006D9 88               [ 1] 2569 	push	a
                                   2570 ; genReceive
      0006DA 97               [ 1] 2571 	ld	xl, a
                                   2572 ;	STM8L15x_StdPeriph_Driver/src/stm8l15x_rtc.c: 1595: RTC->WPR = 0xCA;
                                   2573 ; genPointerSet
      0006DB 35 CA 51 59      [ 1] 2574 	mov	0x5159+0, #0xca
                                   2575 ;	STM8L15x_StdPeriph_Driver/src/stm8l15x_rtc.c: 1596: RTC->WPR = 0x53;
                                   2576 ; genPointerSet
      0006DF 35 53 51 59      [ 1] 2577 	mov	0x5159+0, #0x53
                                   2578 ;	STM8L15x_StdPeriph_Driver/src/stm8l15x_rtc.c: 1599: RTC->CR3 &= (uint8_t)~(RTC_CR3_OSEL | RTC_CR3_POL);
                                   2579 ; genPointerGet
      0006E3 C6 51 4A         [ 1] 2580 	ld	a, 0x514a
                                   2581 ; genAnd
      0006E6 A4 8F            [ 1] 2582 	and	a, #0x8f
                                   2583 ; genPointerSet
      0006E8 C7 51 4A         [ 1] 2584 	ld	0x514a, a
                                   2585 ;	STM8L15x_StdPeriph_Driver/src/stm8l15x_rtc.c: 1602: RTC->CR3 |= (uint8_t)((uint8_t)RTC_Output | (uint8_t)RTC_OutputPolarity);
                                   2586 ; genPointerGet
      0006EB C6 51 4A         [ 1] 2587 	ld	a, 0x514a
      0006EE 6B 01            [ 1] 2588 	ld	(0x01, sp), a
                                   2589 ; genOr
      0006F0 9F               [ 1] 2590 	ld	a, xl
      0006F1 1A 04            [ 1] 2591 	or	a, (0x04, sp)
                                   2592 ; genOr
      0006F3 1A 01            [ 1] 2593 	or	a, (0x01, sp)
                                   2594 ; genPointerSet
      0006F5 C7 51 4A         [ 1] 2595 	ld	0x514a, a
                                   2596 ;	STM8L15x_StdPeriph_Driver/src/stm8l15x_rtc.c: 1605: RTC->WPR = 0xFF; 
                                   2597 ; genPointerSet
      0006F8 35 FF 51 59      [ 1] 2598 	mov	0x5159+0, #0xff
                                   2599 ; genLabel
                                   2600 ; peephole j30 removed unused label 00101$.
                                   2601 ;	STM8L15x_StdPeriph_Driver/src/stm8l15x_rtc.c: 1606: }
                                   2602 ; genEndFunction
      0006FC 84               [ 1] 2603 	pop	a
      0006FD 85               [ 2] 2604 	popw	x
      0006FE 84               [ 1] 2605 	pop	a
      0006FF FC               [ 2] 2606 	jp	(x)
                                   2607 ;	Total RTC_OutputConfig function size at codegen: 4 bytes.
                                   2608 ;	STM8L15x_StdPeriph_Driver/src/stm8l15x_rtc.c: 1639: ErrorStatus RTC_SynchroShiftConfig(RTC_ShiftAdd1S_TypeDef RTC_ShiftAdd1S,
                                   2609 ; genLabel
                                   2610 ;	-----------------------------------------
                                   2611 ;	 function RTC_SynchroShiftConfig
                                   2612 ;	-----------------------------------------
                                   2613 ;	Register assignment might be sub-optimal.
                                   2614 ;	Stack space usage: 1 bytes.
      000700                       2615 _RTC_SynchroShiftConfig:
      000700 88               [ 1] 2616 	push	a
                                   2617 ; genReceive
      000701 6B 01            [ 1] 2618 	ld	(0x01, sp), a
                                   2619 ; genReceive
      000703 51               [ 1] 2620 	exgw	x, y
                                   2621 ;	STM8L15x_StdPeriph_Driver/src/stm8l15x_rtc.c: 1651: RTC->WPR = 0xCA;
                                   2622 ; genPointerSet
      000704 35 CA 51 59      [ 1] 2623 	mov	0x5159+0, #0xca
                                   2624 ;	STM8L15x_StdPeriph_Driver/src/stm8l15x_rtc.c: 1652: RTC->WPR = 0x53;
                                   2625 ; genPointerSet
      000708 35 53 51 59      [ 1] 2626 	mov	0x5159+0, #0x53
                                   2627 ;	STM8L15x_StdPeriph_Driver/src/stm8l15x_rtc.c: 1655: if ((RTC->ISR1 & RTC_ISR1_SHPF) != RESET)
                                   2628 ; genPointerGet
                                   2629 ; genAnd
                                   2630 ; peephole j531x replaced 'ld-bcp-jrne' by 'btjt' ('0x514c').
                                   2631 ; peephole j5 changed absolute to relative unconditional jump.
      00070C 72 07 51 4C 0E   [ 2] 2632 	btjf	0x514c, #3, 00106$
                                   2633 ; peephole j33 removed jra by using inverse bit-test-jump logic
                                   2634 ; peephole j30 removed unused label 00147$.
                                   2635 ; skipping generated iCode
                                   2636 ;	STM8L15x_StdPeriph_Driver/src/stm8l15x_rtc.c: 1658: while (((RTC->ISR1 & RTC_ISR1_SHPF) != RESET) && (shpfcount != SHPF_TIMEOUT))
                                   2637 ; genAssign
      000711 5F               [ 1] 2638 	clrw	x
                                   2639 ; genLabel
      000712                       2640 00102$:
                                   2641 ; genPointerGet
                                   2642 ; genAnd
                                   2643 ; peephole j531x replaced 'ld-bcp-jrne' by 'btjt' ('0x514c').
                                   2644 ; peephole j5 changed absolute to relative unconditional jump.
      000712 72 07 51 4C 08   [ 2] 2645 	btjf	0x514c, #3, 00106$
                                   2646 ; peephole j33 removed jra by using inverse bit-test-jump logic
                                   2647 ; peephole j30 removed unused label 00148$.
                                   2648 ; skipping generated iCode
                                   2649 ; genCmpEQorNE
      000717 A3 FF FF         [ 2] 2650 	cpw	x, #0xffff
                                   2651 ; peephole j5 changed absolute to relative unconditional jump.
      00071A 27 03            [ 1] 2652 	jreq	00106$
                                   2653 ; peephole j10 removed jra by using inverse jump logic
                                   2654 ; peephole j30 removed unused label 00150$.
                                   2655 ; skipping generated iCode
                                   2656 ;	STM8L15x_StdPeriph_Driver/src/stm8l15x_rtc.c: 1660: shpfcount++;
                                   2657 ; genPlus
      00071C 5C               [ 1] 2658 	incw	x
                                   2659 ; genGoto
      00071D 20 F3            [ 2] 2660 	jra	00102$
                                   2661 ; peephole j5 changed absolute to relative unconditional jump.
                                   2662 ; genLabel
      00071F                       2663 00106$:
                                   2664 ;	STM8L15x_StdPeriph_Driver/src/stm8l15x_rtc.c: 1665: if ((RTC->ISR1 & RTC_ISR1_SHPF) == RESET)
                                   2665 ; genPointerGet
                                   2666 ; genAnd
                                   2667 ; peephole j530x replaced 'ld-bcp-jreq' by 'btjf' ('0x514c').
                                   2668 ; peephole j5 changed absolute to relative unconditional jump.
      00071F 72 06 51 4C 0F   [ 2] 2669 	btjt	0x514c, #3, 00108$
                                   2670 ; peephole j34 removed jra by using inverse bit-test-jump logic
                                   2671 ; peephole j30 removed unused label 00152$.
                                   2672 ; skipping generated iCode
                                   2673 ;	STM8L15x_StdPeriph_Driver/src/stm8l15x_rtc.c: 1668: shiftrhreg = (uint8_t)((uint8_t)(RTC_ShiftSubFS >> 8) | (uint8_t)(RTC_ShiftAdd1S));
                                   2674 ; genGetByte
      000724 90 9E            [ 1] 2675 	ld	a, yh
                                   2676 ; genOr
      000726 1A 01            [ 1] 2677 	or	a, (0x01, sp)
                                   2678 ;	STM8L15x_StdPeriph_Driver/src/stm8l15x_rtc.c: 1669: RTC->SHIFTRH = (uint8_t)(shiftrhreg);
                                   2679 ; genPointerSet
      000728 C7 51 5A         [ 1] 2680 	ld	0x515a, a
                                   2681 ;	STM8L15x_StdPeriph_Driver/src/stm8l15x_rtc.c: 1670: RTC->SHIFTRL = (uint8_t)(RTC_ShiftSubFS);
                                   2682 ; genCast
                                   2683 ; genAssign
      00072B 90 9F            [ 1] 2684 	ld	a, yl
                                   2685 ; genPointerSet
      00072D C7 51 5B         [ 1] 2686 	ld	0x515b, a
                                   2687 ;	STM8L15x_StdPeriph_Driver/src/stm8l15x_rtc.c: 1672: status = SUCCESS;
                                   2688 ; genAssign
      000730 A6 01            [ 1] 2689 	ld	a, #0x01
                                   2690 ; genGoto
                                   2691 ; peephole j5 changed absolute to relative unconditional jump.
                                   2692 ; genLabel
                                   2693 ;	STM8L15x_StdPeriph_Driver/src/stm8l15x_rtc.c: 1676: status = ERROR;
                                   2694 ; genAssign
                                   2695 ; genLabel
      000732 21                    2696 	.byte 0x21
                                   2697 ; peephole jrf1 used jump-on-false opcode to shorten jump over 1-byte instruction.
      000733                       2698 00108$:
      000733 4F               [ 1] 2699 	clr	a
      000734                       2700 00109$:
                                   2701 ;	STM8L15x_StdPeriph_Driver/src/stm8l15x_rtc.c: 1680: RTC->WPR = 0xFF; 
                                   2702 ; genPointerSet
      000734 35 FF 51 59      [ 1] 2703 	mov	0x5159+0, #0xff
                                   2704 ;	STM8L15x_StdPeriph_Driver/src/stm8l15x_rtc.c: 1682: return (ErrorStatus)(status);
                                   2705 ; genReturn
                                   2706 ; genLabel
                                   2707 ; peephole j30 removed unused label 00110$.
                                   2708 ;	STM8L15x_StdPeriph_Driver/src/stm8l15x_rtc.c: 1683: }
                                   2709 ; genEndFunction
      000738 5B 01            [ 2] 2710 	addw	sp, #1
      00073A 81               [ 4] 2711 	ret
                                   2712 ;	Total RTC_SynchroShiftConfig function size at codegen: 3 bytes.
                                   2713 ;	STM8L15x_StdPeriph_Driver/src/stm8l15x_rtc.c: 1718: ErrorStatus RTC_SmoothCalibConfig(RTC_SmoothCalibPeriod_TypeDef RTC_SmoothCalibPeriod,
                                   2714 ; genLabel
                                   2715 ;	-----------------------------------------
                                   2716 ;	 function RTC_SmoothCalibConfig
                                   2717 ;	-----------------------------------------
                                   2718 ;	Register assignment is optimal.
                                   2719 ;	Stack space usage: 1 bytes.
      00073B                       2720 _RTC_SmoothCalibConfig:
      00073B 88               [ 1] 2721 	push	a
                                   2722 ; genReceive
      00073C 90 97            [ 1] 2723 	ld	yl, a
                                   2724 ;	STM8L15x_StdPeriph_Driver/src/stm8l15x_rtc.c: 1731: RTC->WPR = 0xCA;
                                   2725 ; genPointerSet
      00073E 35 CA 51 59      [ 1] 2726 	mov	0x5159+0, #0xca
                                   2727 ;	STM8L15x_StdPeriph_Driver/src/stm8l15x_rtc.c: 1732: RTC->WPR = 0x53;
                                   2728 ; genPointerSet
      000742 35 53 51 59      [ 1] 2729 	mov	0x5159+0, #0x53
                                   2730 ;	STM8L15x_StdPeriph_Driver/src/stm8l15x_rtc.c: 1735: if ((RTC->ISR1 & RTC_ISR1_RECALPF) != RESET)
                                   2731 ; genPointerGet
                                   2732 ; genAnd
                                   2733 ; peephole j531x replaced 'ld-bcp-jrne' by 'btjt' ('0x514c').
                                   2734 ; peephole j5 changed absolute to relative unconditional jump.
      000746 72 03 51 4C 0E   [ 2] 2735 	btjf	0x514c, #1, 00106$
                                   2736 ; peephole j33 removed jra by using inverse bit-test-jump logic
                                   2737 ; peephole j30 removed unused label 00147$.
                                   2738 ; skipping generated iCode
                                   2739 ;	STM8L15x_StdPeriph_Driver/src/stm8l15x_rtc.c: 1738: while (((RTC->ISR1 & RTC_ISR1_RECALPF) != RESET) && (recalpfcount != RECALPF_TIMEOUT))
                                   2740 ; genAssign
      00074B 5F               [ 1] 2741 	clrw	x
                                   2742 ; genLabel
      00074C                       2743 00102$:
                                   2744 ; genPointerGet
                                   2745 ; genAnd
                                   2746 ; peephole j531x replaced 'ld-bcp-jrne' by 'btjt' ('0x514c').
                                   2747 ; peephole j5 changed absolute to relative unconditional jump.
      00074C 72 03 51 4C 08   [ 2] 2748 	btjf	0x514c, #1, 00106$
                                   2749 ; peephole j33 removed jra by using inverse bit-test-jump logic
                                   2750 ; peephole j30 removed unused label 00148$.
                                   2751 ; skipping generated iCode
                                   2752 ; genCmpEQorNE
      000751 A3 FF FF         [ 2] 2753 	cpw	x, #0xffff
                                   2754 ; peephole j5 changed absolute to relative unconditional jump.
      000754 27 03            [ 1] 2755 	jreq	00106$
                                   2756 ; peephole j10 removed jra by using inverse jump logic
                                   2757 ; peephole j30 removed unused label 00150$.
                                   2758 ; skipping generated iCode
                                   2759 ;	STM8L15x_StdPeriph_Driver/src/stm8l15x_rtc.c: 1740: recalpfcount++;
                                   2760 ; genPlus
      000756 5C               [ 1] 2761 	incw	x
                                   2762 ; genGoto
      000757 20 F3            [ 2] 2763 	jra	00102$
                                   2764 ; peephole j5 changed absolute to relative unconditional jump.
                                   2765 ; genLabel
      000759                       2766 00106$:
                                   2767 ;	STM8L15x_StdPeriph_Driver/src/stm8l15x_rtc.c: 1746: if ((RTC->ISR1 & RTC_ISR1_RECALPF) == RESET)
                                   2768 ; genPointerGet
                                   2769 ; genAnd
                                   2770 ; peephole j530x replaced 'ld-bcp-jreq' by 'btjf' ('0x514c').
                                   2771 ; peephole j5 changed absolute to relative unconditional jump.
      000759 72 02 51 4C 15   [ 2] 2772 	btjt	0x514c, #1, 00108$
                                   2773 ; peephole j34 removed jra by using inverse bit-test-jump logic
                                   2774 ; peephole j30 removed unused label 00152$.
                                   2775 ; skipping generated iCode
                                   2776 ;	STM8L15x_StdPeriph_Driver/src/stm8l15x_rtc.c: 1749: RTC->CALRH = (uint8_t)((uint8_t)((uint8_t)RTC_SmoothCalibPeriod | \
                                   2777 ; genOr
      00075E 90 9F            [ 1] 2778 	ld	a, yl
      000760 1A 04            [ 1] 2779 	or	a, (0x04, sp)
      000762 6B 01            [ 1] 2780 	ld	(0x01, sp), a
                                   2781 ; genGetByte
      000764 7B 05            [ 1] 2782 	ld	a, (0x05, sp)
                                   2783 ; genOr
      000766 1A 01            [ 1] 2784 	or	a, (0x01, sp)
                                   2785 ; genPointerSet
      000768 C7 51 6A         [ 1] 2786 	ld	0x516a, a
                                   2787 ;	STM8L15x_StdPeriph_Driver/src/stm8l15x_rtc.c: 1752: RTC->CALRL = (uint8_t)(RTC_SmouthCalibMinusPulsesValue);
                                   2788 ; genCast
                                   2789 ; genAssign
      00076B 7B 06            [ 1] 2790 	ld	a, (0x06, sp)
                                   2791 ; genPointerSet
      00076D C7 51 6B         [ 1] 2792 	ld	0x516b, a
                                   2793 ;	STM8L15x_StdPeriph_Driver/src/stm8l15x_rtc.c: 1754: status = SUCCESS;
                                   2794 ; genAssign
      000770 A6 01            [ 1] 2795 	ld	a, #0x01
                                   2796 ; genGoto
                                   2797 ; peephole j5 changed absolute to relative unconditional jump.
                                   2798 ; genLabel
                                   2799 ;	STM8L15x_StdPeriph_Driver/src/stm8l15x_rtc.c: 1758: status = ERROR;
                                   2800 ; genAssign
                                   2801 ; genLabel
      000772 21                    2802 	.byte 0x21
                                   2803 ; peephole jrf1 used jump-on-false opcode to shorten jump over 1-byte instruction.
      000773                       2804 00108$:
      000773 4F               [ 1] 2805 	clr	a
      000774                       2806 00109$:
                                   2807 ;	STM8L15x_StdPeriph_Driver/src/stm8l15x_rtc.c: 1762: RTC->WPR = 0xFF; 
                                   2808 ; genPointerSet
      000774 35 FF 51 59      [ 1] 2809 	mov	0x5159+0, #0xff
                                   2810 ;	STM8L15x_StdPeriph_Driver/src/stm8l15x_rtc.c: 1764: return (ErrorStatus)(status);
                                   2811 ; genReturn
                                   2812 ; genLabel
                                   2813 ; peephole j30 removed unused label 00110$.
                                   2814 ;	STM8L15x_StdPeriph_Driver/src/stm8l15x_rtc.c: 1765: }
                                   2815 ; genEndFunction
      000778 1E 02            [ 2] 2816 	ldw	x, (2, sp)
      00077A 5B 06            [ 2] 2817 	addw	sp, #6
      00077C FC               [ 2] 2818 	jp	(x)
                                   2819 ;	Total RTC_SmoothCalibConfig function size at codegen: 5 bytes.
                                   2820 ;	STM8L15x_StdPeriph_Driver/src/stm8l15x_rtc.c: 1790: void RTC_CalibOutputConfig(RTC_CalibOutput_TypeDef RTC_CalibOutput)
                                   2821 ; genLabel
                                   2822 ;	-----------------------------------------
                                   2823 ;	 function RTC_CalibOutputConfig
                                   2824 ;	-----------------------------------------
                                   2825 ;	Register assignment is optimal.
                                   2826 ;	Stack space usage: 1 bytes.
      00077D                       2827 _RTC_CalibOutputConfig:
      00077D 88               [ 1] 2828 	push	a
                                   2829 ; genReceive
      00077E 6B 01            [ 1] 2830 	ld	(0x01, sp), a
                                   2831 ;	STM8L15x_StdPeriph_Driver/src/stm8l15x_rtc.c: 1796: RTC->WPR = 0xCA;
                                   2832 ; genPointerSet
      000780 35 CA 51 59      [ 1] 2833 	mov	0x5159+0, #0xca
                                   2834 ;	STM8L15x_StdPeriph_Driver/src/stm8l15x_rtc.c: 1797: RTC->WPR = 0x53;
                                   2835 ; genPointerSet
      000784 35 53 51 59      [ 1] 2836 	mov	0x5159+0, #0x53
                                   2837 ;	STM8L15x_StdPeriph_Driver/src/stm8l15x_rtc.c: 1802: RTC->CR3 |= (uint8_t)RTC_CR3_COSEL;
                                   2838 ; genPointerGet
      000788 C6 51 4A         [ 1] 2839 	ld	a, 0x514a
                                   2840 ;	STM8L15x_StdPeriph_Driver/src/stm8l15x_rtc.c: 1799: if (RTC_CalibOutput != RTC_CalibOutput_512Hz)
                                   2841 ; genIfx
      00078B 0D 01            [ 1] 2842 	tnz	(0x01, sp)
                                   2843 ; peephole j5 changed absolute to relative unconditional jump.
      00078D 27 07            [ 1] 2844 	jreq	00102$
                                   2845 ; peephole j10 removed jra by using inverse jump logic
                                   2846 ; peephole j30 removed unused label 00113$.
                                   2847 ;	STM8L15x_StdPeriph_Driver/src/stm8l15x_rtc.c: 1802: RTC->CR3 |= (uint8_t)RTC_CR3_COSEL;
                                   2848 ; genOr
      00078F AA 08            [ 1] 2849 	or	a, #0x08
                                   2850 ; genPointerSet
      000791 C7 51 4A         [ 1] 2851 	ld	0x514a, a
                                   2852 ; genGoto
      000794 20 05            [ 2] 2853 	jra	00103$
                                   2854 ; peephole j5 changed absolute to relative unconditional jump.
                                   2855 ; genLabel
      000796                       2856 00102$:
                                   2857 ;	STM8L15x_StdPeriph_Driver/src/stm8l15x_rtc.c: 1807: RTC->CR3 &= (uint8_t)~RTC_CR3_COSEL;
                                   2858 ; genAnd
      000796 A4 F7            [ 1] 2859 	and	a, #0xf7
                                   2860 ; genPointerSet
      000798 C7 51 4A         [ 1] 2861 	ld	0x514a, a
                                   2862 ; genLabel
      00079B                       2863 00103$:
                                   2864 ;	STM8L15x_StdPeriph_Driver/src/stm8l15x_rtc.c: 1811: RTC->WPR = 0xFF; 
                                   2865 ; genPointerSet
      00079B 35 FF 51 59      [ 1] 2866 	mov	0x5159+0, #0xff
                                   2867 ; genLabel
                                   2868 ; peephole j30 removed unused label 00104$.
                                   2869 ;	STM8L15x_StdPeriph_Driver/src/stm8l15x_rtc.c: 1812: }
                                   2870 ; genEndFunction
      00079F 84               [ 1] 2871 	pop	a
      0007A0 81               [ 4] 2872 	ret
                                   2873 ;	Total RTC_CalibOutputConfig function size at codegen: 2 bytes.
                                   2874 ;	STM8L15x_StdPeriph_Driver/src/stm8l15x_rtc.c: 1820: void RTC_CalibOutputCmd(FunctionalState NewState)
                                   2875 ; genLabel
                                   2876 ;	-----------------------------------------
                                   2877 ;	 function RTC_CalibOutputCmd
                                   2878 ;	-----------------------------------------
                                   2879 ;	Register assignment is optimal.
                                   2880 ;	Stack space usage: 1 bytes.
      0007A1                       2881 _RTC_CalibOutputCmd:
      0007A1 88               [ 1] 2882 	push	a
                                   2883 ; genReceive
      0007A2 6B 01            [ 1] 2884 	ld	(0x01, sp), a
                                   2885 ;	STM8L15x_StdPeriph_Driver/src/stm8l15x_rtc.c: 1826: RTC->WPR = 0xCA;
                                   2886 ; genPointerSet
      0007A4 35 CA 51 59      [ 1] 2887 	mov	0x5159+0, #0xca
                                   2888 ;	STM8L15x_StdPeriph_Driver/src/stm8l15x_rtc.c: 1827: RTC->WPR = 0x53;
                                   2889 ; genPointerSet
      0007A8 35 53 51 59      [ 1] 2890 	mov	0x5159+0, #0x53
                                   2891 ;	STM8L15x_StdPeriph_Driver/src/stm8l15x_rtc.c: 1832: RTC->CR3 |= (uint8_t)RTC_CR3_COE;
                                   2892 ; genPointerGet
      0007AC C6 51 4A         [ 1] 2893 	ld	a, 0x514a
                                   2894 ;	STM8L15x_StdPeriph_Driver/src/stm8l15x_rtc.c: 1829: if (NewState != DISABLE)
                                   2895 ; genIfx
      0007AF 0D 01            [ 1] 2896 	tnz	(0x01, sp)
                                   2897 ; peephole j5 changed absolute to relative unconditional jump.
      0007B1 27 07            [ 1] 2898 	jreq	00102$
                                   2899 ; peephole j10 removed jra by using inverse jump logic
                                   2900 ; peephole j30 removed unused label 00113$.
                                   2901 ;	STM8L15x_StdPeriph_Driver/src/stm8l15x_rtc.c: 1832: RTC->CR3 |= (uint8_t)RTC_CR3_COE;
                                   2902 ; genOr
      0007B3 AA 80            [ 1] 2903 	or	a, #0x80
                                   2904 ; genPointerSet
      0007B5 C7 51 4A         [ 1] 2905 	ld	0x514a, a
                                   2906 ; genGoto
      0007B8 20 05            [ 2] 2907 	jra	00103$
                                   2908 ; peephole j5 changed absolute to relative unconditional jump.
                                   2909 ; genLabel
      0007BA                       2910 00102$:
                                   2911 ;	STM8L15x_StdPeriph_Driver/src/stm8l15x_rtc.c: 1837: RTC->CR3 &= (uint8_t)~RTC_CR3_COE;
                                   2912 ; genAnd
      0007BA A4 7F            [ 1] 2913 	and	a, #0x7f
                                   2914 ; genPointerSet
      0007BC C7 51 4A         [ 1] 2915 	ld	0x514a, a
                                   2916 ; genLabel
      0007BF                       2917 00103$:
                                   2918 ;	STM8L15x_StdPeriph_Driver/src/stm8l15x_rtc.c: 1841: RTC->WPR = 0xFF; 
                                   2919 ; genPointerSet
      0007BF 35 FF 51 59      [ 1] 2920 	mov	0x5159+0, #0xff
                                   2921 ; genLabel
                                   2922 ; peephole j30 removed unused label 00104$.
                                   2923 ;	STM8L15x_StdPeriph_Driver/src/stm8l15x_rtc.c: 1842: }
                                   2924 ; genEndFunction
      0007C3 84               [ 1] 2925 	pop	a
      0007C4 81               [ 4] 2926 	ret
                                   2927 ;	Total RTC_CalibOutputCmd function size at codegen: 2 bytes.
                                   2928 ;	STM8L15x_StdPeriph_Driver/src/stm8l15x_rtc.c: 1871: void RTC_TamperLevelConfig(RTC_Tamper_TypeDef RTC_Tamper,
                                   2929 ; genLabel
                                   2930 ;	-----------------------------------------
                                   2931 ;	 function RTC_TamperLevelConfig
                                   2932 ;	-----------------------------------------
                                   2933 ;	Register assignment is optimal.
                                   2934 ;	Stack space usage: 1 bytes.
      0007C5                       2935 _RTC_TamperLevelConfig:
      0007C5 88               [ 1] 2936 	push	a
                                   2937 ; genReceive
      0007C6 97               [ 1] 2938 	ld	xl, a
                                   2939 ;	STM8L15x_StdPeriph_Driver/src/stm8l15x_rtc.c: 1879: RTC->WPR = 0xCA;
                                   2940 ; genPointerSet
      0007C7 35 CA 51 59      [ 1] 2941 	mov	0x5159+0, #0xca
                                   2942 ;	STM8L15x_StdPeriph_Driver/src/stm8l15x_rtc.c: 1880: RTC->WPR = 0x53;
                                   2943 ; genPointerSet
      0007CB 35 53 51 59      [ 1] 2944 	mov	0x5159+0, #0x53
                                   2945 ;	STM8L15x_StdPeriph_Driver/src/stm8l15x_rtc.c: 1885: RTC->TCR1 |= (uint8_t)(RTC_Tamper << 1);
                                   2946 ; genPointerGet
      0007CF C6 51 6C         [ 1] 2947 	ld	a, 0x516c
      0007D2 6B 01            [ 1] 2948 	ld	(0x01, sp), a
                                   2949 ; genLeftShiftLiteral
      0007D4 9F               [ 1] 2950 	ld	a, xl
      0007D5 48               [ 1] 2951 	sll	a
                                   2952 ;	STM8L15x_StdPeriph_Driver/src/stm8l15x_rtc.c: 1882: if (RTC_TamperLevel != RTC_TamperLevel_Low)
                                   2953 ; genIfx
      0007D6 0D 04            [ 1] 2954 	tnz	(0x04, sp)
                                   2955 ; peephole j5 changed absolute to relative unconditional jump.
      0007D8 27 07            [ 1] 2956 	jreq	00102$
                                   2957 ; peephole j10 removed jra by using inverse jump logic
                                   2958 ; peephole j30 removed unused label 00113$.
                                   2959 ;	STM8L15x_StdPeriph_Driver/src/stm8l15x_rtc.c: 1885: RTC->TCR1 |= (uint8_t)(RTC_Tamper << 1);
                                   2960 ; genOr
      0007DA 1A 01            [ 1] 2961 	or	a, (0x01, sp)
                                   2962 ; genPointerSet
      0007DC C7 51 6C         [ 1] 2963 	ld	0x516c, a
                                   2964 ; genGoto
      0007DF 20 06            [ 2] 2965 	jra	00103$
                                   2966 ; peephole j5 changed absolute to relative unconditional jump.
                                   2967 ; genLabel
      0007E1                       2968 00102$:
                                   2969 ;	STM8L15x_StdPeriph_Driver/src/stm8l15x_rtc.c: 1890: RTC->TCR1 &= (uint8_t)~(uint8_t)(RTC_Tamper << 1);
                                   2970 ; genCpl
      0007E1 43               [ 1] 2971 	cpl	a
                                   2972 ; genAnd
      0007E2 14 01            [ 1] 2973 	and	a, (0x01, sp)
                                   2974 ; genPointerSet
      0007E4 C7 51 6C         [ 1] 2975 	ld	0x516c, a
                                   2976 ; genLabel
      0007E7                       2977 00103$:
                                   2978 ;	STM8L15x_StdPeriph_Driver/src/stm8l15x_rtc.c: 1894: RTC->WPR = 0xFF; 
                                   2979 ; genPointerSet
      0007E7 35 FF 51 59      [ 1] 2980 	mov	0x5159+0, #0xff
                                   2981 ; genLabel
                                   2982 ; peephole j30 removed unused label 00104$.
                                   2983 ;	STM8L15x_StdPeriph_Driver/src/stm8l15x_rtc.c: 1895: }
                                   2984 ; genEndFunction
      0007EB 84               [ 1] 2985 	pop	a
      0007EC 85               [ 2] 2986 	popw	x
      0007ED 84               [ 1] 2987 	pop	a
      0007EE FC               [ 2] 2988 	jp	(x)
                                   2989 ;	Total RTC_TamperLevelConfig function size at codegen: 4 bytes.
                                   2990 ;	STM8L15x_StdPeriph_Driver/src/stm8l15x_rtc.c: 1903: void RTC_TamperFilterConfig(RTC_TamperFilter_TypeDef RTC_TamperFilter)
                                   2991 ; genLabel
                                   2992 ;	-----------------------------------------
                                   2993 ;	 function RTC_TamperFilterConfig
                                   2994 ;	-----------------------------------------
                                   2995 ;	Register assignment is optimal.
                                   2996 ;	Stack space usage: 1 bytes.
      0007EF                       2997 _RTC_TamperFilterConfig:
      0007EF 88               [ 1] 2998 	push	a
                                   2999 ; genReceive
      0007F0 6B 01            [ 1] 3000 	ld	(0x01, sp), a
                                   3001 ;	STM8L15x_StdPeriph_Driver/src/stm8l15x_rtc.c: 1910: RTC->WPR = 0xCA;
                                   3002 ; genPointerSet
      0007F2 35 CA 51 59      [ 1] 3003 	mov	0x5159+0, #0xca
                                   3004 ;	STM8L15x_StdPeriph_Driver/src/stm8l15x_rtc.c: 1911: RTC->WPR = 0x53;
                                   3005 ; genPointerSet
      0007F6 35 53 51 59      [ 1] 3006 	mov	0x5159+0, #0x53
                                   3007 ;	STM8L15x_StdPeriph_Driver/src/stm8l15x_rtc.c: 1914: RTC->TCR2 &= (uint8_t)~(RTC_TCR2_TAMPFLT);
                                   3008 ; genPointerGet
      0007FA C6 51 6D         [ 1] 3009 	ld	a, 0x516d
                                   3010 ; genAnd
      0007FD A4 E7            [ 1] 3011 	and	a, #0xe7
                                   3012 ; genPointerSet
      0007FF C7 51 6D         [ 1] 3013 	ld	0x516d, a
                                   3014 ;	STM8L15x_StdPeriph_Driver/src/stm8l15x_rtc.c: 1917: RTC->TCR2 |= (uint8_t)RTC_TamperFilter;
                                   3015 ; genPointerGet
      000802 C6 51 6D         [ 1] 3016 	ld	a, 0x516d
                                   3017 ; genOr
      000805 1A 01            [ 1] 3018 	or	a, (0x01, sp)
                                   3019 ; genPointerSet
      000807 C7 51 6D         [ 1] 3020 	ld	0x516d, a
                                   3021 ;	STM8L15x_StdPeriph_Driver/src/stm8l15x_rtc.c: 1920: RTC->WPR = 0xFF; 
                                   3022 ; genPointerSet
      00080A 35 FF 51 59      [ 1] 3023 	mov	0x5159+0, #0xff
                                   3024 ; genLabel
                                   3025 ; peephole j30 removed unused label 00101$.
                                   3026 ;	STM8L15x_StdPeriph_Driver/src/stm8l15x_rtc.c: 1922: }
                                   3027 ; genEndFunction
      00080E 84               [ 1] 3028 	pop	a
      00080F 81               [ 4] 3029 	ret
                                   3030 ;	Total RTC_TamperFilterConfig function size at codegen: 2 bytes.
                                   3031 ;	STM8L15x_StdPeriph_Driver/src/stm8l15x_rtc.c: 1931: void RTC_TamperSamplingFreqConfig(RTC_TamperSamplingFreq_TypeDef RTC_TamperSamplingFreq)
                                   3032 ; genLabel
                                   3033 ;	-----------------------------------------
                                   3034 ;	 function RTC_TamperSamplingFreqConfig
                                   3035 ;	-----------------------------------------
                                   3036 ;	Register assignment is optimal.
                                   3037 ;	Stack space usage: 1 bytes.
      000810                       3038 _RTC_TamperSamplingFreqConfig:
      000810 88               [ 1] 3039 	push	a
                                   3040 ; genReceive
      000811 6B 01            [ 1] 3041 	ld	(0x01, sp), a
                                   3042 ;	STM8L15x_StdPeriph_Driver/src/stm8l15x_rtc.c: 1937: RTC->WPR = 0xCA;
                                   3043 ; genPointerSet
      000813 35 CA 51 59      [ 1] 3044 	mov	0x5159+0, #0xca
                                   3045 ;	STM8L15x_StdPeriph_Driver/src/stm8l15x_rtc.c: 1938: RTC->WPR = 0x53;
                                   3046 ; genPointerSet
      000817 35 53 51 59      [ 1] 3047 	mov	0x5159+0, #0x53
                                   3048 ;	STM8L15x_StdPeriph_Driver/src/stm8l15x_rtc.c: 1941: RTC->TCR2 &= (uint8_t)~(RTC_TCR2_TAMPFREQ);
                                   3049 ; genPointerGet
      00081B C6 51 6D         [ 1] 3050 	ld	a, 0x516d
                                   3051 ; genAnd
      00081E A4 F8            [ 1] 3052 	and	a, #0xf8
                                   3053 ; genPointerSet
      000820 C7 51 6D         [ 1] 3054 	ld	0x516d, a
                                   3055 ;	STM8L15x_StdPeriph_Driver/src/stm8l15x_rtc.c: 1944: RTC->TCR2 |= (uint8_t)RTC_TamperSamplingFreq;
                                   3056 ; genPointerGet
      000823 C6 51 6D         [ 1] 3057 	ld	a, 0x516d
                                   3058 ; genOr
      000826 1A 01            [ 1] 3059 	or	a, (0x01, sp)
                                   3060 ; genPointerSet
      000828 C7 51 6D         [ 1] 3061 	ld	0x516d, a
                                   3062 ;	STM8L15x_StdPeriph_Driver/src/stm8l15x_rtc.c: 1947: RTC->WPR = 0xFF; 
                                   3063 ; genPointerSet
      00082B 35 FF 51 59      [ 1] 3064 	mov	0x5159+0, #0xff
                                   3065 ; genLabel
                                   3066 ; peephole j30 removed unused label 00101$.
                                   3067 ;	STM8L15x_StdPeriph_Driver/src/stm8l15x_rtc.c: 1948: }
                                   3068 ; genEndFunction
      00082F 84               [ 1] 3069 	pop	a
      000830 81               [ 4] 3070 	ret
                                   3071 ;	Total RTC_TamperSamplingFreqConfig function size at codegen: 2 bytes.
                                   3072 ;	STM8L15x_StdPeriph_Driver/src/stm8l15x_rtc.c: 1958: void RTC_TamperPinsPrechargeDuration(RTC_TamperPrechargeDuration_TypeDef RTC_TamperPrechargeDuration)
                                   3073 ; genLabel
                                   3074 ;	-----------------------------------------
                                   3075 ;	 function RTC_TamperPinsPrechargeDuration
                                   3076 ;	-----------------------------------------
                                   3077 ;	Register assignment is optimal.
                                   3078 ;	Stack space usage: 1 bytes.
      000831                       3079 _RTC_TamperPinsPrechargeDuration:
      000831 88               [ 1] 3080 	push	a
                                   3081 ; genReceive
      000832 6B 01            [ 1] 3082 	ld	(0x01, sp), a
                                   3083 ;	STM8L15x_StdPeriph_Driver/src/stm8l15x_rtc.c: 1964: RTC->WPR = 0xCA;
                                   3084 ; genPointerSet
      000834 35 CA 51 59      [ 1] 3085 	mov	0x5159+0, #0xca
                                   3086 ;	STM8L15x_StdPeriph_Driver/src/stm8l15x_rtc.c: 1965: RTC->WPR = 0x53;
                                   3087 ; genPointerSet
      000838 35 53 51 59      [ 1] 3088 	mov	0x5159+0, #0x53
                                   3089 ;	STM8L15x_StdPeriph_Driver/src/stm8l15x_rtc.c: 1968: RTC->TCR2 &= (uint8_t)~(RTC_TCR2_TAMPPUDIS | RTC_TCR2_TAMPPRCH);
                                   3090 ; genPointerGet
      00083C C6 51 6D         [ 1] 3091 	ld	a, 0x516d
                                   3092 ; genAnd
      00083F A4 1F            [ 1] 3093 	and	a, #0x1f
                                   3094 ; genPointerSet
      000841 C7 51 6D         [ 1] 3095 	ld	0x516d, a
                                   3096 ;	STM8L15x_StdPeriph_Driver/src/stm8l15x_rtc.c: 1971: RTC->TCR2 |= (uint8_t)RTC_TamperPrechargeDuration;
                                   3097 ; genPointerGet
      000844 C6 51 6D         [ 1] 3098 	ld	a, 0x516d
                                   3099 ; genOr
      000847 1A 01            [ 1] 3100 	or	a, (0x01, sp)
                                   3101 ; genPointerSet
      000849 C7 51 6D         [ 1] 3102 	ld	0x516d, a
                                   3103 ;	STM8L15x_StdPeriph_Driver/src/stm8l15x_rtc.c: 1974: RTC->WPR = 0xFF; 
                                   3104 ; genPointerSet
      00084C 35 FF 51 59      [ 1] 3105 	mov	0x5159+0, #0xff
                                   3106 ; genLabel
                                   3107 ; peephole j30 removed unused label 00101$.
                                   3108 ;	STM8L15x_StdPeriph_Driver/src/stm8l15x_rtc.c: 1975: }
                                   3109 ; genEndFunction
      000850 84               [ 1] 3110 	pop	a
      000851 81               [ 4] 3111 	ret
                                   3112 ;	Total RTC_TamperPinsPrechargeDuration function size at codegen: 2 bytes.
                                   3113 ;	STM8L15x_StdPeriph_Driver/src/stm8l15x_rtc.c: 1987: void RTC_TamperCmd(RTC_Tamper_TypeDef RTC_Tamper,
                                   3114 ; genLabel
                                   3115 ;	-----------------------------------------
                                   3116 ;	 function RTC_TamperCmd
                                   3117 ;	-----------------------------------------
                                   3118 ;	Register assignment is optimal.
                                   3119 ;	Stack space usage: 1 bytes.
      000852                       3120 _RTC_TamperCmd:
      000852 88               [ 1] 3121 	push	a
                                   3122 ; genReceive
                                   3123 ;	STM8L15x_StdPeriph_Driver/src/stm8l15x_rtc.c: 1996: RTC->WPR = 0xCA;
                                   3124 ; genPointerSet
      000853 35 CA 51 59      [ 1] 3125 	mov	0x5159+0, #0xca
                                   3126 ;	STM8L15x_StdPeriph_Driver/src/stm8l15x_rtc.c: 1997: RTC->WPR = 0x53;
                                   3127 ; genPointerSet
      000857 35 53 51 59      [ 1] 3128 	mov	0x5159+0, #0x53
                                   3129 ;	STM8L15x_StdPeriph_Driver/src/stm8l15x_rtc.c: 2003: RTC->TCR1 |= (uint8_t)RTC_Tamper;
                                   3130 ; genPointerGet
      00085B AE 51 6C         [ 2] 3131 	ldw	x, #0x516c
      00085E 88               [ 1] 3132 	push	a
      00085F F6               [ 1] 3133 	ld	a, (x)
      000860 6B 02            [ 1] 3134 	ld	(0x02, sp), a
      000862 84               [ 1] 3135 	pop	a
                                   3136 ;	STM8L15x_StdPeriph_Driver/src/stm8l15x_rtc.c: 2000: if (NewState != DISABLE)
                                   3137 ; genIfx
      000863 0D 04            [ 1] 3138 	tnz	(0x04, sp)
                                   3139 ; peephole j5 changed absolute to relative unconditional jump.
      000865 27 07            [ 1] 3140 	jreq	00102$
                                   3141 ; peephole j10 removed jra by using inverse jump logic
                                   3142 ; peephole j30 removed unused label 00113$.
                                   3143 ;	STM8L15x_StdPeriph_Driver/src/stm8l15x_rtc.c: 2003: RTC->TCR1 |= (uint8_t)RTC_Tamper;
                                   3144 ; genOr
      000867 1A 01            [ 1] 3145 	or	a, (0x01, sp)
                                   3146 ; genPointerSet
      000869 C7 51 6C         [ 1] 3147 	ld	0x516c, a
                                   3148 ; genGoto
      00086C 20 06            [ 2] 3149 	jra	00103$
                                   3150 ; peephole j5 changed absolute to relative unconditional jump.
                                   3151 ; genLabel
      00086E                       3152 00102$:
                                   3153 ;	STM8L15x_StdPeriph_Driver/src/stm8l15x_rtc.c: 2008: RTC->TCR1 &= (uint8_t)~RTC_Tamper;
                                   3154 ; genCpl
      00086E 43               [ 1] 3155 	cpl	a
                                   3156 ; genAnd
      00086F 14 01            [ 1] 3157 	and	a, (0x01, sp)
                                   3158 ; genPointerSet
      000871 C7 51 6C         [ 1] 3159 	ld	0x516c, a
                                   3160 ; genLabel
      000874                       3161 00103$:
                                   3162 ;	STM8L15x_StdPeriph_Driver/src/stm8l15x_rtc.c: 2013: RTC->WPR = 0xFF; 
                                   3163 ; genPointerSet
      000874 35 FF 51 59      [ 1] 3164 	mov	0x5159+0, #0xff
                                   3165 ; genLabel
                                   3166 ; peephole j30 removed unused label 00104$.
                                   3167 ;	STM8L15x_StdPeriph_Driver/src/stm8l15x_rtc.c: 2014: }
                                   3168 ; genEndFunction
      000878 84               [ 1] 3169 	pop	a
      000879 85               [ 2] 3170 	popw	x
      00087A 84               [ 1] 3171 	pop	a
      00087B FC               [ 2] 3172 	jp	(x)
                                   3173 ;	Total RTC_TamperCmd function size at codegen: 4 bytes.
                                   3174 ;	STM8L15x_StdPeriph_Driver/src/stm8l15x_rtc.c: 2058: void RTC_ITConfig(RTC_IT_TypeDef RTC_IT, FunctionalState NewState)
                                   3175 ; genLabel
                                   3176 ;	-----------------------------------------
                                   3177 ;	 function RTC_ITConfig
                                   3178 ;	-----------------------------------------
                                   3179 ;	Register assignment might be sub-optimal.
                                   3180 ;	Stack space usage: 3 bytes.
      00087C                       3181 _RTC_ITConfig:
      00087C 52 03            [ 2] 3182 	sub	sp, #3
                                   3183 ; genReceive
                                   3184 ; genReceive
      00087E 6B 03            [ 1] 3185 	ld	(0x03, sp), a
                                   3186 ;	STM8L15x_StdPeriph_Driver/src/stm8l15x_rtc.c: 2065: RTC->WPR = 0xCA;
                                   3187 ; genPointerSet
      000880 35 CA 51 59      [ 1] 3188 	mov	0x5159+0, #0xca
                                   3189 ;	STM8L15x_StdPeriph_Driver/src/stm8l15x_rtc.c: 2066: RTC->WPR = 0x53;
                                   3190 ; genPointerSet
      000884 35 53 51 59      [ 1] 3191 	mov	0x5159+0, #0x53
                                   3192 ;	STM8L15x_StdPeriph_Driver/src/stm8l15x_rtc.c: 2071: RTC->CR2 |= (uint8_t)((uint16_t)RTC_IT & (uint16_t)0x00F0);
                                   3193 ; genPointerGet
      000888 C6 51 49         [ 1] 3194 	ld	a, 0x5149
      00088B 6B 02            [ 1] 3195 	ld	(0x02, sp), a
                                   3196 ; genCast
                                   3197 ; genAssign
                                   3198 ; genAnd
      00088D 9F               [ 1] 3199 	ld	a, xl
      00088E A4 F0            [ 1] 3200 	and	a, #0xf0
                                   3201 ;	STM8L15x_StdPeriph_Driver/src/stm8l15x_rtc.c: 2072: RTC->TCR1 |= (uint8_t)((uint16_t)RTC_IT & RTC_TCR1_TAMPIE);
                                   3202 ; genAnd
      000890 88               [ 1] 3203 	push	a
      000891 9F               [ 1] 3204 	ld	a, xl
      000892 A4 01            [ 1] 3205 	and	a, #0x01
      000894 6B 02            [ 1] 3206 	ld	(0x02, sp), a
      000896 84               [ 1] 3207 	pop	a
                                   3208 ;	STM8L15x_StdPeriph_Driver/src/stm8l15x_rtc.c: 2068: if (NewState != DISABLE)
                                   3209 ; genIfx
      000897 0D 03            [ 1] 3210 	tnz	(0x03, sp)
                                   3211 ; peephole j5 changed absolute to relative unconditional jump.
      000899 27 0F            [ 1] 3212 	jreq	00102$
                                   3213 ; peephole j10 removed jra by using inverse jump logic
                                   3214 ; peephole j30 removed unused label 00113$.
                                   3215 ;	STM8L15x_StdPeriph_Driver/src/stm8l15x_rtc.c: 2071: RTC->CR2 |= (uint8_t)((uint16_t)RTC_IT & (uint16_t)0x00F0);
                                   3216 ; genOr
      00089B 1A 02            [ 1] 3217 	or	a, (0x02, sp)
                                   3218 ; genPointerSet
      00089D C7 51 49         [ 1] 3219 	ld	0x5149, a
                                   3220 ;	STM8L15x_StdPeriph_Driver/src/stm8l15x_rtc.c: 2072: RTC->TCR1 |= (uint8_t)((uint16_t)RTC_IT & RTC_TCR1_TAMPIE);
                                   3221 ; genPointerGet
      0008A0 C6 51 6C         [ 1] 3222 	ld	a, 0x516c
                                   3223 ; genOr
      0008A3 1A 01            [ 1] 3224 	or	a, (0x01, sp)
                                   3225 ; genPointerSet
      0008A5 C7 51 6C         [ 1] 3226 	ld	0x516c, a
                                   3227 ; genGoto
      0008A8 20 13            [ 2] 3228 	jra	00103$
                                   3229 ; peephole j5 changed absolute to relative unconditional jump.
                                   3230 ; genLabel
      0008AA                       3231 00102$:
                                   3232 ;	STM8L15x_StdPeriph_Driver/src/stm8l15x_rtc.c: 2077: RTC->CR2  &= (uint8_t)~(uint8_t)((uint16_t)RTC_IT & (uint16_t)0x00F0);
                                   3233 ; genCpl
      0008AA 43               [ 1] 3234 	cpl	a
                                   3235 ; genAnd
      0008AB 14 02            [ 1] 3236 	and	a, (0x02, sp)
                                   3237 ; genPointerSet
      0008AD C7 51 49         [ 1] 3238 	ld	0x5149, a
                                   3239 ;	STM8L15x_StdPeriph_Driver/src/stm8l15x_rtc.c: 2078: RTC->TCR1 &= (uint8_t)~(uint8_t)((uint16_t)RTC_IT & (uint16_t)RTC_TCR1_TAMPIE);
                                   3240 ; genPointerGet
      0008B0 C6 51 6C         [ 1] 3241 	ld	a, 0x516c
      0008B3 6B 02            [ 1] 3242 	ld	(0x02, sp), a
                                   3243 ; genCpl
      0008B5 7B 01            [ 1] 3244 	ld	a, (0x01, sp)
      0008B7 43               [ 1] 3245 	cpl	a
                                   3246 ; genAnd
      0008B8 14 02            [ 1] 3247 	and	a, (0x02, sp)
                                   3248 ; genPointerSet
      0008BA C7 51 6C         [ 1] 3249 	ld	0x516c, a
                                   3250 ; genLabel
      0008BD                       3251 00103$:
                                   3252 ;	STM8L15x_StdPeriph_Driver/src/stm8l15x_rtc.c: 2082: RTC->WPR = 0xFF; 
                                   3253 ; genPointerSet
      0008BD 35 FF 51 59      [ 1] 3254 	mov	0x5159+0, #0xff
                                   3255 ; genLabel
                                   3256 ; peephole j30 removed unused label 00104$.
                                   3257 ;	STM8L15x_StdPeriph_Driver/src/stm8l15x_rtc.c: 2083: }
                                   3258 ; genEndFunction
      0008C1 5B 03            [ 2] 3259 	addw	sp, #3
      0008C3 81               [ 4] 3260 	ret
                                   3261 ;	Total RTC_ITConfig function size at codegen: 3 bytes.
                                   3262 ;	STM8L15x_StdPeriph_Driver/src/stm8l15x_rtc.c: 2090: FlagStatus RTC_GetFlagStatus(RTC_Flag_TypeDef RTC_FLAG)
                                   3263 ; genLabel
                                   3264 ;	-----------------------------------------
                                   3265 ;	 function RTC_GetFlagStatus
                                   3266 ;	-----------------------------------------
                                   3267 ;	Register assignment might be sub-optimal.
                                   3268 ;	Stack space usage: 6 bytes.
      0008C4                       3269 _RTC_GetFlagStatus:
      0008C4 52 06            [ 2] 3270 	sub	sp, #6
                                   3271 ; genReceive
                                   3272 ;	STM8L15x_StdPeriph_Driver/src/stm8l15x_rtc.c: 2100: tmpreg2 = (uint16_t)((uint16_t)RTC->ISR1 << 8);
                                   3273 ; genPointerGet
      0008C6 C6 51 4C         [ 1] 3274 	ld	a, 0x514c
                                   3275 ; genCast
                                   3276 ; genAssign
      0008C9 90 97            [ 1] 3277 	ld	yl, a
                                   3278 ; peephole 1 removed dead clear of a.
                                   3279 ; genLeftShiftLiteral
      0008CB 0F 02            [ 1] 3280 	clr	(0x02, sp)
                                   3281 ;	STM8L15x_StdPeriph_Driver/src/stm8l15x_rtc.c: 2101: tmpreg1 = (uint16_t)((uint16_t)((uint16_t)(RTC->ISR2)) | tmpreg2);
                                   3282 ; genPointerGet
      0008CD C6 51 4D         [ 1] 3283 	ld	a, 0x514d
                                   3284 ; genCast
                                   3285 ; genAssign
      0008D0 0F 03            [ 1] 3286 	clr	(0x03, sp)
                                   3287 ; genOr
      0008D2 6B 06            [ 1] 3288 	ld	(0x06, sp), a
      0008D4 61               [ 1] 3289 	exg	a, yl
      0008D5 6B 05            [ 1] 3290 	ld	(0x05, sp), a
      0008D7 61               [ 1] 3291 	exg	a, yl
                                   3292 ;	STM8L15x_StdPeriph_Driver/src/stm8l15x_rtc.c: 2104: if ((tmpreg1 & (uint16_t)RTC_FLAG) != RESET)
                                   3293 ; genCast
                                   3294 ; genAssign
      0008D8 9F               [ 1] 3295 	ld	a, xl
                                   3296 ; genAnd
      0008D9 14 06            [ 1] 3297 	and	a, (0x06, sp)
      0008DB 02               [ 1] 3298 	rlwa	x
                                   3299 ; peephole r1 used rlwa.
      0008DC 14 05            [ 1] 3300 	and	a, (0x05, sp)
      0008DE 95               [ 1] 3301 	ld	xh, a
                                   3302 ; genIfx
      0008DF 5D               [ 2] 3303 	tnzw	x
                                   3304 ; peephole j5 changed absolute to relative unconditional jump.
      0008E0 27 03            [ 1] 3305 	jreq	00102$
                                   3306 ; peephole j10 removed jra by using inverse jump logic
                                   3307 ; peephole j30 removed unused label 00113$.
                                   3308 ;	STM8L15x_StdPeriph_Driver/src/stm8l15x_rtc.c: 2106: flagstatus = SET;
                                   3309 ; genAssign
      0008E2 A6 01            [ 1] 3310 	ld	a, #0x01
                                   3311 ; genGoto
                                   3312 ; peephole j5 changed absolute to relative unconditional jump.
                                   3313 ; genLabel
                                   3314 ;	STM8L15x_StdPeriph_Driver/src/stm8l15x_rtc.c: 2110: flagstatus = RESET;
                                   3315 ; genAssign
                                   3316 ; genLabel
      0008E4 21                    3317 	.byte 0x21
                                   3318 ; peephole jrf1 used jump-on-false opcode to shorten jump over 1-byte instruction.
      0008E5                       3319 00102$:
      0008E5 4F               [ 1] 3320 	clr	a
      0008E6                       3321 00103$:
                                   3322 ;	STM8L15x_StdPeriph_Driver/src/stm8l15x_rtc.c: 2112: return (FlagStatus)flagstatus;
                                   3323 ; genReturn
                                   3324 ; genLabel
                                   3325 ; peephole j30 removed unused label 00104$.
                                   3326 ;	STM8L15x_StdPeriph_Driver/src/stm8l15x_rtc.c: 2113: }
                                   3327 ; genEndFunction
      0008E6 5B 06            [ 2] 3328 	addw	sp, #6
      0008E8 81               [ 4] 3329 	ret
                                   3330 ;	Total RTC_GetFlagStatus function size at codegen: 3 bytes.
                                   3331 ;	STM8L15x_StdPeriph_Driver/src/stm8l15x_rtc.c: 2122: void RTC_ClearFlag(RTC_Flag_TypeDef RTC_FLAG)
                                   3332 ; genLabel
                                   3333 ;	-----------------------------------------
                                   3334 ;	 function RTC_ClearFlag
                                   3335 ;	-----------------------------------------
                                   3336 ;	Register assignment might be sub-optimal.
                                   3337 ;	Stack space usage: 0 bytes.
      0008E9                       3338 _RTC_ClearFlag:
                                   3339 ; genReceive
                                   3340 ;	STM8L15x_StdPeriph_Driver/src/stm8l15x_rtc.c: 2128: RTC->ISR2 = (uint8_t)~((uint8_t)RTC_FLAG) ;
                                   3341 ; genCast
                                   3342 ; genAssign
      0008E9 9F               [ 1] 3343 	ld	a, xl
                                   3344 ; genCpl
      0008EA 43               [ 1] 3345 	cpl	a
                                   3346 ; genPointerSet
      0008EB C7 51 4D         [ 1] 3347 	ld	0x514d, a
                                   3348 ;	STM8L15x_StdPeriph_Driver/src/stm8l15x_rtc.c: 2129: RTC->ISR1 = (uint8_t)(((uint8_t)~(uint8_t)((uint16_t)RTC_FLAG >> (uint8_t)8)) & ((uint8_t)~(uint8_t)(RTC_ISR1_INIT)));
                                   3349 ; genCast
                                   3350 ; genAssign
      0008EE 9E               [ 1] 3351 	ld	a, xh
                                   3352 ; genGetByte
                                   3353 ; genCpl
      0008EF 43               [ 1] 3354 	cpl	a
                                   3355 ; genAnd
      0008F0 A4 7F            [ 1] 3356 	and	a, #0x7f
                                   3357 ; genPointerSet
      0008F2 C7 51 4C         [ 1] 3358 	ld	0x514c, a
                                   3359 ; genLabel
                                   3360 ; peephole j30 removed unused label 00101$.
                                   3361 ;	STM8L15x_StdPeriph_Driver/src/stm8l15x_rtc.c: 2130: }
                                   3362 ; genEndFunction
      0008F5 81               [ 4] 3363 	ret
                                   3364 ;	Total RTC_ClearFlag function size at codegen: 1 bytes.
                                   3365 ;	STM8L15x_StdPeriph_Driver/src/stm8l15x_rtc.c: 2138: ITStatus RTC_GetITStatus(RTC_IT_TypeDef RTC_IT)
                                   3366 ; genLabel
                                   3367 ;	-----------------------------------------
                                   3368 ;	 function RTC_GetITStatus
                                   3369 ;	-----------------------------------------
                                   3370 ;	Register assignment might be sub-optimal.
                                   3371 ;	Stack space usage: 1 bytes.
      0008F6                       3372 _RTC_GetITStatus:
      0008F6 88               [ 1] 3373 	push	a
                                   3374 ; genReceive
                                   3375 ;	STM8L15x_StdPeriph_Driver/src/stm8l15x_rtc.c: 2147: enablestatus = (uint8_t)(RTC->CR2 & (uint16_t)RTC_IT);
                                   3376 ; genPointerGet
      0008F7 C6 51 49         [ 1] 3377 	ld	a, 0x5149
      0008FA 6B 01            [ 1] 3378 	ld	(0x01, sp), a
                                   3379 ; genCast
                                   3380 ; genAssign
      0008FC 9F               [ 1] 3381 	ld	a, xl
                                   3382 ; genAnd
      0008FD 14 01            [ 1] 3383 	and	a, (0x01, sp)
      0008FF 6B 01            [ 1] 3384 	ld	(0x01, sp), a
                                   3385 ;	STM8L15x_StdPeriph_Driver/src/stm8l15x_rtc.c: 2150: tmpreg = (uint8_t)(RTC->ISR2 & (uint8_t)((uint16_t)RTC_IT >> 4));
                                   3386 ; genPointerGet
      000901 C6 51 4D         [ 1] 3387 	ld	a, 0x514d
                                   3388 ; genCast
                                   3389 ; genAssign
                                   3390 ; genRightShiftLiteral
      000904 54               [ 2] 3391 	srlw	x
      000905 54               [ 2] 3392 	srlw	x
      000906 54               [ 2] 3393 	srlw	x
      000907 54               [ 2] 3394 	srlw	x
                                   3395 ; genCast
                                   3396 ; genAssign
                                   3397 ; genAnd
      000908 89               [ 2] 3398 	pushw	x
      000909 14 02            [ 1] 3399 	and	a, (2, sp)
      00090B 85               [ 2] 3400 	popw	x
                                   3401 ;	STM8L15x_StdPeriph_Driver/src/stm8l15x_rtc.c: 2153: if ((enablestatus != (uint8_t)RESET) && (tmpreg != (uint8_t)RESET))
                                   3402 ; genIfx
      00090C 0D 01            [ 1] 3403 	tnz	(0x01, sp)
                                   3404 ; peephole j5 changed absolute to relative unconditional jump.
      00090E 27 06            [ 1] 3405 	jreq	00102$
                                   3406 ; peephole j10 removed jra by using inverse jump logic
                                   3407 ; peephole j30 removed unused label 00121$.
                                   3408 ; genIfx
      000910 4D               [ 1] 3409 	tnz	a
                                   3410 ; peephole j5 changed absolute to relative unconditional jump.
      000911 27 03            [ 1] 3411 	jreq	00102$
                                   3412 ; peephole j10 removed jra by using inverse jump logic
                                   3413 ; peephole j30 removed unused label 00122$.
                                   3414 ;	STM8L15x_StdPeriph_Driver/src/stm8l15x_rtc.c: 2155: itstatus = SET;
                                   3415 ; genAssign
      000913 A6 01            [ 1] 3416 	ld	a, #0x01
                                   3417 ; genGoto
                                   3418 ; peephole j5 changed absolute to relative unconditional jump.
                                   3419 ; genLabel
                                   3420 ;	STM8L15x_StdPeriph_Driver/src/stm8l15x_rtc.c: 2159: itstatus = RESET;
                                   3421 ; genAssign
                                   3422 ; genLabel
      000915 21                    3423 	.byte 0x21
                                   3424 ; peephole jrf1 used jump-on-false opcode to shorten jump over 1-byte instruction.
      000916                       3425 00102$:
      000916 4F               [ 1] 3426 	clr	a
      000917                       3427 00103$:
                                   3428 ;	STM8L15x_StdPeriph_Driver/src/stm8l15x_rtc.c: 2162: return (ITStatus)itstatus;
                                   3429 ; genReturn
                                   3430 ; genLabel
                                   3431 ; peephole j30 removed unused label 00105$.
                                   3432 ;	STM8L15x_StdPeriph_Driver/src/stm8l15x_rtc.c: 2163: }
                                   3433 ; genEndFunction
      000917 5B 01            [ 2] 3434 	addw	sp, #1
      000919 81               [ 4] 3435 	ret
                                   3436 ;	Total RTC_GetITStatus function size at codegen: 3 bytes.
                                   3437 ;	STM8L15x_StdPeriph_Driver/src/stm8l15x_rtc.c: 2172: void RTC_ClearITPendingBit(RTC_IT_TypeDef RTC_IT)
                                   3438 ; genLabel
                                   3439 ;	-----------------------------------------
                                   3440 ;	 function RTC_ClearITPendingBit
                                   3441 ;	-----------------------------------------
                                   3442 ;	Register assignment might be sub-optimal.
                                   3443 ;	Stack space usage: 0 bytes.
      00091A                       3444 _RTC_ClearITPendingBit:
                                   3445 ; genReceive
                                   3446 ;	STM8L15x_StdPeriph_Driver/src/stm8l15x_rtc.c: 2178: RTC->ISR2 = (uint8_t)~(uint8_t)((uint16_t)RTC_IT >> 4);
                                   3447 ; genCast
                                   3448 ; genAssign
                                   3449 ; genRightShiftLiteral
      00091A A6 10            [ 1] 3450 	ld	a, #0x10
      00091C 62               [ 2] 3451 	div	x, a
                                   3452 ; genCast
                                   3453 ; genAssign
      00091D 9F               [ 1] 3454 	ld	a, xl
                                   3455 ; genCpl
      00091E 43               [ 1] 3456 	cpl	a
                                   3457 ; genPointerSet
      00091F C7 51 4D         [ 1] 3458 	ld	0x514d, a
                                   3459 ; genLabel
                                   3460 ; peephole j30 removed unused label 00101$.
                                   3461 ;	STM8L15x_StdPeriph_Driver/src/stm8l15x_rtc.c: 2179: }
                                   3462 ; genEndFunction
      000922 81               [ 4] 3463 	ret
                                   3464 ;	Total RTC_ClearITPendingBit function size at codegen: 1 bytes.
                                   3465 ;	STM8L15x_StdPeriph_Driver/src/stm8l15x_rtc.c: 2202: static uint8_t ByteToBcd2(uint8_t Value)
                                   3466 ; genLabel
                                   3467 ;	-----------------------------------------
                                   3468 ;	 function ByteToBcd2
                                   3469 ;	-----------------------------------------
                                   3470 ;	Register assignment is optimal.
                                   3471 ;	Stack space usage: 0 bytes.
      000923                       3472 _ByteToBcd2:
                                   3473 ; genReceive
                                   3474 ;	STM8L15x_StdPeriph_Driver/src/stm8l15x_rtc.c: 2206: while (Value >= 10)
                                   3475 ; genAssign
      000923 5F               [ 1] 3476 	clrw	x
                                   3477 ; genLabel
      000924                       3478 00101$:
                                   3479 ; genCmp
                                   3480 ; genCmpTnz
      000924 A1 0A            [ 1] 3481 	cp	a, #0x0a
                                   3482 ; peephole j5 changed absolute to relative unconditional jump.
      000926 25 05            [ 1] 3483 	jrc	00103$
                                   3484 ; peephole j9 removed jra by using inverse jump logic
                                   3485 ; peephole j30 removed unused label 00121$.
                                   3486 ; skipping generated iCode
                                   3487 ;	STM8L15x_StdPeriph_Driver/src/stm8l15x_rtc.c: 2208: bcdhigh++;
                                   3488 ; genPlus
      000928 5C               [ 1] 3489 	incw	x
                                   3490 ;	STM8L15x_StdPeriph_Driver/src/stm8l15x_rtc.c: 2209: Value -= 10;
                                   3491 ; genCast
                                   3492 ; genAssign
                                   3493 ; genMinus
      000929 A0 0A            [ 1] 3494 	sub	a, #0x0a
                                   3495 ; genGoto
      00092B 20 F7            [ 2] 3496 	jra	00101$
                                   3497 ; peephole j5 changed absolute to relative unconditional jump.
                                   3498 ; genLabel
      00092D                       3499 00103$:
                                   3500 ;	STM8L15x_StdPeriph_Driver/src/stm8l15x_rtc.c: 2212: return  (uint8_t)((uint8_t)(bcdhigh << 4) | Value);
                                   3501 ; genLeftShiftLiteral
      00092D 58               [ 2] 3502 	sllw	x
      00092E 58               [ 2] 3503 	sllw	x
      00092F 58               [ 2] 3504 	sllw	x
      000930 58               [ 2] 3505 	sllw	x
                                   3506 ; genOr
      000931 89               [ 2] 3507 	pushw	x
      000932 1A 02            [ 1] 3508 	or	a, (2, sp)
      000934 85               [ 2] 3509 	popw	x
                                   3510 ; genReturn
                                   3511 ; genLabel
                                   3512 ; peephole j30 removed unused label 00104$.
                                   3513 ;	STM8L15x_StdPeriph_Driver/src/stm8l15x_rtc.c: 2213: }
                                   3514 ; genEndFunction
      000935 81               [ 4] 3515 	ret
                                   3516 ;	Total ByteToBcd2 function size at codegen: 1 bytes.
                                   3517 ;	STM8L15x_StdPeriph_Driver/src/stm8l15x_rtc.c: 2220: static uint8_t Bcd2ToByte(uint8_t Value)
                                   3518 ; genLabel
                                   3519 ;	-----------------------------------------
                                   3520 ;	 function Bcd2ToByte
                                   3521 ;	-----------------------------------------
                                   3522 ;	Register assignment is optimal.
                                   3523 ;	Stack space usage: 0 bytes.
      000936                       3524 _Bcd2ToByte:
                                   3525 ; genReceive
                                   3526 ;	STM8L15x_StdPeriph_Driver/src/stm8l15x_rtc.c: 2224: tmp = (uint8_t)((uint8_t)((uint8_t)(Value & (uint8_t)0xF0) >> 4) * (uint8_t)10);
                                   3527 ; genAnd
      000936 90 97            [ 1] 3528 	ld	yl, a
                                   3529 ; peephole 4 removed redundant load from yl into a.
      000938 A4 F0            [ 1] 3530 	and	a, #0xf0
                                   3531 ; genRightShiftLiteral
      00093A 4E               [ 1] 3532 	swap	a
      00093B A4 0F            [ 1] 3533 	and	a, #0x0f
      00093D 97               [ 1] 3534 	ld	xl, a
                                   3535 ; genMult
      00093E A6 0A            [ 1] 3536 	ld	a, #0x0a
      000940 42               [ 4] 3537 	mul	x, a
                                   3538 ;	STM8L15x_StdPeriph_Driver/src/stm8l15x_rtc.c: 2226: return (uint8_t)(tmp + (Value & (uint8_t)0x0F));
                                   3539 ; genAnd
      000941 90 9F            [ 1] 3540 	ld	a, yl
      000943 A4 0F            [ 1] 3541 	and	a, #0x0f
                                   3542 ; genPlus
      000945 89               [ 2] 3543 	pushw	x
      000946 1B 02            [ 1] 3544 	add	a, (2, sp)
      000948 85               [ 2] 3545 	popw	x
                                   3546 ; genReturn
                                   3547 ; genLabel
                                   3548 ; peephole j30 removed unused label 00101$.
                                   3549 ;	STM8L15x_StdPeriph_Driver/src/stm8l15x_rtc.c: 2227: }
                                   3550 ; genEndFunction
      000949 81               [ 4] 3551 	ret
                                   3552 ;	Total Bcd2ToByte function size at codegen: 1 bytes.
                                   3553 	.area CODE
                                   3554 	.area CONST
                                   3555 	.area INITIALIZER
                                   3556 	.area CABS (ABS)
