                                      1 ;--------------------------------------------------------
                                      2 ; File Created by SDCC : free open source ISO C Compiler
                                      3 ; Version 4.5.0 #15242 (Mac OS X x86_64)
                                      4 ;--------------------------------------------------------
                                      5 	.module stm8l15x_tim2
                                      6 	
                                      7 ;--------------------------------------------------------
                                      8 ; Public variables in this module
                                      9 ;--------------------------------------------------------
                                     10 	.globl _TIM2_DeInit
                                     11 	.globl _TIM2_TimeBaseInit
                                     12 	.globl _TIM2_PrescalerConfig
                                     13 	.globl _TIM2_CounterModeConfig
                                     14 	.globl _TIM2_SetCounter
                                     15 	.globl _TIM2_SetAutoreload
                                     16 	.globl _TIM2_GetCounter
                                     17 	.globl _TIM2_GetPrescaler
                                     18 	.globl _TIM2_UpdateDisableConfig
                                     19 	.globl _TIM2_UpdateRequestConfig
                                     20 	.globl _TIM2_ARRPreloadConfig
                                     21 	.globl _TIM2_SelectOnePulseMode
                                     22 	.globl _TIM2_Cmd
                                     23 	.globl _TIM2_OC1Init
                                     24 	.globl _TIM2_OC2Init
                                     25 	.globl _TIM2_BKRConfig
                                     26 	.globl _TIM2_CtrlPWMOutputs
                                     27 	.globl _TIM2_SelectOCxM
                                     28 	.globl _TIM2_SetCompare1
                                     29 	.globl _TIM2_SetCompare2
                                     30 	.globl _TIM2_ForcedOC1Config
                                     31 	.globl _TIM2_ForcedOC2Config
                                     32 	.globl _TIM2_OC1PreloadConfig
                                     33 	.globl _TIM2_OC2PreloadConfig
                                     34 	.globl _TIM2_OC1FastConfig
                                     35 	.globl _TIM2_OC2FastConfig
                                     36 	.globl _TIM2_OC1PolarityConfig
                                     37 	.globl _TIM2_OC2PolarityConfig
                                     38 	.globl _TIM2_CCxCmd
                                     39 	.globl _TIM2_ICInit
                                     40 	.globl _TIM2_PWMIConfig
                                     41 	.globl _TIM2_GetCapture1
                                     42 	.globl _TIM2_GetCapture2
                                     43 	.globl _TIM2_SetIC1Prescaler
                                     44 	.globl _TIM2_SetIC2Prescaler
                                     45 	.globl _TIM2_ITConfig
                                     46 	.globl _TIM2_GenerateEvent
                                     47 	.globl _TIM2_GetFlagStatus
                                     48 	.globl _TIM2_ClearFlag
                                     49 	.globl _TIM2_GetITStatus
                                     50 	.globl _TIM2_ClearITPendingBit
                                     51 	.globl _TIM2_DMACmd
                                     52 	.globl _TIM2_SelectCCDMA
                                     53 	.globl _TIM2_InternalClockConfig
                                     54 	.globl _TIM2_TIxExternalClockConfig
                                     55 	.globl _TIM2_ETRClockMode1Config
                                     56 	.globl _TIM2_ETRClockMode2Config
                                     57 	.globl _TIM2_SelectInputTrigger
                                     58 	.globl _TIM2_SelectOutputTrigger
                                     59 	.globl _TIM2_SelectSlaveMode
                                     60 	.globl _TIM2_SelectMasterSlaveMode
                                     61 	.globl _TIM2_ETRConfig
                                     62 	.globl _TIM2_EncoderInterfaceConfig
                                     63 	.globl _TIM2_SelectHallSensor
                                     64 ;--------------------------------------------------------
                                     65 ; ram data
                                     66 ;--------------------------------------------------------
                                     67 	.area DATA
                                     68 ;--------------------------------------------------------
                                     69 ; ram data
                                     70 ;--------------------------------------------------------
                                     71 	.area INITIALIZED
                                     72 ;--------------------------------------------------------
                                     73 ; absolute external ram data
                                     74 ;--------------------------------------------------------
                                     75 	.area DABS (ABS)
                                     76 
                                     77 ; default segment ordering for linker
                                     78 	.area HOME
                                     79 	.area GSINIT
                                     80 	.area GSFINAL
                                     81 	.area CONST
                                     82 	.area INITIALIZER
                                     83 	.area CODE
                                     84 
                                     85 ;--------------------------------------------------------
                                     86 ; global & static initialisations
                                     87 ;--------------------------------------------------------
                                     88 	.area HOME
                                     89 	.area GSINIT
                                     90 	.area GSFINAL
                                     91 	.area GSINIT
                                     92 ;--------------------------------------------------------
                                     93 ; Home
                                     94 ;--------------------------------------------------------
                                     95 	.area HOME
                                     96 	.area HOME
                                     97 ;--------------------------------------------------------
                                     98 ; code
                                     99 ;--------------------------------------------------------
                                    100 	.area CODE
                                    101 ;	STM8L15x_StdPeriph_Driver/src/stm8l15x_tim2.c: 168: void TIM2_DeInit(void)
                                    102 ; genLabel
                                    103 ;	-----------------------------------------
                                    104 ;	 function TIM2_DeInit
                                    105 ;	-----------------------------------------
                                    106 ;	Register assignment is optimal.
                                    107 ;	Stack space usage: 0 bytes.
      000000                        108 _TIM2_DeInit:
                                    109 ;	STM8L15x_StdPeriph_Driver/src/stm8l15x_tim2.c: 170: TIM2->CR1 = TIM_CR1_RESET_VALUE;
                                    110 ; genPointerSet
      000000 35 00 52 50      [ 1]  111 	mov	0x5250+0, #0x00
                                    112 ;	STM8L15x_StdPeriph_Driver/src/stm8l15x_tim2.c: 171: TIM2->CR2 = TIM_CR2_RESET_VALUE;
                                    113 ; genPointerSet
      000004 35 00 52 51      [ 1]  114 	mov	0x5251+0, #0x00
                                    115 ;	STM8L15x_StdPeriph_Driver/src/stm8l15x_tim2.c: 172: TIM2->SMCR = TIM_SMCR_RESET_VALUE;
                                    116 ; genPointerSet
      000008 35 00 52 52      [ 1]  117 	mov	0x5252+0, #0x00
                                    118 ;	STM8L15x_StdPeriph_Driver/src/stm8l15x_tim2.c: 173: TIM2->ETR = TIM_ETR_RESET_VALUE;
                                    119 ; genPointerSet
      00000C 35 00 52 53      [ 1]  120 	mov	0x5253+0, #0x00
                                    121 ;	STM8L15x_StdPeriph_Driver/src/stm8l15x_tim2.c: 174: TIM2->IER = TIM_IER_RESET_VALUE;
                                    122 ; genPointerSet
      000010 35 00 52 55      [ 1]  123 	mov	0x5255+0, #0x00
                                    124 ;	STM8L15x_StdPeriph_Driver/src/stm8l15x_tim2.c: 175: TIM2->SR2 = TIM_SR2_RESET_VALUE;
                                    125 ; genPointerSet
      000014 35 00 52 57      [ 1]  126 	mov	0x5257+0, #0x00
                                    127 ;	STM8L15x_StdPeriph_Driver/src/stm8l15x_tim2.c: 178: TIM2->CCER1 = TIM_CCER1_RESET_VALUE;
                                    128 ; genPointerSet
      000018 35 00 52 5B      [ 1]  129 	mov	0x525b+0, #0x00
                                    130 ;	STM8L15x_StdPeriph_Driver/src/stm8l15x_tim2.c: 180: TIM2->CCMR1 = 0x01;/*TIM2_ICxSource_TIxFPx */
                                    131 ; genPointerSet
      00001C 35 01 52 59      [ 1]  132 	mov	0x5259+0, #0x01
                                    133 ;	STM8L15x_StdPeriph_Driver/src/stm8l15x_tim2.c: 181: TIM2->CCMR2 = 0x01;/*TIM2_ICxSource_TIxFPx */
                                    134 ; genPointerSet
      000020 35 01 52 5A      [ 1]  135 	mov	0x525a+0, #0x01
                                    136 ;	STM8L15x_StdPeriph_Driver/src/stm8l15x_tim2.c: 184: TIM2->CCER1 = TIM_CCER1_RESET_VALUE;
                                    137 ; genPointerSet
      000024 35 00 52 5B      [ 1]  138 	mov	0x525b+0, #0x00
                                    139 ;	STM8L15x_StdPeriph_Driver/src/stm8l15x_tim2.c: 185: TIM2->CCMR1 = TIM_CCMR1_RESET_VALUE;
                                    140 ; genPointerSet
      000028 35 00 52 59      [ 1]  141 	mov	0x5259+0, #0x00
                                    142 ;	STM8L15x_StdPeriph_Driver/src/stm8l15x_tim2.c: 186: TIM2->CCMR2 = TIM_CCMR2_RESET_VALUE;
                                    143 ; genPointerSet
      00002C 35 00 52 5A      [ 1]  144 	mov	0x525a+0, #0x00
                                    145 ;	STM8L15x_StdPeriph_Driver/src/stm8l15x_tim2.c: 188: TIM2->CNTRH = TIM_CNTRH_RESET_VALUE;
                                    146 ; genPointerSet
      000030 35 00 52 5C      [ 1]  147 	mov	0x525c+0, #0x00
                                    148 ;	STM8L15x_StdPeriph_Driver/src/stm8l15x_tim2.c: 189: TIM2->CNTRL = TIM_CNTRL_RESET_VALUE;
                                    149 ; genPointerSet
      000034 35 00 52 5D      [ 1]  150 	mov	0x525d+0, #0x00
                                    151 ;	STM8L15x_StdPeriph_Driver/src/stm8l15x_tim2.c: 191: TIM2->PSCR = TIM_PSCR_RESET_VALUE;
                                    152 ; genPointerSet
      000038 35 00 52 5E      [ 1]  153 	mov	0x525e+0, #0x00
                                    154 ;	STM8L15x_StdPeriph_Driver/src/stm8l15x_tim2.c: 193: TIM2->ARRH = TIM_ARRH_RESET_VALUE;
                                    155 ; genPointerSet
      00003C 35 FF 52 5F      [ 1]  156 	mov	0x525f+0, #0xff
                                    157 ;	STM8L15x_StdPeriph_Driver/src/stm8l15x_tim2.c: 194: TIM2->ARRL = TIM_ARRL_RESET_VALUE;
                                    158 ; genPointerSet
      000040 35 FF 52 60      [ 1]  159 	mov	0x5260+0, #0xff
                                    160 ;	STM8L15x_StdPeriph_Driver/src/stm8l15x_tim2.c: 196: TIM2->CCR1H = TIM_CCR1H_RESET_VALUE;
                                    161 ; genPointerSet
      000044 35 00 52 61      [ 1]  162 	mov	0x5261+0, #0x00
                                    163 ;	STM8L15x_StdPeriph_Driver/src/stm8l15x_tim2.c: 197: TIM2->CCR1L = TIM_CCR1L_RESET_VALUE;
                                    164 ; genPointerSet
      000048 35 00 52 62      [ 1]  165 	mov	0x5262+0, #0x00
                                    166 ;	STM8L15x_StdPeriph_Driver/src/stm8l15x_tim2.c: 198: TIM2->CCR2H = TIM_CCR2H_RESET_VALUE;
                                    167 ; genPointerSet
      00004C 35 00 52 63      [ 1]  168 	mov	0x5263+0, #0x00
                                    169 ;	STM8L15x_StdPeriph_Driver/src/stm8l15x_tim2.c: 199: TIM2->CCR2L = TIM_CCR2L_RESET_VALUE;
                                    170 ; genPointerSet
      000050 35 00 52 64      [ 1]  171 	mov	0x5264+0, #0x00
                                    172 ;	STM8L15x_StdPeriph_Driver/src/stm8l15x_tim2.c: 202: TIM2->OISR = TIM_OISR_RESET_VALUE;
                                    173 ; genPointerSet
      000054 35 00 52 66      [ 1]  174 	mov	0x5266+0, #0x00
                                    175 ;	STM8L15x_StdPeriph_Driver/src/stm8l15x_tim2.c: 203: TIM2->EGR = 0x01;/* TIM_EGR_UG */
                                    176 ; genPointerSet
      000058 35 01 52 58      [ 1]  177 	mov	0x5258+0, #0x01
                                    178 ;	STM8L15x_StdPeriph_Driver/src/stm8l15x_tim2.c: 204: TIM2->BKR = TIM_BKR_RESET_VALUE;
                                    179 ; genPointerSet
      00005C 35 00 52 65      [ 1]  180 	mov	0x5265+0, #0x00
                                    181 ;	STM8L15x_StdPeriph_Driver/src/stm8l15x_tim2.c: 205: TIM2->SR1 = TIM_SR1_RESET_VALUE;
                                    182 ; genPointerSet
      000060 35 00 52 56      [ 1]  183 	mov	0x5256+0, #0x00
                                    184 ; genLabel
                                    185 ; peephole j30 removed unused label 00101$.
                                    186 ;	STM8L15x_StdPeriph_Driver/src/stm8l15x_tim2.c: 206: }
                                    187 ; genEndFunction
      000064 81               [ 4]  188 	ret
                                    189 ;	Total TIM2_DeInit function size at codegen: 1 bytes.
                                    190 ;	STM8L15x_StdPeriph_Driver/src/stm8l15x_tim2.c: 231: void TIM2_TimeBaseInit(TIM2_Prescaler_TypeDef TIM2_Prescaler,
                                    191 ; genLabel
                                    192 ;	-----------------------------------------
                                    193 ;	 function TIM2_TimeBaseInit
                                    194 ;	-----------------------------------------
                                    195 ;	Register assignment is optimal.
                                    196 ;	Stack space usage: 1 bytes.
      000065                        197 _TIM2_TimeBaseInit:
      000065 88               [ 1]  198 	push	a
                                    199 ; genReceive
      000066 6B 01            [ 1]  200 	ld	(0x01, sp), a
                                    201 ;	STM8L15x_StdPeriph_Driver/src/stm8l15x_tim2.c: 242: TIM2->ARRH = (uint8_t)(TIM2_Period >> 8) ;
                                    202 ; genGetByte
      000068 7B 05            [ 1]  203 	ld	a, (0x05, sp)
                                    204 ; genPointerSet
      00006A C7 52 5F         [ 1]  205 	ld	0x525f, a
                                    206 ;	STM8L15x_StdPeriph_Driver/src/stm8l15x_tim2.c: 243: TIM2->ARRL = (uint8_t)(TIM2_Period);
                                    207 ; genCast
                                    208 ; genAssign
      00006D 7B 06            [ 1]  209 	ld	a, (0x06, sp)
                                    210 ; genPointerSet
      00006F C7 52 60         [ 1]  211 	ld	0x5260, a
                                    212 ;	STM8L15x_StdPeriph_Driver/src/stm8l15x_tim2.c: 246: TIM2->PSCR = (uint8_t)(TIM2_Prescaler);
                                    213 ; genPointerSet
      000072 AE 52 5E         [ 2]  214 	ldw	x, #0x525e
      000075 7B 01            [ 1]  215 	ld	a, (0x01, sp)
      000077 F7               [ 1]  216 	ld	(x), a
                                    217 ;	STM8L15x_StdPeriph_Driver/src/stm8l15x_tim2.c: 249: TIM2->CR1 &= (uint8_t)((uint8_t)(~TIM_CR1_CMS)) & ((uint8_t)(~TIM_CR1_DIR));
                                    218 ; genPointerGet
      000078 C6 52 50         [ 1]  219 	ld	a, 0x5250
                                    220 ; genAnd
      00007B A4 8F            [ 1]  221 	and	a, #0x8f
                                    222 ; genPointerSet
      00007D C7 52 50         [ 1]  223 	ld	0x5250, a
                                    224 ;	STM8L15x_StdPeriph_Driver/src/stm8l15x_tim2.c: 250: TIM2->CR1 |= (uint8_t)(TIM2_CounterMode);
                                    225 ; genPointerGet
      000080 C6 52 50         [ 1]  226 	ld	a, 0x5250
                                    227 ; genOr
      000083 1A 04            [ 1]  228 	or	a, (0x04, sp)
                                    229 ; genPointerSet
      000085 C7 52 50         [ 1]  230 	ld	0x5250, a
                                    231 ;	STM8L15x_StdPeriph_Driver/src/stm8l15x_tim2.c: 253: TIM2->EGR = TIM2_EventSource_Update;
                                    232 ; genPointerSet
      000088 35 01 52 58      [ 1]  233 	mov	0x5258+0, #0x01
                                    234 ; genLabel
                                    235 ; peephole j30 removed unused label 00101$.
                                    236 ;	STM8L15x_StdPeriph_Driver/src/stm8l15x_tim2.c: 254: }
                                    237 ; genEndFunction
      00008C 1E 02            [ 2]  238 	ldw	x, (2, sp)
      00008E 5B 06            [ 2]  239 	addw	sp, #6
      000090 FC               [ 2]  240 	jp	(x)
                                    241 ;	Total TIM2_TimeBaseInit function size at codegen: 5 bytes.
                                    242 ;	STM8L15x_StdPeriph_Driver/src/stm8l15x_tim2.c: 274: void TIM2_PrescalerConfig(TIM2_Prescaler_TypeDef Prescaler,
                                    243 ; genLabel
                                    244 ;	-----------------------------------------
                                    245 ;	 function TIM2_PrescalerConfig
                                    246 ;	-----------------------------------------
                                    247 ;	Register assignment is optimal.
                                    248 ;	Stack space usage: 0 bytes.
      000091                        249 _TIM2_PrescalerConfig:
                                    250 ; genReceive
                                    251 ;	STM8L15x_StdPeriph_Driver/src/stm8l15x_tim2.c: 282: TIM2->PSCR = (uint8_t)(Prescaler);
                                    252 ; genPointerSet
      000091 C7 52 5E         [ 1]  253 	ld	0x525e, a
                                    254 ;	STM8L15x_StdPeriph_Driver/src/stm8l15x_tim2.c: 287: TIM2->EGR |= TIM_EGR_UG ;
                                    255 ; genPointerGet
      000094 C6 52 58         [ 1]  256 	ld	a, 0x5258
                                    257 ;	STM8L15x_StdPeriph_Driver/src/stm8l15x_tim2.c: 285: if (TIM2_PSCReloadMode == TIM2_PSCReloadMode_Immediate)
                                    258 ; genIfx
      000097 0D 03            [ 1]  259 	tnz	(0x03, sp)
                                    260 ; peephole j5 changed absolute to relative unconditional jump.
      000099 27 07            [ 1]  261 	jreq	00102$
                                    262 ; peephole j10 removed jra by using inverse jump logic
                                    263 ; peephole j30 removed unused label 00113$.
                                    264 ;	STM8L15x_StdPeriph_Driver/src/stm8l15x_tim2.c: 287: TIM2->EGR |= TIM_EGR_UG ;
                                    265 ; genOr
      00009B AA 01            [ 1]  266 	or	a, #0x01
                                    267 ; genPointerSet
      00009D C7 52 58         [ 1]  268 	ld	0x5258, a
                                    269 ; genGoto
      0000A0 20 05            [ 2]  270 	jra	00104$
                                    271 ; peephole j5 changed absolute to relative unconditional jump.
                                    272 ; genLabel
      0000A2                        273 00102$:
                                    274 ;	STM8L15x_StdPeriph_Driver/src/stm8l15x_tim2.c: 291: TIM2->EGR &= (uint8_t)(~TIM_EGR_UG) ;
                                    275 ; genAnd
      0000A2 A4 FE            [ 1]  276 	and	a, #0xfe
                                    277 ; genPointerSet
      0000A4 C7 52 58         [ 1]  278 	ld	0x5258, a
                                    279 ; genLabel
      0000A7                        280 00104$:
                                    281 ;	STM8L15x_StdPeriph_Driver/src/stm8l15x_tim2.c: 293: }
                                    282 ; genEndFunction
      0000A7 85               [ 2]  283 	popw	x
      0000A8 84               [ 1]  284 	pop	a
      0000A9 FC               [ 2]  285 	jp	(x)
                                    286 ;	Total TIM2_PrescalerConfig function size at codegen: 3 bytes.
                                    287 ;	STM8L15x_StdPeriph_Driver/src/stm8l15x_tim2.c: 306: void TIM2_CounterModeConfig(TIM2_CounterMode_TypeDef TIM2_CounterMode)
                                    288 ; genLabel
                                    289 ;	-----------------------------------------
                                    290 ;	 function TIM2_CounterModeConfig
                                    291 ;	-----------------------------------------
                                    292 ;	Register assignment is optimal.
                                    293 ;	Stack space usage: 1 bytes.
      0000AA                        294 _TIM2_CounterModeConfig:
      0000AA 88               [ 1]  295 	push	a
                                    296 ; genReceive
      0000AB 6B 01            [ 1]  297 	ld	(0x01, sp), a
                                    298 ;	STM8L15x_StdPeriph_Driver/src/stm8l15x_tim2.c: 313: tmpcr1 = TIM2->CR1;
                                    299 ; genPointerGet
      0000AD C6 52 50         [ 1]  300 	ld	a, 0x5250
                                    301 ;	STM8L15x_StdPeriph_Driver/src/stm8l15x_tim2.c: 316: tmpcr1 &= (uint8_t)((uint8_t)(~TIM_CR1_CMS) & (uint8_t)(~TIM_CR1_DIR));
                                    302 ; genAnd
      0000B0 A4 8F            [ 1]  303 	and	a, #0x8f
                                    304 ;	STM8L15x_StdPeriph_Driver/src/stm8l15x_tim2.c: 319: tmpcr1 |= (uint8_t)TIM2_CounterMode;
                                    305 ; genOr
      0000B2 1A 01            [ 1]  306 	or	a, (0x01, sp)
                                    307 ;	STM8L15x_StdPeriph_Driver/src/stm8l15x_tim2.c: 321: TIM2->CR1 = tmpcr1;
                                    308 ; genPointerSet
      0000B4 C7 52 50         [ 1]  309 	ld	0x5250, a
                                    310 ; genLabel
                                    311 ; peephole j30 removed unused label 00101$.
                                    312 ;	STM8L15x_StdPeriph_Driver/src/stm8l15x_tim2.c: 322: }
                                    313 ; genEndFunction
      0000B7 84               [ 1]  314 	pop	a
      0000B8 81               [ 4]  315 	ret
                                    316 ;	Total TIM2_CounterModeConfig function size at codegen: 2 bytes.
                                    317 ;	STM8L15x_StdPeriph_Driver/src/stm8l15x_tim2.c: 330: void TIM2_SetCounter(uint16_t Counter)
                                    318 ; genLabel
                                    319 ;	-----------------------------------------
                                    320 ;	 function TIM2_SetCounter
                                    321 ;	-----------------------------------------
                                    322 ;	Register assignment is optimal.
                                    323 ;	Stack space usage: 0 bytes.
      0000B9                        324 _TIM2_SetCounter:
                                    325 ; genReceive
                                    326 ;	STM8L15x_StdPeriph_Driver/src/stm8l15x_tim2.c: 334: TIM2->CNTRH = (uint8_t)(Counter >> 8);
                                    327 ; genGetByte
      0000B9 9E               [ 1]  328 	ld	a, xh
                                    329 ; genPointerSet
      0000BA C7 52 5C         [ 1]  330 	ld	0x525c, a
                                    331 ;	STM8L15x_StdPeriph_Driver/src/stm8l15x_tim2.c: 335: TIM2->CNTRL = (uint8_t)(Counter);
                                    332 ; genCast
                                    333 ; genAssign
      0000BD 9F               [ 1]  334 	ld	a, xl
                                    335 ; genPointerSet
      0000BE C7 52 5D         [ 1]  336 	ld	0x525d, a
                                    337 ; genLabel
                                    338 ; peephole j30 removed unused label 00101$.
                                    339 ;	STM8L15x_StdPeriph_Driver/src/stm8l15x_tim2.c: 336: }
                                    340 ; genEndFunction
      0000C1 81               [ 4]  341 	ret
                                    342 ;	Total TIM2_SetCounter function size at codegen: 1 bytes.
                                    343 ;	STM8L15x_StdPeriph_Driver/src/stm8l15x_tim2.c: 344: void TIM2_SetAutoreload(uint16_t Autoreload)
                                    344 ; genLabel
                                    345 ;	-----------------------------------------
                                    346 ;	 function TIM2_SetAutoreload
                                    347 ;	-----------------------------------------
                                    348 ;	Register assignment is optimal.
                                    349 ;	Stack space usage: 0 bytes.
      0000C2                        350 _TIM2_SetAutoreload:
                                    351 ; genReceive
                                    352 ;	STM8L15x_StdPeriph_Driver/src/stm8l15x_tim2.c: 347: TIM2->ARRH = (uint8_t)(Autoreload >> 8);
                                    353 ; genGetByte
      0000C2 9E               [ 1]  354 	ld	a, xh
                                    355 ; genPointerSet
      0000C3 C7 52 5F         [ 1]  356 	ld	0x525f, a
                                    357 ;	STM8L15x_StdPeriph_Driver/src/stm8l15x_tim2.c: 348: TIM2->ARRL = (uint8_t)(Autoreload);
                                    358 ; genCast
                                    359 ; genAssign
      0000C6 9F               [ 1]  360 	ld	a, xl
                                    361 ; genPointerSet
      0000C7 C7 52 60         [ 1]  362 	ld	0x5260, a
                                    363 ; genLabel
                                    364 ; peephole j30 removed unused label 00101$.
                                    365 ;	STM8L15x_StdPeriph_Driver/src/stm8l15x_tim2.c: 349: }
                                    366 ; genEndFunction
      0000CA 81               [ 4]  367 	ret
                                    368 ;	Total TIM2_SetAutoreload function size at codegen: 1 bytes.
                                    369 ;	STM8L15x_StdPeriph_Driver/src/stm8l15x_tim2.c: 356: uint16_t TIM2_GetCounter(void)
                                    370 ; genLabel
                                    371 ;	-----------------------------------------
                                    372 ;	 function TIM2_GetCounter
                                    373 ;	-----------------------------------------
                                    374 ;	Register assignment might be sub-optimal.
                                    375 ;	Stack space usage: 2 bytes.
      0000CB                        376 _TIM2_GetCounter:
      0000CB 89               [ 2]  377 	pushw	x
                                    378 ;	STM8L15x_StdPeriph_Driver/src/stm8l15x_tim2.c: 361: tmpcntrh = TIM2->CNTRH;
                                    379 ; genPointerGet
      0000CC C6 52 5C         [ 1]  380 	ld	a, 0x525c
      0000CF 95               [ 1]  381 	ld	xh, a
                                    382 ;	STM8L15x_StdPeriph_Driver/src/stm8l15x_tim2.c: 362: tmpcntrl = TIM2->CNTRL;
                                    383 ; genPointerGet
      0000D0 C6 52 5D         [ 1]  384 	ld	a, 0x525d
                                    385 ;	STM8L15x_StdPeriph_Driver/src/stm8l15x_tim2.c: 364: tmpcnt = (uint16_t)(tmpcntrl);
                                    386 ; genCast
                                    387 ; genAssign
      0000D3 97               [ 1]  388 	ld	xl, a
                                    389 ; peephole 3 removed dead clrw of y.
                                    390 ;	STM8L15x_StdPeriph_Driver/src/stm8l15x_tim2.c: 365: tmpcnt |= (uint16_t)((uint16_t)tmpcntrh << 8);
                                    391 ; genCast
                                    392 ; genAssign
                                    393 ; peephole 1 removed dead clear of a.
                                    394 ; genLeftShiftLiteral
      0000D4 0F 02            [ 1]  395 	clr	(0x02, sp)
                                    396 ; genOr
                                    397 ;	STM8L15x_StdPeriph_Driver/src/stm8l15x_tim2.c: 367: return ((uint16_t)tmpcnt);
                                    398 ; genReturn
                                    399 ; genLabel
                                    400 ; peephole j30 removed unused label 00101$.
                                    401 ;	STM8L15x_StdPeriph_Driver/src/stm8l15x_tim2.c: 368: }
                                    402 ; genEndFunction
      0000D6 5B 02            [ 2]  403 	addw	sp, #2
      0000D8 81               [ 4]  404 	ret
                                    405 ;	Total TIM2_GetCounter function size at codegen: 3 bytes.
                                    406 ;	STM8L15x_StdPeriph_Driver/src/stm8l15x_tim2.c: 383: TIM2_Prescaler_TypeDef TIM2_GetPrescaler(void)
                                    407 ; genLabel
                                    408 ;	-----------------------------------------
                                    409 ;	 function TIM2_GetPrescaler
                                    410 ;	-----------------------------------------
                                    411 ;	Register assignment is optimal.
                                    412 ;	Stack space usage: 0 bytes.
      0000D9                        413 _TIM2_GetPrescaler:
                                    414 ;	STM8L15x_StdPeriph_Driver/src/stm8l15x_tim2.c: 386: return ((TIM2_Prescaler_TypeDef)TIM2->PSCR);
                                    415 ; genPointerGet
      0000D9 C6 52 5E         [ 1]  416 	ld	a, 0x525e
                                    417 ; genReturn
                                    418 ; genLabel
                                    419 ; peephole j30 removed unused label 00101$.
                                    420 ;	STM8L15x_StdPeriph_Driver/src/stm8l15x_tim2.c: 387: }
                                    421 ; genEndFunction
      0000DC 81               [ 4]  422 	ret
                                    423 ;	Total TIM2_GetPrescaler function size at codegen: 1 bytes.
                                    424 ;	STM8L15x_StdPeriph_Driver/src/stm8l15x_tim2.c: 396: void TIM2_UpdateDisableConfig(FunctionalState NewState)
                                    425 ; genLabel
                                    426 ;	-----------------------------------------
                                    427 ;	 function TIM2_UpdateDisableConfig
                                    428 ;	-----------------------------------------
                                    429 ;	Register assignment is optimal.
                                    430 ;	Stack space usage: 1 bytes.
      0000DD                        431 _TIM2_UpdateDisableConfig:
      0000DD 88               [ 1]  432 	push	a
                                    433 ; genReceive
      0000DE 6B 01            [ 1]  434 	ld	(0x01, sp), a
                                    435 ;	STM8L15x_StdPeriph_Driver/src/stm8l15x_tim2.c: 404: TIM2->CR1 |= TIM_CR1_UDIS;
                                    436 ; genPointerGet
      0000E0 C6 52 50         [ 1]  437 	ld	a, 0x5250
                                    438 ;	STM8L15x_StdPeriph_Driver/src/stm8l15x_tim2.c: 402: if (NewState != DISABLE)
                                    439 ; genIfx
      0000E3 0D 01            [ 1]  440 	tnz	(0x01, sp)
                                    441 ; peephole j5 changed absolute to relative unconditional jump.
      0000E5 27 07            [ 1]  442 	jreq	00102$
                                    443 ; peephole j10 removed jra by using inverse jump logic
                                    444 ; peephole j30 removed unused label 00113$.
                                    445 ;	STM8L15x_StdPeriph_Driver/src/stm8l15x_tim2.c: 404: TIM2->CR1 |= TIM_CR1_UDIS;
                                    446 ; genOr
      0000E7 AA 02            [ 1]  447 	or	a, #0x02
                                    448 ; genPointerSet
      0000E9 C7 52 50         [ 1]  449 	ld	0x5250, a
                                    450 ; genGoto
      0000EC 20 05            [ 2]  451 	jra	00104$
                                    452 ; peephole j5 changed absolute to relative unconditional jump.
                                    453 ; genLabel
      0000EE                        454 00102$:
                                    455 ;	STM8L15x_StdPeriph_Driver/src/stm8l15x_tim2.c: 408: TIM2->CR1 &= (uint8_t)(~TIM_CR1_UDIS);
                                    456 ; genAnd
      0000EE A4 FD            [ 1]  457 	and	a, #0xfd
                                    458 ; genPointerSet
      0000F0 C7 52 50         [ 1]  459 	ld	0x5250, a
                                    460 ; genLabel
      0000F3                        461 00104$:
                                    462 ;	STM8L15x_StdPeriph_Driver/src/stm8l15x_tim2.c: 410: }
                                    463 ; genEndFunction
      0000F3 84               [ 1]  464 	pop	a
      0000F4 81               [ 4]  465 	ret
                                    466 ;	Total TIM2_UpdateDisableConfig function size at codegen: 2 bytes.
                                    467 ;	STM8L15x_StdPeriph_Driver/src/stm8l15x_tim2.c: 420: void TIM2_UpdateRequestConfig(TIM2_UpdateSource_TypeDef TIM2_UpdateSource)
                                    468 ; genLabel
                                    469 ;	-----------------------------------------
                                    470 ;	 function TIM2_UpdateRequestConfig
                                    471 ;	-----------------------------------------
                                    472 ;	Register assignment is optimal.
                                    473 ;	Stack space usage: 1 bytes.
      0000F5                        474 _TIM2_UpdateRequestConfig:
      0000F5 88               [ 1]  475 	push	a
                                    476 ; genReceive
      0000F6 6B 01            [ 1]  477 	ld	(0x01, sp), a
                                    478 ;	STM8L15x_StdPeriph_Driver/src/stm8l15x_tim2.c: 428: TIM2->CR1 |= TIM_CR1_URS ;
                                    479 ; genPointerGet
      0000F8 C6 52 50         [ 1]  480 	ld	a, 0x5250
                                    481 ;	STM8L15x_StdPeriph_Driver/src/stm8l15x_tim2.c: 426: if (TIM2_UpdateSource == TIM2_UpdateSource_Regular)
                                    482 ; genIfx
      0000FB 0D 01            [ 1]  483 	tnz	(0x01, sp)
                                    484 ; peephole j5 changed absolute to relative unconditional jump.
      0000FD 27 07            [ 1]  485 	jreq	00102$
                                    486 ; peephole j10 removed jra by using inverse jump logic
                                    487 ; peephole j30 removed unused label 00113$.
                                    488 ;	STM8L15x_StdPeriph_Driver/src/stm8l15x_tim2.c: 428: TIM2->CR1 |= TIM_CR1_URS ;
                                    489 ; genOr
      0000FF AA 04            [ 1]  490 	or	a, #0x04
                                    491 ; genPointerSet
      000101 C7 52 50         [ 1]  492 	ld	0x5250, a
                                    493 ; genGoto
      000104 20 05            [ 2]  494 	jra	00104$
                                    495 ; peephole j5 changed absolute to relative unconditional jump.
                                    496 ; genLabel
      000106                        497 00102$:
                                    498 ;	STM8L15x_StdPeriph_Driver/src/stm8l15x_tim2.c: 432: TIM2->CR1 &= (uint8_t)(~TIM_CR1_URS);
                                    499 ; genAnd
      000106 A4 FB            [ 1]  500 	and	a, #0xfb
                                    501 ; genPointerSet
      000108 C7 52 50         [ 1]  502 	ld	0x5250, a
                                    503 ; genLabel
      00010B                        504 00104$:
                                    505 ;	STM8L15x_StdPeriph_Driver/src/stm8l15x_tim2.c: 434: }
                                    506 ; genEndFunction
      00010B 84               [ 1]  507 	pop	a
      00010C 81               [ 4]  508 	ret
                                    509 ;	Total TIM2_UpdateRequestConfig function size at codegen: 2 bytes.
                                    510 ;	STM8L15x_StdPeriph_Driver/src/stm8l15x_tim2.c: 442: void TIM2_ARRPreloadConfig(FunctionalState NewState)
                                    511 ; genLabel
                                    512 ;	-----------------------------------------
                                    513 ;	 function TIM2_ARRPreloadConfig
                                    514 ;	-----------------------------------------
                                    515 ;	Register assignment is optimal.
                                    516 ;	Stack space usage: 1 bytes.
      00010D                        517 _TIM2_ARRPreloadConfig:
      00010D 88               [ 1]  518 	push	a
                                    519 ; genReceive
      00010E 6B 01            [ 1]  520 	ld	(0x01, sp), a
                                    521 ;	STM8L15x_StdPeriph_Driver/src/stm8l15x_tim2.c: 450: TIM2->CR1 |= TIM_CR1_ARPE;
                                    522 ; genPointerGet
      000110 C6 52 50         [ 1]  523 	ld	a, 0x5250
                                    524 ;	STM8L15x_StdPeriph_Driver/src/stm8l15x_tim2.c: 448: if (NewState != DISABLE)
                                    525 ; genIfx
      000113 0D 01            [ 1]  526 	tnz	(0x01, sp)
                                    527 ; peephole j5 changed absolute to relative unconditional jump.
      000115 27 07            [ 1]  528 	jreq	00102$
                                    529 ; peephole j10 removed jra by using inverse jump logic
                                    530 ; peephole j30 removed unused label 00113$.
                                    531 ;	STM8L15x_StdPeriph_Driver/src/stm8l15x_tim2.c: 450: TIM2->CR1 |= TIM_CR1_ARPE;
                                    532 ; genOr
      000117 AA 80            [ 1]  533 	or	a, #0x80
                                    534 ; genPointerSet
      000119 C7 52 50         [ 1]  535 	ld	0x5250, a
                                    536 ; genGoto
      00011C 20 05            [ 2]  537 	jra	00104$
                                    538 ; peephole j5 changed absolute to relative unconditional jump.
                                    539 ; genLabel
      00011E                        540 00102$:
                                    541 ;	STM8L15x_StdPeriph_Driver/src/stm8l15x_tim2.c: 454: TIM2->CR1 &= (uint8_t)(~TIM_CR1_ARPE);
                                    542 ; genAnd
      00011E A4 7F            [ 1]  543 	and	a, #0x7f
                                    544 ; genPointerSet
      000120 C7 52 50         [ 1]  545 	ld	0x5250, a
                                    546 ; genLabel
      000123                        547 00104$:
                                    548 ;	STM8L15x_StdPeriph_Driver/src/stm8l15x_tim2.c: 456: }
                                    549 ; genEndFunction
      000123 84               [ 1]  550 	pop	a
      000124 81               [ 4]  551 	ret
                                    552 ;	Total TIM2_ARRPreloadConfig function size at codegen: 2 bytes.
                                    553 ;	STM8L15x_StdPeriph_Driver/src/stm8l15x_tim2.c: 466: void TIM2_SelectOnePulseMode(TIM2_OPMode_TypeDef TIM2_OPMode)
                                    554 ; genLabel
                                    555 ;	-----------------------------------------
                                    556 ;	 function TIM2_SelectOnePulseMode
                                    557 ;	-----------------------------------------
                                    558 ;	Register assignment is optimal.
                                    559 ;	Stack space usage: 1 bytes.
      000125                        560 _TIM2_SelectOnePulseMode:
      000125 88               [ 1]  561 	push	a
                                    562 ; genReceive
      000126 6B 01            [ 1]  563 	ld	(0x01, sp), a
                                    564 ;	STM8L15x_StdPeriph_Driver/src/stm8l15x_tim2.c: 474: TIM2->CR1 |= TIM_CR1_OPM ;
                                    565 ; genPointerGet
      000128 C6 52 50         [ 1]  566 	ld	a, 0x5250
                                    567 ;	STM8L15x_StdPeriph_Driver/src/stm8l15x_tim2.c: 472: if (TIM2_OPMode == TIM2_OPMode_Single)
                                    568 ; genIfx
      00012B 0D 01            [ 1]  569 	tnz	(0x01, sp)
                                    570 ; peephole j5 changed absolute to relative unconditional jump.
      00012D 27 07            [ 1]  571 	jreq	00102$
                                    572 ; peephole j10 removed jra by using inverse jump logic
                                    573 ; peephole j30 removed unused label 00113$.
                                    574 ;	STM8L15x_StdPeriph_Driver/src/stm8l15x_tim2.c: 474: TIM2->CR1 |= TIM_CR1_OPM ;
                                    575 ; genOr
      00012F AA 08            [ 1]  576 	or	a, #0x08
                                    577 ; genPointerSet
      000131 C7 52 50         [ 1]  578 	ld	0x5250, a
                                    579 ; genGoto
      000134 20 05            [ 2]  580 	jra	00104$
                                    581 ; peephole j5 changed absolute to relative unconditional jump.
                                    582 ; genLabel
      000136                        583 00102$:
                                    584 ;	STM8L15x_StdPeriph_Driver/src/stm8l15x_tim2.c: 478: TIM2->CR1 &= (uint8_t)(~TIM_CR1_OPM);
                                    585 ; genAnd
      000136 A4 F7            [ 1]  586 	and	a, #0xf7
                                    587 ; genPointerSet
      000138 C7 52 50         [ 1]  588 	ld	0x5250, a
                                    589 ; genLabel
      00013B                        590 00104$:
                                    591 ;	STM8L15x_StdPeriph_Driver/src/stm8l15x_tim2.c: 480: }
                                    592 ; genEndFunction
      00013B 84               [ 1]  593 	pop	a
      00013C 81               [ 4]  594 	ret
                                    595 ;	Total TIM2_SelectOnePulseMode function size at codegen: 2 bytes.
                                    596 ;	STM8L15x_StdPeriph_Driver/src/stm8l15x_tim2.c: 488: void TIM2_Cmd(FunctionalState NewState)
                                    597 ; genLabel
                                    598 ;	-----------------------------------------
                                    599 ;	 function TIM2_Cmd
                                    600 ;	-----------------------------------------
                                    601 ;	Register assignment is optimal.
                                    602 ;	Stack space usage: 1 bytes.
      00013D                        603 _TIM2_Cmd:
      00013D 88               [ 1]  604 	push	a
                                    605 ; genReceive
      00013E 6B 01            [ 1]  606 	ld	(0x01, sp), a
                                    607 ;	STM8L15x_StdPeriph_Driver/src/stm8l15x_tim2.c: 496: TIM2->CR1 |= TIM_CR1_CEN;
                                    608 ; genPointerGet
      000140 C6 52 50         [ 1]  609 	ld	a, 0x5250
                                    610 ;	STM8L15x_StdPeriph_Driver/src/stm8l15x_tim2.c: 494: if (NewState != DISABLE)
                                    611 ; genIfx
      000143 0D 01            [ 1]  612 	tnz	(0x01, sp)
                                    613 ; peephole j5 changed absolute to relative unconditional jump.
      000145 27 07            [ 1]  614 	jreq	00102$
                                    615 ; peephole j10 removed jra by using inverse jump logic
                                    616 ; peephole j30 removed unused label 00113$.
                                    617 ;	STM8L15x_StdPeriph_Driver/src/stm8l15x_tim2.c: 496: TIM2->CR1 |= TIM_CR1_CEN;
                                    618 ; genOr
      000147 AA 01            [ 1]  619 	or	a, #0x01
                                    620 ; genPointerSet
      000149 C7 52 50         [ 1]  621 	ld	0x5250, a
                                    622 ; genGoto
      00014C 20 05            [ 2]  623 	jra	00104$
                                    624 ; peephole j5 changed absolute to relative unconditional jump.
                                    625 ; genLabel
      00014E                        626 00102$:
                                    627 ;	STM8L15x_StdPeriph_Driver/src/stm8l15x_tim2.c: 500: TIM2->CR1 &= (uint8_t)(~TIM_CR1_CEN);
                                    628 ; genAnd
      00014E A4 FE            [ 1]  629 	and	a, #0xfe
                                    630 ; genPointerSet
      000150 C7 52 50         [ 1]  631 	ld	0x5250, a
                                    632 ; genLabel
      000153                        633 00104$:
                                    634 ;	STM8L15x_StdPeriph_Driver/src/stm8l15x_tim2.c: 502: }
                                    635 ; genEndFunction
      000153 84               [ 1]  636 	pop	a
      000154 81               [ 4]  637 	ret
                                    638 ;	Total TIM2_Cmd function size at codegen: 2 bytes.
                                    639 ;	STM8L15x_StdPeriph_Driver/src/stm8l15x_tim2.c: 578: void TIM2_OC1Init(TIM2_OCMode_TypeDef TIM2_OCMode,
                                    640 ; genLabel
                                    641 ;	-----------------------------------------
                                    642 ;	 function TIM2_OC1Init
                                    643 ;	-----------------------------------------
                                    644 ;	Register assignment is optimal.
                                    645 ;	Stack space usage: 1 bytes.
      000155                        646 _TIM2_OC1Init:
      000155 88               [ 1]  647 	push	a
                                    648 ; genReceive
      000156 6B 01            [ 1]  649 	ld	(0x01, sp), a
                                    650 ;	STM8L15x_StdPeriph_Driver/src/stm8l15x_tim2.c: 592: tmpccmr1 = TIM2->CCMR1;
                                    651 ; genPointerGet
      000158 C6 52 59         [ 1]  652 	ld	a, 0x5259
      00015B 97               [ 1]  653 	ld	xl, a
                                    654 ;	STM8L15x_StdPeriph_Driver/src/stm8l15x_tim2.c: 595: TIM2->CCER1 &= (uint8_t)(~TIM_CCER1_CC1E);
                                    655 ; genPointerGet
                                    656 ; genAnd
                                    657 ; genPointerSet
      00015C 72 11 52 5B      [ 1]  658 	bres	0x525b, #0
                                    659 ; peephole 204x replaced 'and' by 'bres' ('0x525b').
                                    660 ;	STM8L15x_StdPeriph_Driver/src/stm8l15x_tim2.c: 597: tmpccmr1 &= (uint8_t)(~TIM_CCMR_OCM);
                                    661 ; genAnd
      000160 9F               [ 1]  662 	ld	a, xl
      000161 A4 8F            [ 1]  663 	and	a, #0x8f
                                    664 ;	STM8L15x_StdPeriph_Driver/src/stm8l15x_tim2.c: 600: tmpccmr1 |= (uint8_t)TIM2_OCMode;
                                    665 ; genOr
      000163 1A 01            [ 1]  666 	or	a, (0x01, sp)
                                    667 ;	STM8L15x_StdPeriph_Driver/src/stm8l15x_tim2.c: 602: TIM2->CCMR1 = tmpccmr1;
                                    668 ; genPointerSet
      000165 C7 52 59         [ 1]  669 	ld	0x5259, a
                                    670 ;	STM8L15x_StdPeriph_Driver/src/stm8l15x_tim2.c: 595: TIM2->CCER1 &= (uint8_t)(~TIM_CCER1_CC1E);
                                    671 ; genPointerGet
      000168 C6 52 5B         [ 1]  672 	ld	a, 0x525b
                                    673 ;	STM8L15x_StdPeriph_Driver/src/stm8l15x_tim2.c: 605: if (TIM2_OutputState == TIM2_OutputState_Enable)
                                    674 ; genIfx
      00016B 0D 04            [ 1]  675 	tnz	(0x04, sp)
                                    676 ; peephole j5 changed absolute to relative unconditional jump.
      00016D 27 07            [ 1]  677 	jreq	00102$
                                    678 ; peephole j10 removed jra by using inverse jump logic
                                    679 ; peephole j30 removed unused label 00133$.
                                    680 ;	STM8L15x_StdPeriph_Driver/src/stm8l15x_tim2.c: 607: TIM2->CCER1 |= TIM_CCER1_CC1E;
                                    681 ; genOr
      00016F AA 01            [ 1]  682 	or	a, #0x01
                                    683 ; genPointerSet
      000171 C7 52 5B         [ 1]  684 	ld	0x525b, a
                                    685 ; genGoto
      000174 20 05            [ 2]  686 	jra	00103$
                                    687 ; peephole j5 changed absolute to relative unconditional jump.
                                    688 ; genLabel
      000176                        689 00102$:
                                    690 ;	STM8L15x_StdPeriph_Driver/src/stm8l15x_tim2.c: 611: TIM2->CCER1 &= (uint8_t)(~TIM_CCER1_CC1E);
                                    691 ; genAnd
      000176 A4 FE            [ 1]  692 	and	a, #0xfe
                                    693 ; genPointerSet
      000178 C7 52 5B         [ 1]  694 	ld	0x525b, a
                                    695 ; genLabel
      00017B                        696 00103$:
                                    697 ;	STM8L15x_StdPeriph_Driver/src/stm8l15x_tim2.c: 595: TIM2->CCER1 &= (uint8_t)(~TIM_CCER1_CC1E);
                                    698 ; genPointerGet
      00017B C6 52 5B         [ 1]  699 	ld	a, 0x525b
                                    700 ;	STM8L15x_StdPeriph_Driver/src/stm8l15x_tim2.c: 615: if (TIM2_OCPolarity == TIM2_OCPolarity_Low)
                                    701 ; genIfx
      00017E 0D 07            [ 1]  702 	tnz	(0x07, sp)
                                    703 ; peephole j5 changed absolute to relative unconditional jump.
      000180 27 07            [ 1]  704 	jreq	00105$
                                    705 ; peephole j10 removed jra by using inverse jump logic
                                    706 ; peephole j30 removed unused label 00134$.
                                    707 ;	STM8L15x_StdPeriph_Driver/src/stm8l15x_tim2.c: 617: TIM2->CCER1 |= TIM_CCER1_CC1P;
                                    708 ; genOr
      000182 AA 02            [ 1]  709 	or	a, #0x02
                                    710 ; genPointerSet
      000184 C7 52 5B         [ 1]  711 	ld	0x525b, a
                                    712 ; genGoto
      000187 20 05            [ 2]  713 	jra	00106$
                                    714 ; peephole j5 changed absolute to relative unconditional jump.
                                    715 ; genLabel
      000189                        716 00105$:
                                    717 ;	STM8L15x_StdPeriph_Driver/src/stm8l15x_tim2.c: 621: TIM2->CCER1 &= (uint8_t)(~TIM_CCER1_CC1P);
                                    718 ; genAnd
      000189 A4 FD            [ 1]  719 	and	a, #0xfd
                                    720 ; genPointerSet
      00018B C7 52 5B         [ 1]  721 	ld	0x525b, a
                                    722 ; genLabel
      00018E                        723 00106$:
                                    724 ;	STM8L15x_StdPeriph_Driver/src/stm8l15x_tim2.c: 627: TIM2->OISR |= TIM_OISR_OIS1;
                                    725 ; genPointerGet
      00018E C6 52 66         [ 1]  726 	ld	a, 0x5266
                                    727 ;	STM8L15x_StdPeriph_Driver/src/stm8l15x_tim2.c: 625: if (TIM2_OCIdleState == TIM2_OCIdleState_Set)
                                    728 ; genIfx
      000191 0D 08            [ 1]  729 	tnz	(0x08, sp)
                                    730 ; peephole j5 changed absolute to relative unconditional jump.
      000193 27 07            [ 1]  731 	jreq	00108$
                                    732 ; peephole j10 removed jra by using inverse jump logic
                                    733 ; peephole j30 removed unused label 00135$.
                                    734 ;	STM8L15x_StdPeriph_Driver/src/stm8l15x_tim2.c: 627: TIM2->OISR |= TIM_OISR_OIS1;
                                    735 ; genOr
      000195 AA 01            [ 1]  736 	or	a, #0x01
                                    737 ; genPointerSet
      000197 C7 52 66         [ 1]  738 	ld	0x5266, a
                                    739 ; genGoto
      00019A 20 05            [ 2]  740 	jra	00109$
                                    741 ; peephole j5 changed absolute to relative unconditional jump.
                                    742 ; genLabel
      00019C                        743 00108$:
                                    744 ;	STM8L15x_StdPeriph_Driver/src/stm8l15x_tim2.c: 631: TIM2->OISR &= (uint8_t)(~TIM_OISR_OIS1);
                                    745 ; genAnd
      00019C A4 FE            [ 1]  746 	and	a, #0xfe
                                    747 ; genPointerSet
      00019E C7 52 66         [ 1]  748 	ld	0x5266, a
                                    749 ; genLabel
      0001A1                        750 00109$:
                                    751 ;	STM8L15x_StdPeriph_Driver/src/stm8l15x_tim2.c: 635: TIM2->CCR1H = (uint8_t)(TIM2_Pulse >> 8);
                                    752 ; genGetByte
      0001A1 7B 05            [ 1]  753 	ld	a, (0x05, sp)
                                    754 ; genPointerSet
      0001A3 C7 52 61         [ 1]  755 	ld	0x5261, a
                                    756 ;	STM8L15x_StdPeriph_Driver/src/stm8l15x_tim2.c: 636: TIM2->CCR1L = (uint8_t)(TIM2_Pulse);
                                    757 ; genCast
                                    758 ; genAssign
      0001A6 7B 06            [ 1]  759 	ld	a, (0x06, sp)
                                    760 ; genPointerSet
      0001A8 C7 52 62         [ 1]  761 	ld	0x5262, a
                                    762 ; genLabel
                                    763 ; peephole j30 removed unused label 00110$.
                                    764 ;	STM8L15x_StdPeriph_Driver/src/stm8l15x_tim2.c: 637: }
                                    765 ; genEndFunction
      0001AB 1E 02            [ 2]  766 	ldw	x, (2, sp)
      0001AD 5B 08            [ 2]  767 	addw	sp, #8
      0001AF FC               [ 2]  768 	jp	(x)
                                    769 ;	Total TIM2_OC1Init function size at codegen: 5 bytes.
                                    770 ;	STM8L15x_StdPeriph_Driver/src/stm8l15x_tim2.c: 664: void TIM2_OC2Init(TIM2_OCMode_TypeDef TIM2_OCMode,
                                    771 ; genLabel
                                    772 ;	-----------------------------------------
                                    773 ;	 function TIM2_OC2Init
                                    774 ;	-----------------------------------------
                                    775 ;	Register assignment is optimal.
                                    776 ;	Stack space usage: 1 bytes.
      0001B0                        777 _TIM2_OC2Init:
      0001B0 88               [ 1]  778 	push	a
                                    779 ; genReceive
      0001B1 6B 01            [ 1]  780 	ld	(0x01, sp), a
                                    781 ;	STM8L15x_StdPeriph_Driver/src/stm8l15x_tim2.c: 678: tmpccmr2 = TIM2->CCMR2;
                                    782 ; genPointerGet
      0001B3 C6 52 5A         [ 1]  783 	ld	a, 0x525a
      0001B6 97               [ 1]  784 	ld	xl, a
                                    785 ;	STM8L15x_StdPeriph_Driver/src/stm8l15x_tim2.c: 681: TIM2->CCER1 &= (uint8_t)(~TIM_CCER1_CC2E);
                                    786 ; genPointerGet
                                    787 ; genAnd
                                    788 ; genPointerSet
      0001B7 72 19 52 5B      [ 1]  789 	bres	0x525b, #4
                                    790 ; peephole 204x replaced 'and' by 'bres' ('0x525b').
                                    791 ;	STM8L15x_StdPeriph_Driver/src/stm8l15x_tim2.c: 684: tmpccmr2 &= (uint8_t)(~TIM_CCMR_OCM);
                                    792 ; genAnd
      0001BB 9F               [ 1]  793 	ld	a, xl
      0001BC A4 8F            [ 1]  794 	and	a, #0x8f
                                    795 ;	STM8L15x_StdPeriph_Driver/src/stm8l15x_tim2.c: 687: tmpccmr2 |= (uint8_t)TIM2_OCMode;
                                    796 ; genOr
      0001BE 1A 01            [ 1]  797 	or	a, (0x01, sp)
                                    798 ;	STM8L15x_StdPeriph_Driver/src/stm8l15x_tim2.c: 689: TIM2->CCMR2 = tmpccmr2;
                                    799 ; genPointerSet
      0001C0 C7 52 5A         [ 1]  800 	ld	0x525a, a
                                    801 ;	STM8L15x_StdPeriph_Driver/src/stm8l15x_tim2.c: 681: TIM2->CCER1 &= (uint8_t)(~TIM_CCER1_CC2E);
                                    802 ; genPointerGet
      0001C3 C6 52 5B         [ 1]  803 	ld	a, 0x525b
                                    804 ;	STM8L15x_StdPeriph_Driver/src/stm8l15x_tim2.c: 692: if (TIM2_OutputState == TIM2_OutputState_Enable)
                                    805 ; genIfx
      0001C6 0D 04            [ 1]  806 	tnz	(0x04, sp)
                                    807 ; peephole j5 changed absolute to relative unconditional jump.
      0001C8 27 07            [ 1]  808 	jreq	00102$
                                    809 ; peephole j10 removed jra by using inverse jump logic
                                    810 ; peephole j30 removed unused label 00133$.
                                    811 ;	STM8L15x_StdPeriph_Driver/src/stm8l15x_tim2.c: 694: TIM2->CCER1 |= TIM_CCER1_CC2E;
                                    812 ; genOr
      0001CA AA 10            [ 1]  813 	or	a, #0x10
                                    814 ; genPointerSet
      0001CC C7 52 5B         [ 1]  815 	ld	0x525b, a
                                    816 ; genGoto
      0001CF 20 05            [ 2]  817 	jra	00103$
                                    818 ; peephole j5 changed absolute to relative unconditional jump.
                                    819 ; genLabel
      0001D1                        820 00102$:
                                    821 ;	STM8L15x_StdPeriph_Driver/src/stm8l15x_tim2.c: 698: TIM2->CCER1 &= (uint8_t)(~TIM_CCER1_CC2E);
                                    822 ; genAnd
      0001D1 A4 EF            [ 1]  823 	and	a, #0xef
                                    824 ; genPointerSet
      0001D3 C7 52 5B         [ 1]  825 	ld	0x525b, a
                                    826 ; genLabel
      0001D6                        827 00103$:
                                    828 ;	STM8L15x_StdPeriph_Driver/src/stm8l15x_tim2.c: 681: TIM2->CCER1 &= (uint8_t)(~TIM_CCER1_CC2E);
                                    829 ; genPointerGet
      0001D6 C6 52 5B         [ 1]  830 	ld	a, 0x525b
                                    831 ;	STM8L15x_StdPeriph_Driver/src/stm8l15x_tim2.c: 702: if (TIM2_OCPolarity == TIM2_OCPolarity_Low)
                                    832 ; genIfx
      0001D9 0D 07            [ 1]  833 	tnz	(0x07, sp)
                                    834 ; peephole j5 changed absolute to relative unconditional jump.
      0001DB 27 07            [ 1]  835 	jreq	00105$
                                    836 ; peephole j10 removed jra by using inverse jump logic
                                    837 ; peephole j30 removed unused label 00134$.
                                    838 ;	STM8L15x_StdPeriph_Driver/src/stm8l15x_tim2.c: 704: TIM2->CCER1 |= TIM_CCER1_CC2P;
                                    839 ; genOr
      0001DD AA 20            [ 1]  840 	or	a, #0x20
                                    841 ; genPointerSet
      0001DF C7 52 5B         [ 1]  842 	ld	0x525b, a
                                    843 ; genGoto
      0001E2 20 05            [ 2]  844 	jra	00106$
                                    845 ; peephole j5 changed absolute to relative unconditional jump.
                                    846 ; genLabel
      0001E4                        847 00105$:
                                    848 ;	STM8L15x_StdPeriph_Driver/src/stm8l15x_tim2.c: 708: TIM2->CCER1 &= (uint8_t)(~TIM_CCER1_CC2P);
                                    849 ; genAnd
      0001E4 A4 DF            [ 1]  850 	and	a, #0xdf
                                    851 ; genPointerSet
      0001E6 C7 52 5B         [ 1]  852 	ld	0x525b, a
                                    853 ; genLabel
      0001E9                        854 00106$:
                                    855 ;	STM8L15x_StdPeriph_Driver/src/stm8l15x_tim2.c: 715: TIM2->OISR |= TIM_OISR_OIS2;
                                    856 ; genPointerGet
      0001E9 C6 52 66         [ 1]  857 	ld	a, 0x5266
                                    858 ;	STM8L15x_StdPeriph_Driver/src/stm8l15x_tim2.c: 713: if (TIM2_OCIdleState == TIM2_OCIdleState_Set)
                                    859 ; genIfx
      0001EC 0D 08            [ 1]  860 	tnz	(0x08, sp)
                                    861 ; peephole j5 changed absolute to relative unconditional jump.
      0001EE 27 07            [ 1]  862 	jreq	00108$
                                    863 ; peephole j10 removed jra by using inverse jump logic
                                    864 ; peephole j30 removed unused label 00135$.
                                    865 ;	STM8L15x_StdPeriph_Driver/src/stm8l15x_tim2.c: 715: TIM2->OISR |= TIM_OISR_OIS2;
                                    866 ; genOr
      0001F0 AA 04            [ 1]  867 	or	a, #0x04
                                    868 ; genPointerSet
      0001F2 C7 52 66         [ 1]  869 	ld	0x5266, a
                                    870 ; genGoto
      0001F5 20 05            [ 2]  871 	jra	00109$
                                    872 ; peephole j5 changed absolute to relative unconditional jump.
                                    873 ; genLabel
      0001F7                        874 00108$:
                                    875 ;	STM8L15x_StdPeriph_Driver/src/stm8l15x_tim2.c: 719: TIM2->OISR &= (uint8_t)(~TIM_OISR_OIS2);
                                    876 ; genAnd
      0001F7 A4 FB            [ 1]  877 	and	a, #0xfb
                                    878 ; genPointerSet
      0001F9 C7 52 66         [ 1]  879 	ld	0x5266, a
                                    880 ; genLabel
      0001FC                        881 00109$:
                                    882 ;	STM8L15x_StdPeriph_Driver/src/stm8l15x_tim2.c: 723: TIM2->CCR2H = (uint8_t)(TIM2_Pulse >> 8);
                                    883 ; genGetByte
      0001FC 7B 05            [ 1]  884 	ld	a, (0x05, sp)
                                    885 ; genPointerSet
      0001FE C7 52 63         [ 1]  886 	ld	0x5263, a
                                    887 ;	STM8L15x_StdPeriph_Driver/src/stm8l15x_tim2.c: 724: TIM2->CCR2L = (uint8_t)(TIM2_Pulse);
                                    888 ; genCast
                                    889 ; genAssign
      000201 7B 06            [ 1]  890 	ld	a, (0x06, sp)
                                    891 ; genPointerSet
      000203 C7 52 64         [ 1]  892 	ld	0x5264, a
                                    893 ; genLabel
                                    894 ; peephole j30 removed unused label 00110$.
                                    895 ;	STM8L15x_StdPeriph_Driver/src/stm8l15x_tim2.c: 725: }
                                    896 ; genEndFunction
      000206 1E 02            [ 2]  897 	ldw	x, (2, sp)
      000208 5B 08            [ 2]  898 	addw	sp, #8
      00020A FC               [ 2]  899 	jp	(x)
                                    900 ;	Total TIM2_OC2Init function size at codegen: 5 bytes.
                                    901 ;	STM8L15x_StdPeriph_Driver/src/stm8l15x_tim2.c: 754: void TIM2_BKRConfig(TIM2_OSSIState_TypeDef TIM2_OSSIState,
                                    902 ; genLabel
                                    903 ;	-----------------------------------------
                                    904 ;	 function TIM2_BKRConfig
                                    905 ;	-----------------------------------------
                                    906 ;	Register assignment is optimal.
                                    907 ;	Stack space usage: 1 bytes.
      00020B                        908 _TIM2_BKRConfig:
      00020B 88               [ 1]  909 	push	a
                                    910 ; genReceive
                                    911 ;	STM8L15x_StdPeriph_Driver/src/stm8l15x_tim2.c: 772: TIM2->BKR = (uint8_t)((uint8_t)((uint8_t)((uint8_t)((uint8_t)TIM2_OSSIState | (uint8_t)TIM2_LockLevel) | \
                                    912 ; genOr
      00020C 1A 04            [ 1]  913 	or	a, (0x04, sp)
      00020E 6B 01            [ 1]  914 	ld	(0x01, sp), a
                                    915 ; genOr
      000210 7B 05            [ 1]  916 	ld	a, (0x05, sp)
      000212 1A 06            [ 1]  917 	or	a, (0x06, sp)
                                    918 ; genOr
      000214 1A 01            [ 1]  919 	or	a, (0x01, sp)
                                    920 ; genOr
      000216 1A 07            [ 1]  921 	or	a, (0x07, sp)
                                    922 ; genPointerSet
      000218 C7 52 65         [ 1]  923 	ld	0x5265, a
                                    924 ; genLabel
                                    925 ; peephole j30 removed unused label 00101$.
                                    926 ;	STM8L15x_StdPeriph_Driver/src/stm8l15x_tim2.c: 775: }
                                    927 ; genEndFunction
      00021B 1E 02            [ 2]  928 	ldw	x, (2, sp)
      00021D 5B 07            [ 2]  929 	addw	sp, #7
      00021F FC               [ 2]  930 	jp	(x)
                                    931 ;	Total TIM2_BKRConfig function size at codegen: 5 bytes.
                                    932 ;	STM8L15x_StdPeriph_Driver/src/stm8l15x_tim2.c: 783: void TIM2_CtrlPWMOutputs(FunctionalState NewState)
                                    933 ; genLabel
                                    934 ;	-----------------------------------------
                                    935 ;	 function TIM2_CtrlPWMOutputs
                                    936 ;	-----------------------------------------
                                    937 ;	Register assignment is optimal.
                                    938 ;	Stack space usage: 1 bytes.
      000220                        939 _TIM2_CtrlPWMOutputs:
      000220 88               [ 1]  940 	push	a
                                    941 ; genReceive
      000221 6B 01            [ 1]  942 	ld	(0x01, sp), a
                                    943 ;	STM8L15x_StdPeriph_Driver/src/stm8l15x_tim2.c: 792: TIM2->BKR |= TIM_BKR_MOE ;
                                    944 ; genPointerGet
      000223 C6 52 65         [ 1]  945 	ld	a, 0x5265
                                    946 ;	STM8L15x_StdPeriph_Driver/src/stm8l15x_tim2.c: 790: if (NewState != DISABLE)
                                    947 ; genIfx
      000226 0D 01            [ 1]  948 	tnz	(0x01, sp)
                                    949 ; peephole j5 changed absolute to relative unconditional jump.
      000228 27 07            [ 1]  950 	jreq	00102$
                                    951 ; peephole j10 removed jra by using inverse jump logic
                                    952 ; peephole j30 removed unused label 00113$.
                                    953 ;	STM8L15x_StdPeriph_Driver/src/stm8l15x_tim2.c: 792: TIM2->BKR |= TIM_BKR_MOE ;
                                    954 ; genOr
      00022A AA 80            [ 1]  955 	or	a, #0x80
                                    956 ; genPointerSet
      00022C C7 52 65         [ 1]  957 	ld	0x5265, a
                                    958 ; genGoto
      00022F 20 05            [ 2]  959 	jra	00104$
                                    960 ; peephole j5 changed absolute to relative unconditional jump.
                                    961 ; genLabel
      000231                        962 00102$:
                                    963 ;	STM8L15x_StdPeriph_Driver/src/stm8l15x_tim2.c: 796: TIM2->BKR &= (uint8_t)(~TIM_BKR_MOE) ;
                                    964 ; genAnd
      000231 A4 7F            [ 1]  965 	and	a, #0x7f
                                    966 ; genPointerSet
      000233 C7 52 65         [ 1]  967 	ld	0x5265, a
                                    968 ; genLabel
      000236                        969 00104$:
                                    970 ;	STM8L15x_StdPeriph_Driver/src/stm8l15x_tim2.c: 798: }
                                    971 ; genEndFunction
      000236 84               [ 1]  972 	pop	a
      000237 81               [ 4]  973 	ret
                                    974 ;	Total TIM2_CtrlPWMOutputs function size at codegen: 2 bytes.
                                    975 ;	STM8L15x_StdPeriph_Driver/src/stm8l15x_tim2.c: 818: void TIM2_SelectOCxM(TIM2_Channel_TypeDef TIM2_Channel,
                                    976 ; genLabel
                                    977 ;	-----------------------------------------
                                    978 ;	 function TIM2_SelectOCxM
                                    979 ;	-----------------------------------------
                                    980 ;	Register assignment is optimal.
                                    981 ;	Stack space usage: 1 bytes.
      000238                        982 _TIM2_SelectOCxM:
      000238 88               [ 1]  983 	push	a
                                    984 ; genReceive
      000239 6B 01            [ 1]  985 	ld	(0x01, sp), a
                                    986 ;	STM8L15x_StdPeriph_Driver/src/stm8l15x_tim2.c: 828: TIM2->CCER1 &= (uint8_t)(~TIM_CCER1_CC1E);
                                    987 ; genPointerGet
      00023B C6 52 5B         [ 1]  988 	ld	a, 0x525b
                                    989 ;	STM8L15x_StdPeriph_Driver/src/stm8l15x_tim2.c: 825: if (TIM2_Channel == TIM2_Channel_1)
                                    990 ; genIfx
      00023E 0D 01            [ 1]  991 	tnz	(0x01, sp)
                                    992 ; peephole j5 changed absolute to relative unconditional jump.
      000240 26 17            [ 1]  993 	jrne	00102$
                                    994 ; peephole j7 removed jra by using inverse jump logic
                                    995 ; peephole j30 removed unused label 00113$.
                                    996 ;	STM8L15x_StdPeriph_Driver/src/stm8l15x_tim2.c: 828: TIM2->CCER1 &= (uint8_t)(~TIM_CCER1_CC1E);
                                    997 ; genAnd
      000242 A4 FE            [ 1]  998 	and	a, #0xfe
                                    999 ; genPointerSet
      000244 C7 52 5B         [ 1] 1000 	ld	0x525b, a
                                   1001 ;	STM8L15x_StdPeriph_Driver/src/stm8l15x_tim2.c: 831: TIM2->CCMR1 &= (uint8_t)(~TIM_CCMR_OCM);
                                   1002 ; genPointerGet
      000247 C6 52 59         [ 1] 1003 	ld	a, 0x5259
                                   1004 ; genAnd
      00024A A4 8F            [ 1] 1005 	and	a, #0x8f
                                   1006 ; genPointerSet
      00024C C7 52 59         [ 1] 1007 	ld	0x5259, a
                                   1008 ;	STM8L15x_StdPeriph_Driver/src/stm8l15x_tim2.c: 834: TIM2->CCMR1 |= (uint8_t)TIM2_OCMode;
                                   1009 ; genPointerGet
      00024F C6 52 59         [ 1] 1010 	ld	a, 0x5259
                                   1011 ; genOr
      000252 1A 04            [ 1] 1012 	or	a, (0x04, sp)
                                   1013 ; genPointerSet
      000254 C7 52 59         [ 1] 1014 	ld	0x5259, a
                                   1015 ; genGoto
      000257 20 15            [ 2] 1016 	jra	00104$
                                   1017 ; peephole j5 changed absolute to relative unconditional jump.
                                   1018 ; genLabel
      000259                       1019 00102$:
                                   1020 ;	STM8L15x_StdPeriph_Driver/src/stm8l15x_tim2.c: 839: TIM2->CCER1 &= (uint8_t)(~TIM_CCER1_CC2E);
                                   1021 ; genAnd
      000259 A4 EF            [ 1] 1022 	and	a, #0xef
                                   1023 ; genPointerSet
      00025B C7 52 5B         [ 1] 1024 	ld	0x525b, a
                                   1025 ;	STM8L15x_StdPeriph_Driver/src/stm8l15x_tim2.c: 842: TIM2->CCMR2 &= (uint8_t)(~TIM_CCMR_OCM);
                                   1026 ; genPointerGet
      00025E C6 52 5A         [ 1] 1027 	ld	a, 0x525a
                                   1028 ; genAnd
      000261 A4 8F            [ 1] 1029 	and	a, #0x8f
                                   1030 ; genPointerSet
      000263 C7 52 5A         [ 1] 1031 	ld	0x525a, a
                                   1032 ;	STM8L15x_StdPeriph_Driver/src/stm8l15x_tim2.c: 845: TIM2->CCMR2 |= (uint8_t)TIM2_OCMode;
                                   1033 ; genPointerGet
      000266 C6 52 5A         [ 1] 1034 	ld	a, 0x525a
                                   1035 ; genOr
      000269 1A 04            [ 1] 1036 	or	a, (0x04, sp)
                                   1037 ; genPointerSet
      00026B C7 52 5A         [ 1] 1038 	ld	0x525a, a
                                   1039 ; genLabel
      00026E                       1040 00104$:
                                   1041 ;	STM8L15x_StdPeriph_Driver/src/stm8l15x_tim2.c: 847: }
                                   1042 ; genEndFunction
      00026E 84               [ 1] 1043 	pop	a
      00026F 85               [ 2] 1044 	popw	x
      000270 84               [ 1] 1045 	pop	a
      000271 FC               [ 2] 1046 	jp	(x)
                                   1047 ;	Total TIM2_SelectOCxM function size at codegen: 4 bytes.
                                   1048 ;	STM8L15x_StdPeriph_Driver/src/stm8l15x_tim2.c: 855: void TIM2_SetCompare1(uint16_t Compare)
                                   1049 ; genLabel
                                   1050 ;	-----------------------------------------
                                   1051 ;	 function TIM2_SetCompare1
                                   1052 ;	-----------------------------------------
                                   1053 ;	Register assignment is optimal.
                                   1054 ;	Stack space usage: 0 bytes.
      000272                       1055 _TIM2_SetCompare1:
                                   1056 ; genReceive
                                   1057 ;	STM8L15x_StdPeriph_Driver/src/stm8l15x_tim2.c: 858: TIM2->CCR1H = (uint8_t)(Compare >> 8);
                                   1058 ; genGetByte
      000272 9E               [ 1] 1059 	ld	a, xh
                                   1060 ; genPointerSet
      000273 C7 52 61         [ 1] 1061 	ld	0x5261, a
                                   1062 ;	STM8L15x_StdPeriph_Driver/src/stm8l15x_tim2.c: 859: TIM2->CCR1L = (uint8_t)(Compare);
                                   1063 ; genCast
                                   1064 ; genAssign
      000276 9F               [ 1] 1065 	ld	a, xl
                                   1066 ; genPointerSet
      000277 C7 52 62         [ 1] 1067 	ld	0x5262, a
                                   1068 ; genLabel
                                   1069 ; peephole j30 removed unused label 00101$.
                                   1070 ;	STM8L15x_StdPeriph_Driver/src/stm8l15x_tim2.c: 860: }
                                   1071 ; genEndFunction
      00027A 81               [ 4] 1072 	ret
                                   1073 ;	Total TIM2_SetCompare1 function size at codegen: 1 bytes.
                                   1074 ;	STM8L15x_StdPeriph_Driver/src/stm8l15x_tim2.c: 868: void TIM2_SetCompare2(uint16_t Compare)
                                   1075 ; genLabel
                                   1076 ;	-----------------------------------------
                                   1077 ;	 function TIM2_SetCompare2
                                   1078 ;	-----------------------------------------
                                   1079 ;	Register assignment is optimal.
                                   1080 ;	Stack space usage: 0 bytes.
      00027B                       1081 _TIM2_SetCompare2:
                                   1082 ; genReceive
                                   1083 ;	STM8L15x_StdPeriph_Driver/src/stm8l15x_tim2.c: 871: TIM2->CCR2H = (uint8_t)(Compare >> 8);
                                   1084 ; genGetByte
      00027B 9E               [ 1] 1085 	ld	a, xh
                                   1086 ; genPointerSet
      00027C C7 52 63         [ 1] 1087 	ld	0x5263, a
                                   1088 ;	STM8L15x_StdPeriph_Driver/src/stm8l15x_tim2.c: 872: TIM2->CCR2L = (uint8_t)(Compare);
                                   1089 ; genCast
                                   1090 ; genAssign
      00027F 9F               [ 1] 1091 	ld	a, xl
                                   1092 ; genPointerSet
      000280 C7 52 64         [ 1] 1093 	ld	0x5264, a
                                   1094 ; genLabel
                                   1095 ; peephole j30 removed unused label 00101$.
                                   1096 ;	STM8L15x_StdPeriph_Driver/src/stm8l15x_tim2.c: 873: }
                                   1097 ; genEndFunction
      000283 81               [ 4] 1098 	ret
                                   1099 ;	Total TIM2_SetCompare2 function size at codegen: 1 bytes.
                                   1100 ;	STM8L15x_StdPeriph_Driver/src/stm8l15x_tim2.c: 883: void TIM2_ForcedOC1Config(TIM2_ForcedAction_TypeDef TIM2_ForcedAction)
                                   1101 ; genLabel
                                   1102 ;	-----------------------------------------
                                   1103 ;	 function TIM2_ForcedOC1Config
                                   1104 ;	-----------------------------------------
                                   1105 ;	Register assignment is optimal.
                                   1106 ;	Stack space usage: 1 bytes.
      000284                       1107 _TIM2_ForcedOC1Config:
      000284 88               [ 1] 1108 	push	a
                                   1109 ; genReceive
      000285 6B 01            [ 1] 1110 	ld	(0x01, sp), a
                                   1111 ;	STM8L15x_StdPeriph_Driver/src/stm8l15x_tim2.c: 890: tmpccmr1 = TIM2->CCMR1;
                                   1112 ; genPointerGet
      000287 C6 52 59         [ 1] 1113 	ld	a, 0x5259
                                   1114 ;	STM8L15x_StdPeriph_Driver/src/stm8l15x_tim2.c: 893: tmpccmr1 &= (uint8_t)(~TIM_CCMR_OCM);
                                   1115 ; genAnd
      00028A A4 8F            [ 1] 1116 	and	a, #0x8f
                                   1117 ;	STM8L15x_StdPeriph_Driver/src/stm8l15x_tim2.c: 896: tmpccmr1 |= (uint8_t)TIM2_ForcedAction;
                                   1118 ; genOr
      00028C 1A 01            [ 1] 1119 	or	a, (0x01, sp)
                                   1120 ;	STM8L15x_StdPeriph_Driver/src/stm8l15x_tim2.c: 898: TIM2->CCMR1 = tmpccmr1;
                                   1121 ; genPointerSet
      00028E C7 52 59         [ 1] 1122 	ld	0x5259, a
                                   1123 ; genLabel
                                   1124 ; peephole j30 removed unused label 00101$.
                                   1125 ;	STM8L15x_StdPeriph_Driver/src/stm8l15x_tim2.c: 899: }
                                   1126 ; genEndFunction
      000291 84               [ 1] 1127 	pop	a
      000292 81               [ 4] 1128 	ret
                                   1129 ;	Total TIM2_ForcedOC1Config function size at codegen: 2 bytes.
                                   1130 ;	STM8L15x_StdPeriph_Driver/src/stm8l15x_tim2.c: 909: void TIM2_ForcedOC2Config(TIM2_ForcedAction_TypeDef TIM2_ForcedAction)
                                   1131 ; genLabel
                                   1132 ;	-----------------------------------------
                                   1133 ;	 function TIM2_ForcedOC2Config
                                   1134 ;	-----------------------------------------
                                   1135 ;	Register assignment is optimal.
                                   1136 ;	Stack space usage: 1 bytes.
      000293                       1137 _TIM2_ForcedOC2Config:
      000293 88               [ 1] 1138 	push	a
                                   1139 ; genReceive
      000294 6B 01            [ 1] 1140 	ld	(0x01, sp), a
                                   1141 ;	STM8L15x_StdPeriph_Driver/src/stm8l15x_tim2.c: 916: tmpccmr2 = TIM2->CCMR2;
                                   1142 ; genPointerGet
      000296 C6 52 5A         [ 1] 1143 	ld	a, 0x525a
                                   1144 ;	STM8L15x_StdPeriph_Driver/src/stm8l15x_tim2.c: 919: tmpccmr2 &= (uint8_t)(~TIM_CCMR_OCM);
                                   1145 ; genAnd
      000299 A4 8F            [ 1] 1146 	and	a, #0x8f
                                   1147 ;	STM8L15x_StdPeriph_Driver/src/stm8l15x_tim2.c: 922: tmpccmr2 |= (uint8_t)TIM2_ForcedAction;
                                   1148 ; genOr
      00029B 1A 01            [ 1] 1149 	or	a, (0x01, sp)
                                   1150 ;	STM8L15x_StdPeriph_Driver/src/stm8l15x_tim2.c: 924: TIM2->CCMR2 = tmpccmr2;
                                   1151 ; genPointerSet
      00029D C7 52 5A         [ 1] 1152 	ld	0x525a, a
                                   1153 ; genLabel
                                   1154 ; peephole j30 removed unused label 00101$.
                                   1155 ;	STM8L15x_StdPeriph_Driver/src/stm8l15x_tim2.c: 925: }
                                   1156 ; genEndFunction
      0002A0 84               [ 1] 1157 	pop	a
      0002A1 81               [ 4] 1158 	ret
                                   1159 ;	Total TIM2_ForcedOC2Config function size at codegen: 2 bytes.
                                   1160 ;	STM8L15x_StdPeriph_Driver/src/stm8l15x_tim2.c: 933: void TIM2_OC1PreloadConfig(FunctionalState NewState)
                                   1161 ; genLabel
                                   1162 ;	-----------------------------------------
                                   1163 ;	 function TIM2_OC1PreloadConfig
                                   1164 ;	-----------------------------------------
                                   1165 ;	Register assignment is optimal.
                                   1166 ;	Stack space usage: 1 bytes.
      0002A2                       1167 _TIM2_OC1PreloadConfig:
      0002A2 88               [ 1] 1168 	push	a
                                   1169 ; genReceive
      0002A3 6B 01            [ 1] 1170 	ld	(0x01, sp), a
                                   1171 ;	STM8L15x_StdPeriph_Driver/src/stm8l15x_tim2.c: 941: TIM2->CCMR1 |= TIM_CCMR_OCxPE ;
                                   1172 ; genPointerGet
      0002A5 C6 52 59         [ 1] 1173 	ld	a, 0x5259
                                   1174 ;	STM8L15x_StdPeriph_Driver/src/stm8l15x_tim2.c: 939: if (NewState != DISABLE)
                                   1175 ; genIfx
      0002A8 0D 01            [ 1] 1176 	tnz	(0x01, sp)
                                   1177 ; peephole j5 changed absolute to relative unconditional jump.
      0002AA 27 07            [ 1] 1178 	jreq	00102$
                                   1179 ; peephole j10 removed jra by using inverse jump logic
                                   1180 ; peephole j30 removed unused label 00113$.
                                   1181 ;	STM8L15x_StdPeriph_Driver/src/stm8l15x_tim2.c: 941: TIM2->CCMR1 |= TIM_CCMR_OCxPE ;
                                   1182 ; genOr
      0002AC AA 08            [ 1] 1183 	or	a, #0x08
                                   1184 ; genPointerSet
      0002AE C7 52 59         [ 1] 1185 	ld	0x5259, a
                                   1186 ; genGoto
      0002B1 20 05            [ 2] 1187 	jra	00104$
                                   1188 ; peephole j5 changed absolute to relative unconditional jump.
                                   1189 ; genLabel
      0002B3                       1190 00102$:
                                   1191 ;	STM8L15x_StdPeriph_Driver/src/stm8l15x_tim2.c: 945: TIM2->CCMR1 &= (uint8_t)(~TIM_CCMR_OCxPE) ;
                                   1192 ; genAnd
      0002B3 A4 F7            [ 1] 1193 	and	a, #0xf7
                                   1194 ; genPointerSet
      0002B5 C7 52 59         [ 1] 1195 	ld	0x5259, a
                                   1196 ; genLabel
      0002B8                       1197 00104$:
                                   1198 ;	STM8L15x_StdPeriph_Driver/src/stm8l15x_tim2.c: 947: }
                                   1199 ; genEndFunction
      0002B8 84               [ 1] 1200 	pop	a
      0002B9 81               [ 4] 1201 	ret
                                   1202 ;	Total TIM2_OC1PreloadConfig function size at codegen: 2 bytes.
                                   1203 ;	STM8L15x_StdPeriph_Driver/src/stm8l15x_tim2.c: 955: void TIM2_OC2PreloadConfig(FunctionalState NewState)
                                   1204 ; genLabel
                                   1205 ;	-----------------------------------------
                                   1206 ;	 function TIM2_OC2PreloadConfig
                                   1207 ;	-----------------------------------------
                                   1208 ;	Register assignment is optimal.
                                   1209 ;	Stack space usage: 1 bytes.
      0002BA                       1210 _TIM2_OC2PreloadConfig:
      0002BA 88               [ 1] 1211 	push	a
                                   1212 ; genReceive
      0002BB 6B 01            [ 1] 1213 	ld	(0x01, sp), a
                                   1214 ;	STM8L15x_StdPeriph_Driver/src/stm8l15x_tim2.c: 963: TIM2->CCMR2 |= TIM_CCMR_OCxPE ;
                                   1215 ; genPointerGet
      0002BD C6 52 5A         [ 1] 1216 	ld	a, 0x525a
                                   1217 ;	STM8L15x_StdPeriph_Driver/src/stm8l15x_tim2.c: 961: if (NewState != DISABLE)
                                   1218 ; genIfx
      0002C0 0D 01            [ 1] 1219 	tnz	(0x01, sp)
                                   1220 ; peephole j5 changed absolute to relative unconditional jump.
      0002C2 27 07            [ 1] 1221 	jreq	00102$
                                   1222 ; peephole j10 removed jra by using inverse jump logic
                                   1223 ; peephole j30 removed unused label 00113$.
                                   1224 ;	STM8L15x_StdPeriph_Driver/src/stm8l15x_tim2.c: 963: TIM2->CCMR2 |= TIM_CCMR_OCxPE ;
                                   1225 ; genOr
      0002C4 AA 08            [ 1] 1226 	or	a, #0x08
                                   1227 ; genPointerSet
      0002C6 C7 52 5A         [ 1] 1228 	ld	0x525a, a
                                   1229 ; genGoto
      0002C9 20 05            [ 2] 1230 	jra	00104$
                                   1231 ; peephole j5 changed absolute to relative unconditional jump.
                                   1232 ; genLabel
      0002CB                       1233 00102$:
                                   1234 ;	STM8L15x_StdPeriph_Driver/src/stm8l15x_tim2.c: 967: TIM2->CCMR2 &= (uint8_t)(~TIM_CCMR_OCxPE) ;
                                   1235 ; genAnd
      0002CB A4 F7            [ 1] 1236 	and	a, #0xf7
                                   1237 ; genPointerSet
      0002CD C7 52 5A         [ 1] 1238 	ld	0x525a, a
                                   1239 ; genLabel
      0002D0                       1240 00104$:
                                   1241 ;	STM8L15x_StdPeriph_Driver/src/stm8l15x_tim2.c: 969: }
                                   1242 ; genEndFunction
      0002D0 84               [ 1] 1243 	pop	a
      0002D1 81               [ 4] 1244 	ret
                                   1245 ;	Total TIM2_OC2PreloadConfig function size at codegen: 2 bytes.
                                   1246 ;	STM8L15x_StdPeriph_Driver/src/stm8l15x_tim2.c: 977: void TIM2_OC1FastConfig(FunctionalState NewState)
                                   1247 ; genLabel
                                   1248 ;	-----------------------------------------
                                   1249 ;	 function TIM2_OC1FastConfig
                                   1250 ;	-----------------------------------------
                                   1251 ;	Register assignment is optimal.
                                   1252 ;	Stack space usage: 1 bytes.
      0002D2                       1253 _TIM2_OC1FastConfig:
      0002D2 88               [ 1] 1254 	push	a
                                   1255 ; genReceive
      0002D3 6B 01            [ 1] 1256 	ld	(0x01, sp), a
                                   1257 ;	STM8L15x_StdPeriph_Driver/src/stm8l15x_tim2.c: 985: TIM2->CCMR1 |= TIM_CCMR_OCxFE ;
                                   1258 ; genPointerGet
      0002D5 C6 52 59         [ 1] 1259 	ld	a, 0x5259
                                   1260 ;	STM8L15x_StdPeriph_Driver/src/stm8l15x_tim2.c: 983: if (NewState != DISABLE)
                                   1261 ; genIfx
      0002D8 0D 01            [ 1] 1262 	tnz	(0x01, sp)
                                   1263 ; peephole j5 changed absolute to relative unconditional jump.
      0002DA 27 07            [ 1] 1264 	jreq	00102$
                                   1265 ; peephole j10 removed jra by using inverse jump logic
                                   1266 ; peephole j30 removed unused label 00113$.
                                   1267 ;	STM8L15x_StdPeriph_Driver/src/stm8l15x_tim2.c: 985: TIM2->CCMR1 |= TIM_CCMR_OCxFE ;
                                   1268 ; genOr
      0002DC AA 04            [ 1] 1269 	or	a, #0x04
                                   1270 ; genPointerSet
      0002DE C7 52 59         [ 1] 1271 	ld	0x5259, a
                                   1272 ; genGoto
      0002E1 20 05            [ 2] 1273 	jra	00104$
                                   1274 ; peephole j5 changed absolute to relative unconditional jump.
                                   1275 ; genLabel
      0002E3                       1276 00102$:
                                   1277 ;	STM8L15x_StdPeriph_Driver/src/stm8l15x_tim2.c: 989: TIM2->CCMR1 &= (uint8_t)(~TIM_CCMR_OCxFE) ;
                                   1278 ; genAnd
      0002E3 A4 FB            [ 1] 1279 	and	a, #0xfb
                                   1280 ; genPointerSet
      0002E5 C7 52 59         [ 1] 1281 	ld	0x5259, a
                                   1282 ; genLabel
      0002E8                       1283 00104$:
                                   1284 ;	STM8L15x_StdPeriph_Driver/src/stm8l15x_tim2.c: 991: }
                                   1285 ; genEndFunction
      0002E8 84               [ 1] 1286 	pop	a
      0002E9 81               [ 4] 1287 	ret
                                   1288 ;	Total TIM2_OC1FastConfig function size at codegen: 2 bytes.
                                   1289 ;	STM8L15x_StdPeriph_Driver/src/stm8l15x_tim2.c: 1000: void TIM2_OC2FastConfig(FunctionalState NewState)
                                   1290 ; genLabel
                                   1291 ;	-----------------------------------------
                                   1292 ;	 function TIM2_OC2FastConfig
                                   1293 ;	-----------------------------------------
                                   1294 ;	Register assignment is optimal.
                                   1295 ;	Stack space usage: 1 bytes.
      0002EA                       1296 _TIM2_OC2FastConfig:
      0002EA 88               [ 1] 1297 	push	a
                                   1298 ; genReceive
      0002EB 6B 01            [ 1] 1299 	ld	(0x01, sp), a
                                   1300 ;	STM8L15x_StdPeriph_Driver/src/stm8l15x_tim2.c: 1008: TIM2->CCMR2 |= TIM_CCMR_OCxFE ;
                                   1301 ; genPointerGet
      0002ED C6 52 5A         [ 1] 1302 	ld	a, 0x525a
                                   1303 ;	STM8L15x_StdPeriph_Driver/src/stm8l15x_tim2.c: 1006: if (NewState != DISABLE)
                                   1304 ; genIfx
      0002F0 0D 01            [ 1] 1305 	tnz	(0x01, sp)
                                   1306 ; peephole j5 changed absolute to relative unconditional jump.
      0002F2 27 07            [ 1] 1307 	jreq	00102$
                                   1308 ; peephole j10 removed jra by using inverse jump logic
                                   1309 ; peephole j30 removed unused label 00113$.
                                   1310 ;	STM8L15x_StdPeriph_Driver/src/stm8l15x_tim2.c: 1008: TIM2->CCMR2 |= TIM_CCMR_OCxFE ;
                                   1311 ; genOr
      0002F4 AA 04            [ 1] 1312 	or	a, #0x04
                                   1313 ; genPointerSet
      0002F6 C7 52 5A         [ 1] 1314 	ld	0x525a, a
                                   1315 ; genGoto
      0002F9 20 05            [ 2] 1316 	jra	00104$
                                   1317 ; peephole j5 changed absolute to relative unconditional jump.
                                   1318 ; genLabel
      0002FB                       1319 00102$:
                                   1320 ;	STM8L15x_StdPeriph_Driver/src/stm8l15x_tim2.c: 1012: TIM2->CCMR2 &= (uint8_t)(~TIM_CCMR_OCxFE) ;
                                   1321 ; genAnd
      0002FB A4 FB            [ 1] 1322 	and	a, #0xfb
                                   1323 ; genPointerSet
      0002FD C7 52 5A         [ 1] 1324 	ld	0x525a, a
                                   1325 ; genLabel
      000300                       1326 00104$:
                                   1327 ;	STM8L15x_StdPeriph_Driver/src/stm8l15x_tim2.c: 1014: }
                                   1328 ; genEndFunction
      000300 84               [ 1] 1329 	pop	a
      000301 81               [ 4] 1330 	ret
                                   1331 ;	Total TIM2_OC2FastConfig function size at codegen: 2 bytes.
                                   1332 ;	STM8L15x_StdPeriph_Driver/src/stm8l15x_tim2.c: 1024: void TIM2_OC1PolarityConfig(TIM2_OCPolarity_TypeDef TIM2_OCPolarity)
                                   1333 ; genLabel
                                   1334 ;	-----------------------------------------
                                   1335 ;	 function TIM2_OC1PolarityConfig
                                   1336 ;	-----------------------------------------
                                   1337 ;	Register assignment is optimal.
                                   1338 ;	Stack space usage: 1 bytes.
      000302                       1339 _TIM2_OC1PolarityConfig:
      000302 88               [ 1] 1340 	push	a
                                   1341 ; genReceive
      000303 6B 01            [ 1] 1342 	ld	(0x01, sp), a
                                   1343 ;	STM8L15x_StdPeriph_Driver/src/stm8l15x_tim2.c: 1032: TIM2->CCER1 |= TIM_CCER1_CC1P ;
                                   1344 ; genPointerGet
      000305 C6 52 5B         [ 1] 1345 	ld	a, 0x525b
                                   1346 ;	STM8L15x_StdPeriph_Driver/src/stm8l15x_tim2.c: 1030: if (TIM2_OCPolarity == TIM2_OCPolarity_Low)
                                   1347 ; genIfx
      000308 0D 01            [ 1] 1348 	tnz	(0x01, sp)
                                   1349 ; peephole j5 changed absolute to relative unconditional jump.
      00030A 27 07            [ 1] 1350 	jreq	00102$
                                   1351 ; peephole j10 removed jra by using inverse jump logic
                                   1352 ; peephole j30 removed unused label 00113$.
                                   1353 ;	STM8L15x_StdPeriph_Driver/src/stm8l15x_tim2.c: 1032: TIM2->CCER1 |= TIM_CCER1_CC1P ;
                                   1354 ; genOr
      00030C AA 02            [ 1] 1355 	or	a, #0x02
                                   1356 ; genPointerSet
      00030E C7 52 5B         [ 1] 1357 	ld	0x525b, a
                                   1358 ; genGoto
      000311 20 05            [ 2] 1359 	jra	00104$
                                   1360 ; peephole j5 changed absolute to relative unconditional jump.
                                   1361 ; genLabel
      000313                       1362 00102$:
                                   1363 ;	STM8L15x_StdPeriph_Driver/src/stm8l15x_tim2.c: 1036: TIM2->CCER1 &= (uint8_t)(~TIM_CCER1_CC1P) ;
                                   1364 ; genAnd
      000313 A4 FD            [ 1] 1365 	and	a, #0xfd
                                   1366 ; genPointerSet
      000315 C7 52 5B         [ 1] 1367 	ld	0x525b, a
                                   1368 ; genLabel
      000318                       1369 00104$:
                                   1370 ;	STM8L15x_StdPeriph_Driver/src/stm8l15x_tim2.c: 1038: }
                                   1371 ; genEndFunction
      000318 84               [ 1] 1372 	pop	a
      000319 81               [ 4] 1373 	ret
                                   1374 ;	Total TIM2_OC1PolarityConfig function size at codegen: 2 bytes.
                                   1375 ;	STM8L15x_StdPeriph_Driver/src/stm8l15x_tim2.c: 1048: void TIM2_OC2PolarityConfig(TIM2_OCPolarity_TypeDef TIM2_OCPolarity)
                                   1376 ; genLabel
                                   1377 ;	-----------------------------------------
                                   1378 ;	 function TIM2_OC2PolarityConfig
                                   1379 ;	-----------------------------------------
                                   1380 ;	Register assignment is optimal.
                                   1381 ;	Stack space usage: 1 bytes.
      00031A                       1382 _TIM2_OC2PolarityConfig:
      00031A 88               [ 1] 1383 	push	a
                                   1384 ; genReceive
      00031B 6B 01            [ 1] 1385 	ld	(0x01, sp), a
                                   1386 ;	STM8L15x_StdPeriph_Driver/src/stm8l15x_tim2.c: 1056: TIM2->CCER1 |= TIM_CCER1_CC2P ;
                                   1387 ; genPointerGet
      00031D C6 52 5B         [ 1] 1388 	ld	a, 0x525b
                                   1389 ;	STM8L15x_StdPeriph_Driver/src/stm8l15x_tim2.c: 1054: if (TIM2_OCPolarity == TIM2_OCPolarity_Low)
                                   1390 ; genIfx
      000320 0D 01            [ 1] 1391 	tnz	(0x01, sp)
                                   1392 ; peephole j5 changed absolute to relative unconditional jump.
      000322 27 07            [ 1] 1393 	jreq	00102$
                                   1394 ; peephole j10 removed jra by using inverse jump logic
                                   1395 ; peephole j30 removed unused label 00113$.
                                   1396 ;	STM8L15x_StdPeriph_Driver/src/stm8l15x_tim2.c: 1056: TIM2->CCER1 |= TIM_CCER1_CC2P ;
                                   1397 ; genOr
      000324 AA 20            [ 1] 1398 	or	a, #0x20
                                   1399 ; genPointerSet
      000326 C7 52 5B         [ 1] 1400 	ld	0x525b, a
                                   1401 ; genGoto
      000329 20 05            [ 2] 1402 	jra	00104$
                                   1403 ; peephole j5 changed absolute to relative unconditional jump.
                                   1404 ; genLabel
      00032B                       1405 00102$:
                                   1406 ;	STM8L15x_StdPeriph_Driver/src/stm8l15x_tim2.c: 1060: TIM2->CCER1 &= (uint8_t)(~TIM_CCER1_CC2P) ;
                                   1407 ; genAnd
      00032B A4 DF            [ 1] 1408 	and	a, #0xdf
                                   1409 ; genPointerSet
      00032D C7 52 5B         [ 1] 1410 	ld	0x525b, a
                                   1411 ; genLabel
      000330                       1412 00104$:
                                   1413 ;	STM8L15x_StdPeriph_Driver/src/stm8l15x_tim2.c: 1062: }
                                   1414 ; genEndFunction
      000330 84               [ 1] 1415 	pop	a
      000331 81               [ 4] 1416 	ret
                                   1417 ;	Total TIM2_OC2PolarityConfig function size at codegen: 2 bytes.
                                   1418 ;	STM8L15x_StdPeriph_Driver/src/stm8l15x_tim2.c: 1074: void TIM2_CCxCmd(TIM2_Channel_TypeDef TIM2_Channel,
                                   1419 ; genLabel
                                   1420 ;	-----------------------------------------
                                   1421 ;	 function TIM2_CCxCmd
                                   1422 ;	-----------------------------------------
                                   1423 ;	Register assignment is optimal.
                                   1424 ;	Stack space usage: 1 bytes.
      000332                       1425 _TIM2_CCxCmd:
      000332 88               [ 1] 1426 	push	a
                                   1427 ; genReceive
      000333 6B 01            [ 1] 1428 	ld	(0x01, sp), a
                                   1429 ;	STM8L15x_StdPeriph_Driver/src/stm8l15x_tim2.c: 1086: TIM2->CCER1 |= TIM_CCER1_CC1E ;
                                   1430 ; genPointerGet
      000335 C6 52 5B         [ 1] 1431 	ld	a, 0x525b
                                   1432 ;	STM8L15x_StdPeriph_Driver/src/stm8l15x_tim2.c: 1081: if (TIM2_Channel == TIM2_Channel_1)
                                   1433 ; genIfx
      000338 0D 01            [ 1] 1434 	tnz	(0x01, sp)
                                   1435 ; peephole j5 changed absolute to relative unconditional jump.
      00033A 26 12            [ 1] 1436 	jrne	00108$
                                   1437 ; peephole j7 removed jra by using inverse jump logic
                                   1438 ; peephole j30 removed unused label 00133$.
                                   1439 ;	STM8L15x_StdPeriph_Driver/src/stm8l15x_tim2.c: 1084: if (NewState != DISABLE)
                                   1440 ; genIfx
      00033C 0D 04            [ 1] 1441 	tnz	(0x04, sp)
                                   1442 ; peephole j5 changed absolute to relative unconditional jump.
      00033E 27 07            [ 1] 1443 	jreq	00102$
                                   1444 ; peephole j10 removed jra by using inverse jump logic
                                   1445 ; peephole j30 removed unused label 00134$.
                                   1446 ;	STM8L15x_StdPeriph_Driver/src/stm8l15x_tim2.c: 1086: TIM2->CCER1 |= TIM_CCER1_CC1E ;
                                   1447 ; genOr
      000340 AA 01            [ 1] 1448 	or	a, #0x01
                                   1449 ; genPointerSet
      000342 C7 52 5B         [ 1] 1450 	ld	0x525b, a
                                   1451 ; genGoto
      000345 20 17            [ 2] 1452 	jra	00110$
                                   1453 ; peephole j5 changed absolute to relative unconditional jump.
                                   1454 ; genLabel
      000347                       1455 00102$:
                                   1456 ;	STM8L15x_StdPeriph_Driver/src/stm8l15x_tim2.c: 1090: TIM2->CCER1 &= (uint8_t)(~TIM_CCER1_CC1E) ;
                                   1457 ; genAnd
      000347 A4 FE            [ 1] 1458 	and	a, #0xfe
                                   1459 ; genPointerSet
      000349 C7 52 5B         [ 1] 1460 	ld	0x525b, a
                                   1461 ; genGoto
      00034C 20 10            [ 2] 1462 	jra	00110$
                                   1463 ; peephole j5 changed absolute to relative unconditional jump.
                                   1464 ; genLabel
      00034E                       1465 00108$:
                                   1466 ;	STM8L15x_StdPeriph_Driver/src/stm8l15x_tim2.c: 1097: if (NewState != DISABLE)
                                   1467 ; genIfx
      00034E 0D 04            [ 1] 1468 	tnz	(0x04, sp)
                                   1469 ; peephole j5 changed absolute to relative unconditional jump.
      000350 27 07            [ 1] 1470 	jreq	00105$
                                   1471 ; peephole j10 removed jra by using inverse jump logic
                                   1472 ; peephole j30 removed unused label 00135$.
                                   1473 ;	STM8L15x_StdPeriph_Driver/src/stm8l15x_tim2.c: 1099: TIM2->CCER1 |= TIM_CCER1_CC2E;
                                   1474 ; genOr
      000352 AA 10            [ 1] 1475 	or	a, #0x10
                                   1476 ; genPointerSet
      000354 C7 52 5B         [ 1] 1477 	ld	0x525b, a
                                   1478 ; genGoto
      000357 20 05            [ 2] 1479 	jra	00110$
                                   1480 ; peephole j5 changed absolute to relative unconditional jump.
                                   1481 ; genLabel
      000359                       1482 00105$:
                                   1483 ;	STM8L15x_StdPeriph_Driver/src/stm8l15x_tim2.c: 1103: TIM2->CCER1 &= (uint8_t)(~TIM_CCER1_CC2E) ;
                                   1484 ; genAnd
      000359 A4 EF            [ 1] 1485 	and	a, #0xef
                                   1486 ; genPointerSet
      00035B C7 52 5B         [ 1] 1487 	ld	0x525b, a
                                   1488 ; genLabel
      00035E                       1489 00110$:
                                   1490 ;	STM8L15x_StdPeriph_Driver/src/stm8l15x_tim2.c: 1106: }
                                   1491 ; genEndFunction
      00035E 84               [ 1] 1492 	pop	a
      00035F 85               [ 2] 1493 	popw	x
      000360 84               [ 1] 1494 	pop	a
      000361 FC               [ 2] 1495 	jp	(x)
                                   1496 ;	Total TIM2_CCxCmd function size at codegen: 4 bytes.
                                   1497 ;	STM8L15x_StdPeriph_Driver/src/stm8l15x_tim2.c: 1184: void TIM2_ICInit(TIM2_Channel_TypeDef TIM2_Channel,
                                   1498 ; genLabel
                                   1499 ;	-----------------------------------------
                                   1500 ;	 function TIM2_ICInit
                                   1501 ;	-----------------------------------------
                                   1502 ;	Register assignment is optimal.
                                   1503 ;	Stack space usage: 0 bytes.
      000362                       1504 _TIM2_ICInit:
                                   1505 ; genReceive
                                   1506 ;	STM8L15x_StdPeriph_Driver/src/stm8l15x_tim2.c: 1193: if (TIM2_Channel == TIM2_Channel_1)
                                   1507 ; genIfx
      000362 4D               [ 1] 1508 	tnz	a
                                   1509 ; peephole j5 changed absolute to relative unconditional jump.
      000363 26 12            [ 1] 1510 	jrne	00102$
                                   1511 ; peephole j7 removed jra by using inverse jump logic
                                   1512 ; peephole j30 removed unused label 00113$.
                                   1513 ;	STM8L15x_StdPeriph_Driver/src/stm8l15x_tim2.c: 1196: TI1_Config(TIM2_ICPolarity, TIM2_ICSelection, TIM2_ICFilter);
                                   1514 ; genIPush
      000365 7B 06            [ 1] 1515 	ld	a, (0x06, sp)
      000367 88               [ 1] 1516 	push	a
                                   1517 ; genIPush
      000368 7B 05            [ 1] 1518 	ld	a, (0x05, sp)
      00036A 88               [ 1] 1519 	push	a
                                   1520 ; genSend
      00036B 7B 05            [ 1] 1521 	ld	a, (0x05, sp)
                                   1522 ; genCall
      00036D CDr06r35         [ 4] 1523 	call	_TI1_Config
                                   1524 ;	STM8L15x_StdPeriph_Driver/src/stm8l15x_tim2.c: 1199: TIM2_SetIC1Prescaler(TIM2_ICPrescaler);
                                   1525 ; genSend
      000370 7B 05            [ 1] 1526 	ld	a, (0x05, sp)
                                   1527 ; genCall
      000372 CDr04r15         [ 4] 1528 	call	_TIM2_SetIC1Prescaler
                                   1529 ; genGoto
      000375 20 10            [ 2] 1530 	jra	00104$
                                   1531 ; peephole j5 changed absolute to relative unconditional jump.
                                   1532 ; genLabel
      000377                       1533 00102$:
                                   1534 ;	STM8L15x_StdPeriph_Driver/src/stm8l15x_tim2.c: 1204: TI2_Config(TIM2_ICPolarity, TIM2_ICSelection, TIM2_ICFilter);
                                   1535 ; genIPush
      000377 7B 06            [ 1] 1536 	ld	a, (0x06, sp)
      000379 88               [ 1] 1537 	push	a
                                   1538 ; genIPush
      00037A 7B 05            [ 1] 1539 	ld	a, (0x05, sp)
      00037C 88               [ 1] 1540 	push	a
                                   1541 ; genSend
      00037D 7B 05            [ 1] 1542 	ld	a, (0x05, sp)
                                   1543 ; genCall
      00037F CDr06r72         [ 4] 1544 	call	_TI2_Config
                                   1545 ;	STM8L15x_StdPeriph_Driver/src/stm8l15x_tim2.c: 1207: TIM2_SetIC2Prescaler(TIM2_ICPrescaler);
                                   1546 ; genSend
      000382 7B 05            [ 1] 1547 	ld	a, (0x05, sp)
                                   1548 ; genCall
      000384 CDr04r24         [ 4] 1549 	call	_TIM2_SetIC2Prescaler
                                   1550 ; genLabel
      000387                       1551 00104$:
                                   1552 ;	STM8L15x_StdPeriph_Driver/src/stm8l15x_tim2.c: 1209: }
                                   1553 ; genEndFunction
      000387 1E 01            [ 2] 1554 	ldw	x, (1, sp)
      000389 5B 06            [ 2] 1555 	addw	sp, #6
      00038B FC               [ 2] 1556 	jp	(x)
                                   1557 ;	Total TIM2_ICInit function size at codegen: 5 bytes.
                                   1558 ;	STM8L15x_StdPeriph_Driver/src/stm8l15x_tim2.c: 1235: void TIM2_PWMIConfig(TIM2_Channel_TypeDef TIM2_Channel,
                                   1559 ; genLabel
                                   1560 ;	-----------------------------------------
                                   1561 ;	 function TIM2_PWMIConfig
                                   1562 ;	-----------------------------------------
                                   1563 ;	Register assignment is optimal.
                                   1564 ;	Stack space usage: 2 bytes.
      00038C                       1565 _TIM2_PWMIConfig:
      00038C 89               [ 2] 1566 	pushw	x
                                   1567 ; genReceive
      00038D 97               [ 1] 1568 	ld	xl, a
                                   1569 ;	STM8L15x_StdPeriph_Driver/src/stm8l15x_tim2.c: 1248: if (TIM2_ICPolarity == TIM2_ICPolarity_Rising)
                                   1570 ; genIfx
      00038E 0D 05            [ 1] 1571 	tnz	(0x05, sp)
                                   1572 ; peephole j5 changed absolute to relative unconditional jump.
      000390 26 05            [ 1] 1573 	jrne	00102$
                                   1574 ; peephole j7 removed jra by using inverse jump logic
                                   1575 ; peephole j30 removed unused label 00133$.
                                   1576 ;	STM8L15x_StdPeriph_Driver/src/stm8l15x_tim2.c: 1250: icpolarity = TIM2_ICPolarity_Falling;
                                   1577 ; genAssign
      000392 A6 01            [ 1] 1578 	ld	a, #0x01
      000394 6B 02            [ 1] 1579 	ld	(0x02, sp), a
                                   1580 ; genGoto
                                   1581 ; peephole j5 changed absolute to relative unconditional jump.
                                   1582 ; genLabel
                                   1583 ;	STM8L15x_StdPeriph_Driver/src/stm8l15x_tim2.c: 1254: icpolarity = TIM2_ICPolarity_Rising;
                                   1584 ; genAssign
                                   1585 ; genLabel
      000396 C5                    1586 	.byte 0xc5
                                   1587 ; peephole jrf7 used bcp opcode to jump over 2-byte instruction.
      000397                       1588 00102$:
      000397 0F 02            [ 1] 1589 	clr	(0x02, sp)
      000399                       1590 00103$:
                                   1591 ;	STM8L15x_StdPeriph_Driver/src/stm8l15x_tim2.c: 1258: if (TIM2_ICSelection == TIM2_ICSelection_DirectTI)
                                   1592 ; genCmpEQorNE
      000399 7B 06            [ 1] 1593 	ld	a, (0x06, sp)
      00039B 4A               [ 1] 1594 	dec	a
                                   1595 ; peephole j5 changed absolute to relative unconditional jump.
                                   1596 ; peephole j10 removed jra by using inverse jump logic
                                   1597 ; peephole j30 removed unused label 00135$.
                                   1598 ; peephole j5 changed absolute to relative unconditional jump.
      00039C 26 06            [ 1] 1599 	jrne	00105$
                                   1600 ; peephole j7 removed jra by using inverse jump logic
                                   1601 ; peephole j30 removed unused label 00136$.
                                   1602 ; skipping generated iCode
                                   1603 ;	STM8L15x_StdPeriph_Driver/src/stm8l15x_tim2.c: 1260: icselection = TIM2_ICSelection_IndirectTI;
                                   1604 ; genAssign
      00039E A6 02            [ 1] 1605 	ld	a, #0x02
      0003A0 6B 01            [ 1] 1606 	ld	(0x01, sp), a
                                   1607 ; genGoto
      0003A2 20 04            [ 2] 1608 	jra	00106$
                                   1609 ; peephole j5 changed absolute to relative unconditional jump.
                                   1610 ; genLabel
      0003A4                       1611 00105$:
                                   1612 ;	STM8L15x_StdPeriph_Driver/src/stm8l15x_tim2.c: 1264: icselection = TIM2_ICSelection_DirectTI;
                                   1613 ; genAssign
      0003A4 A6 01            [ 1] 1614 	ld	a, #0x01
      0003A6 6B 01            [ 1] 1615 	ld	(0x01, sp), a
                                   1616 ; genLabel
      0003A8                       1617 00106$:
                                   1618 ;	STM8L15x_StdPeriph_Driver/src/stm8l15x_tim2.c: 1277: TI2_Config((TIM2_ICPolarity_TypeDef)icpolarity, (TIM2_ICSelection_TypeDef)icselection, TIM2_ICFilter);
                                   1619 ; genCast
      0003A8 4F               [ 1] 1620 	clr	a
      0003A9 11 02            [ 1] 1621 	cp	a, (0x02, sp)
      0003AB 49               [ 1] 1622 	rlc	a
      0003AC 6B 02            [ 1] 1623 	ld	(0x02, sp), a
                                   1624 ;	STM8L15x_StdPeriph_Driver/src/stm8l15x_tim2.c: 1267: if (TIM2_Channel == TIM2_Channel_1)
                                   1625 ; genIfx
      0003AE 9F               [ 1] 1626 	ld	a, xl
      0003AF 4D               [ 1] 1627 	tnz	a
                                   1628 ; peephole j5 changed absolute to relative unconditional jump.
      0003B0 26 22            [ 1] 1629 	jrne	00108$
                                   1630 ; peephole j7 removed jra by using inverse jump logic
                                   1631 ; peephole j30 removed unused label 00137$.
                                   1632 ;	STM8L15x_StdPeriph_Driver/src/stm8l15x_tim2.c: 1270: TI1_Config(TIM2_ICPolarity, TIM2_ICSelection,
                                   1633 ; genIPush
      0003B2 7B 08            [ 1] 1634 	ld	a, (0x08, sp)
      0003B4 88               [ 1] 1635 	push	a
                                   1636 ; genIPush
      0003B5 7B 07            [ 1] 1637 	ld	a, (0x07, sp)
      0003B7 88               [ 1] 1638 	push	a
                                   1639 ; genSend
      0003B8 7B 07            [ 1] 1640 	ld	a, (0x07, sp)
                                   1641 ; genCall
      0003BA CDr06r35         [ 4] 1642 	call	_TI1_Config
                                   1643 ;	STM8L15x_StdPeriph_Driver/src/stm8l15x_tim2.c: 1274: TIM2_SetIC1Prescaler(TIM2_ICPrescaler);
                                   1644 ; genSend
      0003BD 7B 07            [ 1] 1645 	ld	a, (0x07, sp)
                                   1646 ; genCall
      0003BF CDr04r15         [ 4] 1647 	call	_TIM2_SetIC1Prescaler
                                   1648 ;	STM8L15x_StdPeriph_Driver/src/stm8l15x_tim2.c: 1277: TI2_Config((TIM2_ICPolarity_TypeDef)icpolarity, (TIM2_ICSelection_TypeDef)icselection, TIM2_ICFilter);
                                   1649 ; genIPush
      0003C2 7B 08            [ 1] 1650 	ld	a, (0x08, sp)
      0003C4 88               [ 1] 1651 	push	a
                                   1652 ; genIPush
      0003C5 7B 02            [ 1] 1653 	ld	a, (0x02, sp)
      0003C7 88               [ 1] 1654 	push	a
                                   1655 ; genSend
      0003C8 7B 04            [ 1] 1656 	ld	a, (0x04, sp)
                                   1657 ; genCall
      0003CA CDr06r72         [ 4] 1658 	call	_TI2_Config
                                   1659 ;	STM8L15x_StdPeriph_Driver/src/stm8l15x_tim2.c: 1280: TIM2_SetIC2Prescaler(TIM2_ICPrescaler);
                                   1660 ; genSend
      0003CD 7B 07            [ 1] 1661 	ld	a, (0x07, sp)
                                   1662 ; genCall
      0003CF CDr04r24         [ 4] 1663 	call	_TIM2_SetIC2Prescaler
                                   1664 ; genGoto
      0003D2 20 20            [ 2] 1665 	jra	00110$
                                   1666 ; peephole j5 changed absolute to relative unconditional jump.
                                   1667 ; genLabel
      0003D4                       1668 00108$:
                                   1669 ;	STM8L15x_StdPeriph_Driver/src/stm8l15x_tim2.c: 1285: TI2_Config(TIM2_ICPolarity, TIM2_ICSelection,
                                   1670 ; genIPush
      0003D4 7B 08            [ 1] 1671 	ld	a, (0x08, sp)
      0003D6 88               [ 1] 1672 	push	a
                                   1673 ; genIPush
      0003D7 7B 07            [ 1] 1674 	ld	a, (0x07, sp)
      0003D9 88               [ 1] 1675 	push	a
                                   1676 ; genSend
      0003DA 7B 07            [ 1] 1677 	ld	a, (0x07, sp)
                                   1678 ; genCall
      0003DC CDr06r72         [ 4] 1679 	call	_TI2_Config
                                   1680 ;	STM8L15x_StdPeriph_Driver/src/stm8l15x_tim2.c: 1289: TIM2_SetIC2Prescaler(TIM2_ICPrescaler);
                                   1681 ; genSend
      0003DF 7B 07            [ 1] 1682 	ld	a, (0x07, sp)
                                   1683 ; genCall
      0003E1 CDr04r24         [ 4] 1684 	call	_TIM2_SetIC2Prescaler
                                   1685 ;	STM8L15x_StdPeriph_Driver/src/stm8l15x_tim2.c: 1292: TI1_Config((TIM2_ICPolarity_TypeDef)icpolarity, (TIM2_ICSelection_TypeDef)icselection, TIM2_ICFilter);
                                   1686 ; genIPush
      0003E4 7B 08            [ 1] 1687 	ld	a, (0x08, sp)
      0003E6 88               [ 1] 1688 	push	a
                                   1689 ; genIPush
      0003E7 7B 02            [ 1] 1690 	ld	a, (0x02, sp)
      0003E9 88               [ 1] 1691 	push	a
                                   1692 ; genSend
      0003EA 7B 04            [ 1] 1693 	ld	a, (0x04, sp)
                                   1694 ; genCall
      0003EC CDr06r35         [ 4] 1695 	call	_TI1_Config
                                   1696 ;	STM8L15x_StdPeriph_Driver/src/stm8l15x_tim2.c: 1295: TIM2_SetIC1Prescaler(TIM2_ICPrescaler);
                                   1697 ; genSend
      0003EF 7B 07            [ 1] 1698 	ld	a, (0x07, sp)
                                   1699 ; genCall
      0003F1 CDr04r15         [ 4] 1700 	call	_TIM2_SetIC1Prescaler
                                   1701 ; genLabel
      0003F4                       1702 00110$:
                                   1703 ;	STM8L15x_StdPeriph_Driver/src/stm8l15x_tim2.c: 1297: }
                                   1704 ; genEndFunction
      0003F4 1E 03            [ 2] 1705 	ldw	x, (3, sp)
      0003F6 5B 08            [ 2] 1706 	addw	sp, #8
      0003F8 FC               [ 2] 1707 	jp	(x)
                                   1708 ;	Total TIM2_PWMIConfig function size at codegen: 5 bytes.
                                   1709 ;	STM8L15x_StdPeriph_Driver/src/stm8l15x_tim2.c: 1304: uint16_t TIM2_GetCapture1(void)
                                   1710 ; genLabel
                                   1711 ;	-----------------------------------------
                                   1712 ;	 function TIM2_GetCapture1
                                   1713 ;	-----------------------------------------
                                   1714 ;	Register assignment might be sub-optimal.
                                   1715 ;	Stack space usage: 2 bytes.
      0003F9                       1716 _TIM2_GetCapture1:
      0003F9 89               [ 2] 1717 	pushw	x
                                   1718 ;	STM8L15x_StdPeriph_Driver/src/stm8l15x_tim2.c: 1309: tmpccr1h = TIM2->CCR1H;
                                   1719 ; genPointerGet
      0003FA C6 52 61         [ 1] 1720 	ld	a, 0x5261
      0003FD 95               [ 1] 1721 	ld	xh, a
                                   1722 ;	STM8L15x_StdPeriph_Driver/src/stm8l15x_tim2.c: 1310: tmpccr1l = TIM2->CCR1L;
                                   1723 ; genPointerGet
      0003FE C6 52 62         [ 1] 1724 	ld	a, 0x5262
                                   1725 ;	STM8L15x_StdPeriph_Driver/src/stm8l15x_tim2.c: 1312: tmpccr1 = (uint16_t)(tmpccr1l);
                                   1726 ; genCast
                                   1727 ; genAssign
      000401 97               [ 1] 1728 	ld	xl, a
                                   1729 ; peephole 3 removed dead clrw of y.
                                   1730 ;	STM8L15x_StdPeriph_Driver/src/stm8l15x_tim2.c: 1313: tmpccr1 |= (uint16_t)((uint16_t)tmpccr1h << 8);
                                   1731 ; genCast
                                   1732 ; genAssign
                                   1733 ; peephole 1 removed dead clear of a.
                                   1734 ; genLeftShiftLiteral
      000402 0F 02            [ 1] 1735 	clr	(0x02, sp)
                                   1736 ; genOr
                                   1737 ;	STM8L15x_StdPeriph_Driver/src/stm8l15x_tim2.c: 1315: return ((uint16_t)tmpccr1);
                                   1738 ; genReturn
                                   1739 ; genLabel
                                   1740 ; peephole j30 removed unused label 00101$.
                                   1741 ;	STM8L15x_StdPeriph_Driver/src/stm8l15x_tim2.c: 1316: }
                                   1742 ; genEndFunction
      000404 5B 02            [ 2] 1743 	addw	sp, #2
      000406 81               [ 4] 1744 	ret
                                   1745 ;	Total TIM2_GetCapture1 function size at codegen: 3 bytes.
                                   1746 ;	STM8L15x_StdPeriph_Driver/src/stm8l15x_tim2.c: 1323: uint16_t TIM2_GetCapture2(void)
                                   1747 ; genLabel
                                   1748 ;	-----------------------------------------
                                   1749 ;	 function TIM2_GetCapture2
                                   1750 ;	-----------------------------------------
                                   1751 ;	Register assignment might be sub-optimal.
                                   1752 ;	Stack space usage: 2 bytes.
      000407                       1753 _TIM2_GetCapture2:
      000407 89               [ 2] 1754 	pushw	x
                                   1755 ;	STM8L15x_StdPeriph_Driver/src/stm8l15x_tim2.c: 1328: tmpccr2h = TIM2->CCR2H;
                                   1756 ; genPointerGet
      000408 C6 52 63         [ 1] 1757 	ld	a, 0x5263
      00040B 95               [ 1] 1758 	ld	xh, a
                                   1759 ;	STM8L15x_StdPeriph_Driver/src/stm8l15x_tim2.c: 1329: tmpccr2l = TIM2->CCR2L;
                                   1760 ; genPointerGet
      00040C C6 52 64         [ 1] 1761 	ld	a, 0x5264
                                   1762 ;	STM8L15x_StdPeriph_Driver/src/stm8l15x_tim2.c: 1331: tmpccr2 = (uint16_t)(tmpccr2l);
                                   1763 ; genCast
                                   1764 ; genAssign
      00040F 97               [ 1] 1765 	ld	xl, a
                                   1766 ; peephole 3 removed dead clrw of y.
                                   1767 ;	STM8L15x_StdPeriph_Driver/src/stm8l15x_tim2.c: 1332: tmpccr2 |= (uint16_t)((uint16_t)tmpccr2h << 8);
                                   1768 ; genCast
                                   1769 ; genAssign
                                   1770 ; peephole 1 removed dead clear of a.
                                   1771 ; genLeftShiftLiteral
      000410 0F 02            [ 1] 1772 	clr	(0x02, sp)
                                   1773 ; genOr
                                   1774 ;	STM8L15x_StdPeriph_Driver/src/stm8l15x_tim2.c: 1334: return ((uint16_t)tmpccr2);
                                   1775 ; genReturn
                                   1776 ; genLabel
                                   1777 ; peephole j30 removed unused label 00101$.
                                   1778 ;	STM8L15x_StdPeriph_Driver/src/stm8l15x_tim2.c: 1335: }
                                   1779 ; genEndFunction
      000412 5B 02            [ 2] 1780 	addw	sp, #2
      000414 81               [ 4] 1781 	ret
                                   1782 ;	Total TIM2_GetCapture2 function size at codegen: 3 bytes.
                                   1783 ;	STM8L15x_StdPeriph_Driver/src/stm8l15x_tim2.c: 1347: void TIM2_SetIC1Prescaler(TIM2_ICPSC_TypeDef TIM2_IC1Prescaler)
                                   1784 ; genLabel
                                   1785 ;	-----------------------------------------
                                   1786 ;	 function TIM2_SetIC1Prescaler
                                   1787 ;	-----------------------------------------
                                   1788 ;	Register assignment is optimal.
                                   1789 ;	Stack space usage: 1 bytes.
      000415                       1790 _TIM2_SetIC1Prescaler:
      000415 88               [ 1] 1791 	push	a
                                   1792 ; genReceive
      000416 6B 01            [ 1] 1793 	ld	(0x01, sp), a
                                   1794 ;	STM8L15x_StdPeriph_Driver/src/stm8l15x_tim2.c: 1354: tmpccmr1 = TIM2->CCMR1;
                                   1795 ; genPointerGet
      000418 C6 52 59         [ 1] 1796 	ld	a, 0x5259
                                   1797 ;	STM8L15x_StdPeriph_Driver/src/stm8l15x_tim2.c: 1357: tmpccmr1 &= (uint8_t)(~TIM_CCMR_ICxPSC);
                                   1798 ; genAnd
      00041B A4 F3            [ 1] 1799 	and	a, #0xf3
                                   1800 ;	STM8L15x_StdPeriph_Driver/src/stm8l15x_tim2.c: 1360: tmpccmr1 |= (uint8_t)TIM2_IC1Prescaler;
                                   1801 ; genOr
      00041D 1A 01            [ 1] 1802 	or	a, (0x01, sp)
                                   1803 ;	STM8L15x_StdPeriph_Driver/src/stm8l15x_tim2.c: 1362: TIM2->CCMR1 = tmpccmr1;
                                   1804 ; genPointerSet
      00041F C7 52 59         [ 1] 1805 	ld	0x5259, a
                                   1806 ; genLabel
                                   1807 ; peephole j30 removed unused label 00101$.
                                   1808 ;	STM8L15x_StdPeriph_Driver/src/stm8l15x_tim2.c: 1363: }
                                   1809 ; genEndFunction
      000422 84               [ 1] 1810 	pop	a
      000423 81               [ 4] 1811 	ret
                                   1812 ;	Total TIM2_SetIC1Prescaler function size at codegen: 2 bytes.
                                   1813 ;	STM8L15x_StdPeriph_Driver/src/stm8l15x_tim2.c: 1375: void TIM2_SetIC2Prescaler(TIM2_ICPSC_TypeDef TIM2_IC2Prescaler)
                                   1814 ; genLabel
                                   1815 ;	-----------------------------------------
                                   1816 ;	 function TIM2_SetIC2Prescaler
                                   1817 ;	-----------------------------------------
                                   1818 ;	Register assignment is optimal.
                                   1819 ;	Stack space usage: 1 bytes.
      000424                       1820 _TIM2_SetIC2Prescaler:
      000424 88               [ 1] 1821 	push	a
                                   1822 ; genReceive
      000425 6B 01            [ 1] 1823 	ld	(0x01, sp), a
                                   1824 ;	STM8L15x_StdPeriph_Driver/src/stm8l15x_tim2.c: 1382: tmpccmr2 = TIM2->CCMR2;
                                   1825 ; genPointerGet
      000427 C6 52 5A         [ 1] 1826 	ld	a, 0x525a
                                   1827 ;	STM8L15x_StdPeriph_Driver/src/stm8l15x_tim2.c: 1385: tmpccmr2 &= (uint8_t)(~TIM_CCMR_ICxPSC);
                                   1828 ; genAnd
      00042A A4 F3            [ 1] 1829 	and	a, #0xf3
                                   1830 ;	STM8L15x_StdPeriph_Driver/src/stm8l15x_tim2.c: 1388: tmpccmr2 |= (uint8_t)TIM2_IC2Prescaler;
                                   1831 ; genOr
      00042C 1A 01            [ 1] 1832 	or	a, (0x01, sp)
                                   1833 ;	STM8L15x_StdPeriph_Driver/src/stm8l15x_tim2.c: 1390: TIM2->CCMR2 = tmpccmr2;
                                   1834 ; genPointerSet
      00042E C7 52 5A         [ 1] 1835 	ld	0x525a, a
                                   1836 ; genLabel
                                   1837 ; peephole j30 removed unused label 00101$.
                                   1838 ;	STM8L15x_StdPeriph_Driver/src/stm8l15x_tim2.c: 1391: }
                                   1839 ; genEndFunction
      000431 84               [ 1] 1840 	pop	a
      000432 81               [ 4] 1841 	ret
                                   1842 ;	Total TIM2_SetIC2Prescaler function size at codegen: 2 bytes.
                                   1843 ;	STM8L15x_StdPeriph_Driver/src/stm8l15x_tim2.c: 1422: void TIM2_ITConfig(TIM2_IT_TypeDef TIM2_IT, FunctionalState NewState)
                                   1844 ; genLabel
                                   1845 ;	-----------------------------------------
                                   1846 ;	 function TIM2_ITConfig
                                   1847 ;	-----------------------------------------
                                   1848 ;	Register assignment is optimal.
                                   1849 ;	Stack space usage: 1 bytes.
      000433                       1850 _TIM2_ITConfig:
      000433 88               [ 1] 1851 	push	a
                                   1852 ; genReceive
                                   1853 ;	STM8L15x_StdPeriph_Driver/src/stm8l15x_tim2.c: 1431: TIM2->IER |= (uint8_t)TIM2_IT;
                                   1854 ; genPointerGet
      000434 AE 52 55         [ 2] 1855 	ldw	x, #0x5255
      000437 88               [ 1] 1856 	push	a
      000438 F6               [ 1] 1857 	ld	a, (x)
      000439 6B 02            [ 1] 1858 	ld	(0x02, sp), a
      00043B 84               [ 1] 1859 	pop	a
                                   1860 ;	STM8L15x_StdPeriph_Driver/src/stm8l15x_tim2.c: 1428: if (NewState != DISABLE)
                                   1861 ; genIfx
      00043C 0D 04            [ 1] 1862 	tnz	(0x04, sp)
                                   1863 ; peephole j5 changed absolute to relative unconditional jump.
      00043E 27 07            [ 1] 1864 	jreq	00102$
                                   1865 ; peephole j10 removed jra by using inverse jump logic
                                   1866 ; peephole j30 removed unused label 00113$.
                                   1867 ;	STM8L15x_StdPeriph_Driver/src/stm8l15x_tim2.c: 1431: TIM2->IER |= (uint8_t)TIM2_IT;
                                   1868 ; genOr
      000440 1A 01            [ 1] 1869 	or	a, (0x01, sp)
                                   1870 ; genPointerSet
      000442 C7 52 55         [ 1] 1871 	ld	0x5255, a
                                   1872 ; genGoto
      000445 20 06            [ 2] 1873 	jra	00104$
                                   1874 ; peephole j5 changed absolute to relative unconditional jump.
                                   1875 ; genLabel
      000447                       1876 00102$:
                                   1877 ;	STM8L15x_StdPeriph_Driver/src/stm8l15x_tim2.c: 1436: TIM2->IER &= (uint8_t)(~(uint8_t)TIM2_IT);
                                   1878 ; genCpl
      000447 43               [ 1] 1879 	cpl	a
                                   1880 ; genAnd
      000448 14 01            [ 1] 1881 	and	a, (0x01, sp)
                                   1882 ; genPointerSet
      00044A C7 52 55         [ 1] 1883 	ld	0x5255, a
                                   1884 ; genLabel
      00044D                       1885 00104$:
                                   1886 ;	STM8L15x_StdPeriph_Driver/src/stm8l15x_tim2.c: 1438: }
                                   1887 ; genEndFunction
      00044D 84               [ 1] 1888 	pop	a
      00044E 85               [ 2] 1889 	popw	x
      00044F 84               [ 1] 1890 	pop	a
      000450 FC               [ 2] 1891 	jp	(x)
                                   1892 ;	Total TIM2_ITConfig function size at codegen: 4 bytes.
                                   1893 ;	STM8L15x_StdPeriph_Driver/src/stm8l15x_tim2.c: 1451: void TIM2_GenerateEvent(TIM2_EventSource_TypeDef TIM2_EventSource)
                                   1894 ; genLabel
                                   1895 ;	-----------------------------------------
                                   1896 ;	 function TIM2_GenerateEvent
                                   1897 ;	-----------------------------------------
                                   1898 ;	Register assignment is optimal.
                                   1899 ;	Stack space usage: 1 bytes.
      000451                       1900 _TIM2_GenerateEvent:
      000451 88               [ 1] 1901 	push	a
                                   1902 ; genReceive
      000452 6B 01            [ 1] 1903 	ld	(0x01, sp), a
                                   1904 ;	STM8L15x_StdPeriph_Driver/src/stm8l15x_tim2.c: 1457: TIM2->EGR |= (uint8_t)TIM2_EventSource;
                                   1905 ; genPointerGet
      000454 C6 52 58         [ 1] 1906 	ld	a, 0x5258
                                   1907 ; genOr
      000457 1A 01            [ 1] 1908 	or	a, (0x01, sp)
                                   1909 ; genPointerSet
      000459 C7 52 58         [ 1] 1910 	ld	0x5258, a
                                   1911 ; genLabel
                                   1912 ; peephole j30 removed unused label 00101$.
                                   1913 ;	STM8L15x_StdPeriph_Driver/src/stm8l15x_tim2.c: 1458: }
                                   1914 ; genEndFunction
      00045C 84               [ 1] 1915 	pop	a
      00045D 81               [ 4] 1916 	ret
                                   1917 ;	Total TIM2_GenerateEvent function size at codegen: 2 bytes.
                                   1918 ;	STM8L15x_StdPeriph_Driver/src/stm8l15x_tim2.c: 1473: FlagStatus TIM2_GetFlagStatus(TIM2_FLAG_TypeDef TIM2_FLAG)
                                   1919 ; genLabel
                                   1920 ;	-----------------------------------------
                                   1921 ;	 function TIM2_GetFlagStatus
                                   1922 ;	-----------------------------------------
                                   1923 ;	Register assignment might be sub-optimal.
                                   1924 ;	Stack space usage: 1 bytes.
      00045E                       1925 _TIM2_GetFlagStatus:
      00045E 88               [ 1] 1926 	push	a
                                   1927 ; genReceive
                                   1928 ;	STM8L15x_StdPeriph_Driver/src/stm8l15x_tim2.c: 1481: tim2_flag_l = (uint8_t)(TIM2->SR1 & (uint8_t)(TIM2_FLAG));
                                   1929 ; genPointerGet
      00045F C6 52 56         [ 1] 1930 	ld	a, 0x5256
      000462 6B 01            [ 1] 1931 	ld	(0x01, sp), a
                                   1932 ; genCast
                                   1933 ; genAssign
      000464 9F               [ 1] 1934 	ld	a, xl
                                   1935 ; genAnd
      000465 14 01            [ 1] 1936 	and	a, (0x01, sp)
      000467 6B 01            [ 1] 1937 	ld	(0x01, sp), a
                                   1938 ;	STM8L15x_StdPeriph_Driver/src/stm8l15x_tim2.c: 1482: tim2_flag_h = (uint8_t)(TIM2->SR2 & (uint8_t)((uint16_t)TIM2_FLAG >> 8));
                                   1939 ; genPointerGet
      000469 C6 52 57         [ 1] 1940 	ld	a, 0x5257
                                   1941 ; genCast
                                   1942 ; genAssign
                                   1943 ; genGetByte
                                   1944 ; genAnd
      00046C 89               [ 2] 1945 	pushw	x
      00046D 14 01            [ 1] 1946 	and	a, (1, sp)
      00046F 85               [ 2] 1947 	popw	x
                                   1948 ;	STM8L15x_StdPeriph_Driver/src/stm8l15x_tim2.c: 1484: if ((uint8_t)(tim2_flag_l | tim2_flag_h) != 0)
                                   1949 ; genOr
                                   1950 ; genIfx
      000470 1A 01            [ 1] 1951 	or	a, (0x01, sp)
                                   1952 ; peephole 23 removed redundant tnz.
                                   1953 ; peephole j5 changed absolute to relative unconditional jump.
      000472 27 03            [ 1] 1954 	jreq	00102$
                                   1955 ; peephole j10 removed jra by using inverse jump logic
                                   1956 ; peephole j30 removed unused label 00113$.
                                   1957 ;	STM8L15x_StdPeriph_Driver/src/stm8l15x_tim2.c: 1486: bitstatus = SET;
                                   1958 ; genAssign
      000474 A6 01            [ 1] 1959 	ld	a, #0x01
                                   1960 ; genGoto
                                   1961 ; peephole j5 changed absolute to relative unconditional jump.
                                   1962 ; genLabel
                                   1963 ;	STM8L15x_StdPeriph_Driver/src/stm8l15x_tim2.c: 1490: bitstatus = RESET;
                                   1964 ; genAssign
                                   1965 ; genLabel
      000476 21                    1966 	.byte 0x21
                                   1967 ; peephole jrf1 used jump-on-false opcode to shorten jump over 1-byte instruction.
      000477                       1968 00102$:
      000477 4F               [ 1] 1969 	clr	a
      000478                       1970 00103$:
                                   1971 ;	STM8L15x_StdPeriph_Driver/src/stm8l15x_tim2.c: 1492: return ((FlagStatus)bitstatus);
                                   1972 ; genReturn
                                   1973 ; genLabel
                                   1974 ; peephole j30 removed unused label 00104$.
                                   1975 ;	STM8L15x_StdPeriph_Driver/src/stm8l15x_tim2.c: 1493: }
                                   1976 ; genEndFunction
      000478 5B 01            [ 2] 1977 	addw	sp, #1
      00047A 81               [ 4] 1978 	ret
                                   1979 ;	Total TIM2_GetFlagStatus function size at codegen: 3 bytes.
                                   1980 ;	STM8L15x_StdPeriph_Driver/src/stm8l15x_tim2.c: 1506: void TIM2_ClearFlag(TIM2_FLAG_TypeDef TIM2_FLAG)
                                   1981 ; genLabel
                                   1982 ;	-----------------------------------------
                                   1983 ;	 function TIM2_ClearFlag
                                   1984 ;	-----------------------------------------
                                   1985 ;	Register assignment might be sub-optimal.
                                   1986 ;	Stack space usage: 0 bytes.
      00047B                       1987 _TIM2_ClearFlag:
                                   1988 ; genReceive
                                   1989 ;	STM8L15x_StdPeriph_Driver/src/stm8l15x_tim2.c: 1511: TIM2->SR1 = (uint8_t)(~(uint8_t)(TIM2_FLAG));
                                   1990 ; genCast
                                   1991 ; genAssign
      00047B 9F               [ 1] 1992 	ld	a, xl
                                   1993 ; genCpl
      00047C 43               [ 1] 1994 	cpl	a
                                   1995 ; genPointerSet
      00047D C7 52 56         [ 1] 1996 	ld	0x5256, a
                                   1997 ;	STM8L15x_StdPeriph_Driver/src/stm8l15x_tim2.c: 1512: TIM2->SR2 = (uint8_t)(~(uint8_t)((uint16_t)TIM2_FLAG >> 8));
                                   1998 ; genCast
                                   1999 ; genAssign
      000480 9E               [ 1] 2000 	ld	a, xh
                                   2001 ; genGetByte
                                   2002 ; genCpl
      000481 43               [ 1] 2003 	cpl	a
                                   2004 ; genPointerSet
      000482 C7 52 57         [ 1] 2005 	ld	0x5257, a
                                   2006 ; genLabel
                                   2007 ; peephole j30 removed unused label 00101$.
                                   2008 ;	STM8L15x_StdPeriph_Driver/src/stm8l15x_tim2.c: 1513: }
                                   2009 ; genEndFunction
      000485 81               [ 4] 2010 	ret
                                   2011 ;	Total TIM2_ClearFlag function size at codegen: 1 bytes.
                                   2012 ;	STM8L15x_StdPeriph_Driver/src/stm8l15x_tim2.c: 1526: ITStatus TIM2_GetITStatus(TIM2_IT_TypeDef TIM2_IT)
                                   2013 ; genLabel
                                   2014 ;	-----------------------------------------
                                   2015 ;	 function TIM2_GetITStatus
                                   2016 ;	-----------------------------------------
                                   2017 ;	Register assignment is optimal.
                                   2018 ;	Stack space usage: 2 bytes.
      000486                       2019 _TIM2_GetITStatus:
      000486 89               [ 2] 2020 	pushw	x
                                   2021 ; genReceive
      000487 6B 02            [ 1] 2022 	ld	(0x02, sp), a
                                   2023 ;	STM8L15x_StdPeriph_Driver/src/stm8l15x_tim2.c: 1535: TIM2_itStatus = (uint8_t)(TIM2->SR1 & (uint8_t)TIM2_IT);
                                   2024 ; genPointerGet
      000489 C6 52 56         [ 1] 2025 	ld	a, 0x5256
                                   2026 ; genAnd
      00048C 14 02            [ 1] 2027 	and	a, (0x02, sp)
      00048E 6B 01            [ 1] 2028 	ld	(0x01, sp), a
                                   2029 ;	STM8L15x_StdPeriph_Driver/src/stm8l15x_tim2.c: 1537: TIM2_itEnable = (uint8_t)(TIM2->IER & (uint8_t)TIM2_IT);
                                   2030 ; genPointerGet
      000490 C6 52 55         [ 1] 2031 	ld	a, 0x5255
                                   2032 ; genAnd
      000493 14 02            [ 1] 2033 	and	a, (0x02, sp)
                                   2034 ;	STM8L15x_StdPeriph_Driver/src/stm8l15x_tim2.c: 1539: if ((TIM2_itStatus != (uint8_t)RESET ) && (TIM2_itEnable != (uint8_t)RESET))
                                   2035 ; genIfx
      000495 0D 01            [ 1] 2036 	tnz	(0x01, sp)
                                   2037 ; peephole j5 changed absolute to relative unconditional jump.
      000497 27 06            [ 1] 2038 	jreq	00102$
                                   2039 ; peephole j10 removed jra by using inverse jump logic
                                   2040 ; peephole j30 removed unused label 00121$.
                                   2041 ; genIfx
      000499 4D               [ 1] 2042 	tnz	a
                                   2043 ; peephole j5 changed absolute to relative unconditional jump.
      00049A 27 03            [ 1] 2044 	jreq	00102$
                                   2045 ; peephole j10 removed jra by using inverse jump logic
                                   2046 ; peephole j30 removed unused label 00122$.
                                   2047 ;	STM8L15x_StdPeriph_Driver/src/stm8l15x_tim2.c: 1541: bitstatus = (ITStatus)SET;
                                   2048 ; genAssign
      00049C A6 01            [ 1] 2049 	ld	a, #0x01
                                   2050 ; genGoto
                                   2051 ; peephole j5 changed absolute to relative unconditional jump.
                                   2052 ; genLabel
                                   2053 ;	STM8L15x_StdPeriph_Driver/src/stm8l15x_tim2.c: 1545: bitstatus = (ITStatus)RESET;
                                   2054 ; genAssign
                                   2055 ; genLabel
      00049E 21                    2056 	.byte 0x21
                                   2057 ; peephole jrf1 used jump-on-false opcode to shorten jump over 1-byte instruction.
      00049F                       2058 00102$:
      00049F 4F               [ 1] 2059 	clr	a
      0004A0                       2060 00103$:
                                   2061 ;	STM8L15x_StdPeriph_Driver/src/stm8l15x_tim2.c: 1547: return ((ITStatus)bitstatus);
                                   2062 ; genReturn
                                   2063 ; genLabel
                                   2064 ; peephole j30 removed unused label 00105$.
                                   2065 ;	STM8L15x_StdPeriph_Driver/src/stm8l15x_tim2.c: 1548: }
                                   2066 ; genEndFunction
      0004A0 85               [ 2] 2067 	popw	x
      0004A1 81               [ 4] 2068 	ret
                                   2069 ;	Total TIM2_GetITStatus function size at codegen: 2 bytes.
                                   2070 ;	STM8L15x_StdPeriph_Driver/src/stm8l15x_tim2.c: 1561: void TIM2_ClearITPendingBit(TIM2_IT_TypeDef TIM2_IT)
                                   2071 ; genLabel
                                   2072 ;	-----------------------------------------
                                   2073 ;	 function TIM2_ClearITPendingBit
                                   2074 ;	-----------------------------------------
                                   2075 ;	Register assignment is optimal.
                                   2076 ;	Stack space usage: 0 bytes.
      0004A2                       2077 _TIM2_ClearITPendingBit:
                                   2078 ; genReceive
                                   2079 ;	STM8L15x_StdPeriph_Driver/src/stm8l15x_tim2.c: 1567: TIM2->SR1 = (uint8_t)(~(uint8_t)TIM2_IT);
                                   2080 ; genCpl
      0004A2 43               [ 1] 2081 	cpl	a
                                   2082 ; genPointerSet
      0004A3 C7 52 56         [ 1] 2083 	ld	0x5256, a
                                   2084 ; genLabel
                                   2085 ; peephole j30 removed unused label 00101$.
                                   2086 ;	STM8L15x_StdPeriph_Driver/src/stm8l15x_tim2.c: 1568: }
                                   2087 ; genEndFunction
      0004A6 81               [ 4] 2088 	ret
                                   2089 ;	Total TIM2_ClearITPendingBit function size at codegen: 1 bytes.
                                   2090 ;	STM8L15x_StdPeriph_Driver/src/stm8l15x_tim2.c: 1581: void TIM2_DMACmd( TIM2_DMASource_TypeDef TIM2_DMASource, FunctionalState NewState)
                                   2091 ; genLabel
                                   2092 ;	-----------------------------------------
                                   2093 ;	 function TIM2_DMACmd
                                   2094 ;	-----------------------------------------
                                   2095 ;	Register assignment is optimal.
                                   2096 ;	Stack space usage: 1 bytes.
      0004A7                       2097 _TIM2_DMACmd:
      0004A7 88               [ 1] 2098 	push	a
                                   2099 ; genReceive
                                   2100 ;	STM8L15x_StdPeriph_Driver/src/stm8l15x_tim2.c: 1590: TIM2->DER |= TIM2_DMASource;
                                   2101 ; genPointerGet
      0004A8 AE 52 54         [ 2] 2102 	ldw	x, #0x5254
      0004AB 88               [ 1] 2103 	push	a
      0004AC F6               [ 1] 2104 	ld	a, (x)
      0004AD 6B 02            [ 1] 2105 	ld	(0x02, sp), a
      0004AF 84               [ 1] 2106 	pop	a
                                   2107 ;	STM8L15x_StdPeriph_Driver/src/stm8l15x_tim2.c: 1587: if (NewState != DISABLE)
                                   2108 ; genIfx
      0004B0 0D 04            [ 1] 2109 	tnz	(0x04, sp)
                                   2110 ; peephole j5 changed absolute to relative unconditional jump.
      0004B2 27 07            [ 1] 2111 	jreq	00102$
                                   2112 ; peephole j10 removed jra by using inverse jump logic
                                   2113 ; peephole j30 removed unused label 00113$.
                                   2114 ;	STM8L15x_StdPeriph_Driver/src/stm8l15x_tim2.c: 1590: TIM2->DER |= TIM2_DMASource;
                                   2115 ; genOr
      0004B4 1A 01            [ 1] 2116 	or	a, (0x01, sp)
                                   2117 ; genPointerSet
      0004B6 C7 52 54         [ 1] 2118 	ld	0x5254, a
                                   2119 ; genGoto
      0004B9 20 06            [ 2] 2120 	jra	00104$
                                   2121 ; peephole j5 changed absolute to relative unconditional jump.
                                   2122 ; genLabel
      0004BB                       2123 00102$:
                                   2124 ;	STM8L15x_StdPeriph_Driver/src/stm8l15x_tim2.c: 1595: TIM2->DER &= (uint8_t)(~TIM2_DMASource);
                                   2125 ; genCpl
      0004BB 43               [ 1] 2126 	cpl	a
                                   2127 ; genAnd
      0004BC 14 01            [ 1] 2128 	and	a, (0x01, sp)
                                   2129 ; genPointerSet
      0004BE C7 52 54         [ 1] 2130 	ld	0x5254, a
                                   2131 ; genLabel
      0004C1                       2132 00104$:
                                   2133 ;	STM8L15x_StdPeriph_Driver/src/stm8l15x_tim2.c: 1597: }
                                   2134 ; genEndFunction
      0004C1 84               [ 1] 2135 	pop	a
      0004C2 85               [ 2] 2136 	popw	x
      0004C3 84               [ 1] 2137 	pop	a
      0004C4 FC               [ 2] 2138 	jp	(x)
                                   2139 ;	Total TIM2_DMACmd function size at codegen: 4 bytes.
                                   2140 ;	STM8L15x_StdPeriph_Driver/src/stm8l15x_tim2.c: 1605: void TIM2_SelectCCDMA(FunctionalState NewState)
                                   2141 ; genLabel
                                   2142 ;	-----------------------------------------
                                   2143 ;	 function TIM2_SelectCCDMA
                                   2144 ;	-----------------------------------------
                                   2145 ;	Register assignment is optimal.
                                   2146 ;	Stack space usage: 1 bytes.
      0004C5                       2147 _TIM2_SelectCCDMA:
      0004C5 88               [ 1] 2148 	push	a
                                   2149 ; genReceive
      0004C6 6B 01            [ 1] 2150 	ld	(0x01, sp), a
                                   2151 ;	STM8L15x_StdPeriph_Driver/src/stm8l15x_tim2.c: 1613: TIM2->CR2 |= TIM_CR2_CCDS;
                                   2152 ; genPointerGet
      0004C8 C6 52 51         [ 1] 2153 	ld	a, 0x5251
                                   2154 ;	STM8L15x_StdPeriph_Driver/src/stm8l15x_tim2.c: 1610: if (NewState != DISABLE)
                                   2155 ; genIfx
      0004CB 0D 01            [ 1] 2156 	tnz	(0x01, sp)
                                   2157 ; peephole j5 changed absolute to relative unconditional jump.
      0004CD 27 07            [ 1] 2158 	jreq	00102$
                                   2159 ; peephole j10 removed jra by using inverse jump logic
                                   2160 ; peephole j30 removed unused label 00113$.
                                   2161 ;	STM8L15x_StdPeriph_Driver/src/stm8l15x_tim2.c: 1613: TIM2->CR2 |= TIM_CR2_CCDS;
                                   2162 ; genOr
      0004CF AA 08            [ 1] 2163 	or	a, #0x08
                                   2164 ; genPointerSet
      0004D1 C7 52 51         [ 1] 2165 	ld	0x5251, a
                                   2166 ; genGoto
      0004D4 20 05            [ 2] 2167 	jra	00104$
                                   2168 ; peephole j5 changed absolute to relative unconditional jump.
                                   2169 ; genLabel
      0004D6                       2170 00102$:
                                   2171 ;	STM8L15x_StdPeriph_Driver/src/stm8l15x_tim2.c: 1618: TIM2->CR2 &= (uint8_t)(~TIM_CR2_CCDS);
                                   2172 ; genAnd
      0004D6 A4 F7            [ 1] 2173 	and	a, #0xf7
                                   2174 ; genPointerSet
      0004D8 C7 52 51         [ 1] 2175 	ld	0x5251, a
                                   2176 ; genLabel
      0004DB                       2177 00104$:
                                   2178 ;	STM8L15x_StdPeriph_Driver/src/stm8l15x_tim2.c: 1620: }
                                   2179 ; genEndFunction
      0004DB 84               [ 1] 2180 	pop	a
      0004DC 81               [ 4] 2181 	ret
                                   2182 ;	Total TIM2_SelectCCDMA function size at codegen: 2 bytes.
                                   2183 ;	STM8L15x_StdPeriph_Driver/src/stm8l15x_tim2.c: 1644: void TIM2_InternalClockConfig(void)
                                   2184 ; genLabel
                                   2185 ;	-----------------------------------------
                                   2186 ;	 function TIM2_InternalClockConfig
                                   2187 ;	-----------------------------------------
                                   2188 ;	Register assignment is optimal.
                                   2189 ;	Stack space usage: 0 bytes.
      0004DD                       2190 _TIM2_InternalClockConfig:
                                   2191 ;	STM8L15x_StdPeriph_Driver/src/stm8l15x_tim2.c: 1647: TIM2->SMCR &=  (uint8_t)(~TIM_SMCR_SMS);
                                   2192 ; genPointerGet
      0004DD C6 52 52         [ 1] 2193 	ld	a, 0x5252
                                   2194 ; genAnd
      0004E0 A4 F8            [ 1] 2195 	and	a, #0xf8
                                   2196 ; genPointerSet
      0004E2 C7 52 52         [ 1] 2197 	ld	0x5252, a
                                   2198 ; genLabel
                                   2199 ; peephole j30 removed unused label 00101$.
                                   2200 ;	STM8L15x_StdPeriph_Driver/src/stm8l15x_tim2.c: 1648: }
                                   2201 ; genEndFunction
      0004E5 81               [ 4] 2202 	ret
                                   2203 ;	Total TIM2_InternalClockConfig function size at codegen: 1 bytes.
                                   2204 ;	STM8L15x_StdPeriph_Driver/src/stm8l15x_tim2.c: 1665: void TIM2_TIxExternalClockConfig(TIM2_TIxExternalCLK1Source_TypeDef TIM2_TIxExternalCLKSource,
                                   2205 ; genLabel
                                   2206 ;	-----------------------------------------
                                   2207 ;	 function TIM2_TIxExternalClockConfig
                                   2208 ;	-----------------------------------------
                                   2209 ;	Register assignment is optimal.
                                   2210 ;	Stack space usage: 1 bytes.
      0004E6                       2211 _TIM2_TIxExternalClockConfig:
      0004E6 88               [ 1] 2212 	push	a
                                   2213 ; genReceive
                                   2214 ;	STM8L15x_StdPeriph_Driver/src/stm8l15x_tim2.c: 1675: if (TIM2_TIxExternalCLKSource == TIM2_TIxExternalCLK1Source_TI2)
                                   2215 ; genCmpEQorNE
      0004E7 6B 01            [ 1] 2216 	ld	(0x01, sp), a
                                   2217 ; peephole 4a removed redundant load from (0x01, sp) into a.
      0004E9 A1 60            [ 1] 2218 	cp	a, #0x60
                                   2219 ; peephole j5 changed absolute to relative unconditional jump.
                                   2220 ; peephole j10 removed jra by using inverse jump logic
                                   2221 ; peephole j30 removed unused label 00114$.
                                   2222 ; peephole j5 changed absolute to relative unconditional jump.
      0004EB 26 0C            [ 1] 2223 	jrne	00102$
                                   2224 ; peephole j7 removed jra by using inverse jump logic
                                   2225 ; peephole j30 removed unused label 00115$.
                                   2226 ; skipping generated iCode
                                   2227 ;	STM8L15x_StdPeriph_Driver/src/stm8l15x_tim2.c: 1677: TI2_Config(TIM2_ICPolarity, TIM2_ICSelection_DirectTI, ICFilter);
                                   2228 ; genIPush
      0004ED 7B 05            [ 1] 2229 	ld	a, (0x05, sp)
      0004EF 88               [ 1] 2230 	push	a
                                   2231 ; genIPush
      0004F0 4B 01            [ 1] 2232 	push	#0x01
                                   2233 ; genSend
      0004F2 7B 06            [ 1] 2234 	ld	a, (0x06, sp)
                                   2235 ; genCall
      0004F4 CDr06r72         [ 4] 2236 	call	_TI2_Config
                                   2237 ; genGoto
      0004F7 20 0A            [ 2] 2238 	jra	00103$
                                   2239 ; peephole j5 changed absolute to relative unconditional jump.
                                   2240 ; genLabel
      0004F9                       2241 00102$:
                                   2242 ;	STM8L15x_StdPeriph_Driver/src/stm8l15x_tim2.c: 1681: TI1_Config(TIM2_ICPolarity, TIM2_ICSelection_DirectTI, ICFilter);
                                   2243 ; genIPush
      0004F9 7B 05            [ 1] 2244 	ld	a, (0x05, sp)
      0004FB 88               [ 1] 2245 	push	a
                                   2246 ; genIPush
      0004FC 4B 01            [ 1] 2247 	push	#0x01
                                   2248 ; genSend
      0004FE 7B 06            [ 1] 2249 	ld	a, (0x06, sp)
                                   2250 ; genCall
      000500 CDr06r35         [ 4] 2251 	call	_TI1_Config
                                   2252 ; genLabel
      000503                       2253 00103$:
                                   2254 ;	STM8L15x_StdPeriph_Driver/src/stm8l15x_tim2.c: 1685: TIM2_SelectInputTrigger((TIM2_TRGSelection_TypeDef)TIM2_TIxExternalCLKSource);
                                   2255 ; genSend
      000503 7B 01            [ 1] 2256 	ld	a, (0x01, sp)
                                   2257 ; genCall
      000505 CDr05r5D         [ 4] 2258 	call	_TIM2_SelectInputTrigger
                                   2259 ;	STM8L15x_StdPeriph_Driver/src/stm8l15x_tim2.c: 1688: TIM2->SMCR |= (uint8_t)(TIM2_SlaveMode_External1);
                                   2260 ; genPointerGet
      000508 C6 52 52         [ 1] 2261 	ld	a, 0x5252
                                   2262 ; genOr
      00050B AA 07            [ 1] 2263 	or	a, #0x07
                                   2264 ; genPointerSet
      00050D C7 52 52         [ 1] 2265 	ld	0x5252, a
                                   2266 ; genLabel
                                   2267 ; peephole j30 removed unused label 00104$.
                                   2268 ;	STM8L15x_StdPeriph_Driver/src/stm8l15x_tim2.c: 1689: }
                                   2269 ; genEndFunction
      000510 1E 02            [ 2] 2270 	ldw	x, (2, sp)
      000512 5B 05            [ 2] 2271 	addw	sp, #5
      000514 FC               [ 2] 2272 	jp	(x)
                                   2273 ;	Total TIM2_TIxExternalClockConfig function size at codegen: 5 bytes.
                                   2274 ;	STM8L15x_StdPeriph_Driver/src/stm8l15x_tim2.c: 1707: void TIM2_ETRClockMode1Config(TIM2_ExtTRGPSC_TypeDef TIM2_ExtTRGPrescaler,
                                   2275 ; genLabel
                                   2276 ;	-----------------------------------------
                                   2277 ;	 function TIM2_ETRClockMode1Config
                                   2278 ;	-----------------------------------------
                                   2279 ;	Register assignment is optimal.
                                   2280 ;	Stack space usage: 0 bytes.
      000515                       2281 _TIM2_ETRClockMode1Config:
                                   2282 ; genReceive
      000515 97               [ 1] 2283 	ld	xl, a
                                   2284 ;	STM8L15x_StdPeriph_Driver/src/stm8l15x_tim2.c: 1712: TIM2_ETRConfig(TIM2_ExtTRGPrescaler, TIM2_ExtTRGPolarity, ExtTRGFilter);
                                   2285 ; genIPush
      000516 7B 04            [ 1] 2286 	ld	a, (0x04, sp)
      000518 88               [ 1] 2287 	push	a
                                   2288 ; genIPush
      000519 7B 04            [ 1] 2289 	ld	a, (0x04, sp)
      00051B 88               [ 1] 2290 	push	a
                                   2291 ; genSend
      00051C 9F               [ 1] 2292 	ld	a, xl
                                   2293 ; genCall
      00051D CDr05rA2         [ 4] 2294 	call	_TIM2_ETRConfig
                                   2295 ;	STM8L15x_StdPeriph_Driver/src/stm8l15x_tim2.c: 1715: TIM2->SMCR &= (uint8_t)(~TIM_SMCR_SMS);
                                   2296 ; genPointerGet
      000520 C6 52 52         [ 1] 2297 	ld	a, 0x5252
                                   2298 ; genAnd
      000523 A4 F8            [ 1] 2299 	and	a, #0xf8
                                   2300 ; genPointerSet
      000525 C7 52 52         [ 1] 2301 	ld	0x5252, a
                                   2302 ;	STM8L15x_StdPeriph_Driver/src/stm8l15x_tim2.c: 1716: TIM2->SMCR |= (uint8_t)(TIM2_SlaveMode_External1);
                                   2303 ; genPointerGet
      000528 C6 52 52         [ 1] 2304 	ld	a, 0x5252
                                   2305 ; genOr
      00052B AA 07            [ 1] 2306 	or	a, #0x07
                                   2307 ; genPointerSet
      00052D C7 52 52         [ 1] 2308 	ld	0x5252, a
                                   2309 ;	STM8L15x_StdPeriph_Driver/src/stm8l15x_tim2.c: 1719: TIM2->SMCR &= (uint8_t)(~TIM_SMCR_TS);
                                   2310 ; genPointerGet
      000530 C6 52 52         [ 1] 2311 	ld	a, 0x5252
                                   2312 ; genAnd
      000533 A4 8F            [ 1] 2313 	and	a, #0x8f
                                   2314 ; genPointerSet
      000535 C7 52 52         [ 1] 2315 	ld	0x5252, a
                                   2316 ;	STM8L15x_StdPeriph_Driver/src/stm8l15x_tim2.c: 1720: TIM2->SMCR |= (uint8_t)((TIM2_TRGSelection_TypeDef)TIM2_TRGSelection_ETRF);
                                   2317 ; genPointerGet
      000538 C6 52 52         [ 1] 2318 	ld	a, 0x5252
                                   2319 ; genOr
      00053B AA 70            [ 1] 2320 	or	a, #0x70
                                   2321 ; genPointerSet
      00053D C7 52 52         [ 1] 2322 	ld	0x5252, a
                                   2323 ; genLabel
                                   2324 ; peephole j30 removed unused label 00101$.
                                   2325 ;	STM8L15x_StdPeriph_Driver/src/stm8l15x_tim2.c: 1721: }
                                   2326 ; genEndFunction
      000540 1E 01            [ 2] 2327 	ldw	x, (1, sp)
      000542 5B 04            [ 2] 2328 	addw	sp, #4
      000544 FC               [ 2] 2329 	jp	(x)
                                   2330 ;	Total TIM2_ETRClockMode1Config function size at codegen: 5 bytes.
                                   2331 ;	STM8L15x_StdPeriph_Driver/src/stm8l15x_tim2.c: 1739: void TIM2_ETRClockMode2Config(TIM2_ExtTRGPSC_TypeDef TIM2_ExtTRGPrescaler,
                                   2332 ; genLabel
                                   2333 ;	-----------------------------------------
                                   2334 ;	 function TIM2_ETRClockMode2Config
                                   2335 ;	-----------------------------------------
                                   2336 ;	Register assignment is optimal.
                                   2337 ;	Stack space usage: 0 bytes.
      000545                       2338 _TIM2_ETRClockMode2Config:
                                   2339 ; genReceive
      000545 97               [ 1] 2340 	ld	xl, a
                                   2341 ;	STM8L15x_StdPeriph_Driver/src/stm8l15x_tim2.c: 1744: TIM2_ETRConfig(TIM2_ExtTRGPrescaler, TIM2_ExtTRGPolarity, ExtTRGFilter);
                                   2342 ; genIPush
      000546 7B 04            [ 1] 2343 	ld	a, (0x04, sp)
      000548 88               [ 1] 2344 	push	a
                                   2345 ; genIPush
      000549 7B 04            [ 1] 2346 	ld	a, (0x04, sp)
      00054B 88               [ 1] 2347 	push	a
                                   2348 ; genSend
      00054C 9F               [ 1] 2349 	ld	a, xl
                                   2350 ; genCall
      00054D CDr05rA2         [ 4] 2351 	call	_TIM2_ETRConfig
                                   2352 ;	STM8L15x_StdPeriph_Driver/src/stm8l15x_tim2.c: 1747: TIM2->ETR |= TIM_ETR_ECE ;
                                   2353 ; genPointerGet
      000550 C6 52 53         [ 1] 2354 	ld	a, 0x5253
                                   2355 ; genOr
      000553 AA 40            [ 1] 2356 	or	a, #0x40
                                   2357 ; genPointerSet
      000555 C7 52 53         [ 1] 2358 	ld	0x5253, a
                                   2359 ; genLabel
                                   2360 ; peephole j30 removed unused label 00101$.
                                   2361 ;	STM8L15x_StdPeriph_Driver/src/stm8l15x_tim2.c: 1748: }
                                   2362 ; genEndFunction
      000558 1E 01            [ 2] 2363 	ldw	x, (1, sp)
      00055A 5B 04            [ 2] 2364 	addw	sp, #4
      00055C FC               [ 2] 2365 	jp	(x)
                                   2366 ;	Total TIM2_ETRClockMode2Config function size at codegen: 5 bytes.
                                   2367 ;	STM8L15x_StdPeriph_Driver/src/stm8l15x_tim2.c: 1799: void TIM2_SelectInputTrigger(TIM2_TRGSelection_TypeDef TIM2_InputTriggerSource)
                                   2368 ; genLabel
                                   2369 ;	-----------------------------------------
                                   2370 ;	 function TIM2_SelectInputTrigger
                                   2371 ;	-----------------------------------------
                                   2372 ;	Register assignment is optimal.
                                   2373 ;	Stack space usage: 1 bytes.
      00055D                       2374 _TIM2_SelectInputTrigger:
      00055D 88               [ 1] 2375 	push	a
                                   2376 ; genReceive
      00055E 6B 01            [ 1] 2377 	ld	(0x01, sp), a
                                   2378 ;	STM8L15x_StdPeriph_Driver/src/stm8l15x_tim2.c: 1806: tmpsmcr = TIM2->SMCR;
                                   2379 ; genPointerGet
      000560 C6 52 52         [ 1] 2380 	ld	a, 0x5252
                                   2381 ;	STM8L15x_StdPeriph_Driver/src/stm8l15x_tim2.c: 1809: tmpsmcr &= (uint8_t)(~TIM_SMCR_TS);
                                   2382 ; genAnd
      000563 A4 8F            [ 1] 2383 	and	a, #0x8f
                                   2384 ;	STM8L15x_StdPeriph_Driver/src/stm8l15x_tim2.c: 1810: tmpsmcr |= (uint8_t)TIM2_InputTriggerSource;
                                   2385 ; genOr
      000565 1A 01            [ 1] 2386 	or	a, (0x01, sp)
                                   2387 ;	STM8L15x_StdPeriph_Driver/src/stm8l15x_tim2.c: 1812: TIM2->SMCR = (uint8_t)tmpsmcr;
                                   2388 ; genPointerSet
      000567 C7 52 52         [ 1] 2389 	ld	0x5252, a
                                   2390 ; genLabel
                                   2391 ; peephole j30 removed unused label 00101$.
                                   2392 ;	STM8L15x_StdPeriph_Driver/src/stm8l15x_tim2.c: 1813: }
                                   2393 ; genEndFunction
      00056A 84               [ 1] 2394 	pop	a
      00056B 81               [ 4] 2395 	ret
                                   2396 ;	Total TIM2_SelectInputTrigger function size at codegen: 2 bytes.
                                   2397 ;	STM8L15x_StdPeriph_Driver/src/stm8l15x_tim2.c: 1827: void TIM2_SelectOutputTrigger(TIM2_TRGOSource_TypeDef TIM2_TRGOSource)
                                   2398 ; genLabel
                                   2399 ;	-----------------------------------------
                                   2400 ;	 function TIM2_SelectOutputTrigger
                                   2401 ;	-----------------------------------------
                                   2402 ;	Register assignment is optimal.
                                   2403 ;	Stack space usage: 1 bytes.
      00056C                       2404 _TIM2_SelectOutputTrigger:
      00056C 88               [ 1] 2405 	push	a
                                   2406 ; genReceive
      00056D 6B 01            [ 1] 2407 	ld	(0x01, sp), a
                                   2408 ;	STM8L15x_StdPeriph_Driver/src/stm8l15x_tim2.c: 1834: tmpcr2 = TIM2->CR2;
                                   2409 ; genPointerGet
      00056F C6 52 51         [ 1] 2410 	ld	a, 0x5251
                                   2411 ;	STM8L15x_StdPeriph_Driver/src/stm8l15x_tim2.c: 1837: tmpcr2 &= (uint8_t)(~TIM_CR2_MMS);
                                   2412 ; genAnd
      000572 A4 8F            [ 1] 2413 	and	a, #0x8f
                                   2414 ;	STM8L15x_StdPeriph_Driver/src/stm8l15x_tim2.c: 1840: tmpcr2 |=  (uint8_t)TIM2_TRGOSource;
                                   2415 ; genOr
      000574 1A 01            [ 1] 2416 	or	a, (0x01, sp)
                                   2417 ;	STM8L15x_StdPeriph_Driver/src/stm8l15x_tim2.c: 1842: TIM2->CR2 = tmpcr2;
                                   2418 ; genPointerSet
      000576 C7 52 51         [ 1] 2419 	ld	0x5251, a
                                   2420 ; genLabel
                                   2421 ; peephole j30 removed unused label 00101$.
                                   2422 ;	STM8L15x_StdPeriph_Driver/src/stm8l15x_tim2.c: 1843: }
                                   2423 ; genEndFunction
      000579 84               [ 1] 2424 	pop	a
      00057A 81               [ 4] 2425 	ret
                                   2426 ;	Total TIM2_SelectOutputTrigger function size at codegen: 2 bytes.
                                   2427 ;	STM8L15x_StdPeriph_Driver/src/stm8l15x_tim2.c: 1855: void TIM2_SelectSlaveMode(TIM2_SlaveMode_TypeDef TIM2_SlaveMode)
                                   2428 ; genLabel
                                   2429 ;	-----------------------------------------
                                   2430 ;	 function TIM2_SelectSlaveMode
                                   2431 ;	-----------------------------------------
                                   2432 ;	Register assignment is optimal.
                                   2433 ;	Stack space usage: 1 bytes.
      00057B                       2434 _TIM2_SelectSlaveMode:
      00057B 88               [ 1] 2435 	push	a
                                   2436 ; genReceive
      00057C 6B 01            [ 1] 2437 	ld	(0x01, sp), a
                                   2438 ;	STM8L15x_StdPeriph_Driver/src/stm8l15x_tim2.c: 1862: tmpsmcr = TIM2->SMCR;
                                   2439 ; genPointerGet
      00057E C6 52 52         [ 1] 2440 	ld	a, 0x5252
                                   2441 ;	STM8L15x_StdPeriph_Driver/src/stm8l15x_tim2.c: 1865: tmpsmcr &= (uint8_t)(~TIM_SMCR_SMS);
                                   2442 ; genAnd
      000581 A4 F8            [ 1] 2443 	and	a, #0xf8
                                   2444 ;	STM8L15x_StdPeriph_Driver/src/stm8l15x_tim2.c: 1868: tmpsmcr |= (uint8_t)TIM2_SlaveMode;
                                   2445 ; genOr
      000583 1A 01            [ 1] 2446 	or	a, (0x01, sp)
                                   2447 ;	STM8L15x_StdPeriph_Driver/src/stm8l15x_tim2.c: 1870: TIM2->SMCR = tmpsmcr;
                                   2448 ; genPointerSet
      000585 C7 52 52         [ 1] 2449 	ld	0x5252, a
                                   2450 ; genLabel
                                   2451 ; peephole j30 removed unused label 00101$.
                                   2452 ;	STM8L15x_StdPeriph_Driver/src/stm8l15x_tim2.c: 1871: }
                                   2453 ; genEndFunction
      000588 84               [ 1] 2454 	pop	a
      000589 81               [ 4] 2455 	ret
                                   2456 ;	Total TIM2_SelectSlaveMode function size at codegen: 2 bytes.
                                   2457 ;	STM8L15x_StdPeriph_Driver/src/stm8l15x_tim2.c: 1879: void TIM2_SelectMasterSlaveMode(FunctionalState NewState)
                                   2458 ; genLabel
                                   2459 ;	-----------------------------------------
                                   2460 ;	 function TIM2_SelectMasterSlaveMode
                                   2461 ;	-----------------------------------------
                                   2462 ;	Register assignment is optimal.
                                   2463 ;	Stack space usage: 1 bytes.
      00058A                       2464 _TIM2_SelectMasterSlaveMode:
      00058A 88               [ 1] 2465 	push	a
                                   2466 ; genReceive
      00058B 6B 01            [ 1] 2467 	ld	(0x01, sp), a
                                   2468 ;	STM8L15x_StdPeriph_Driver/src/stm8l15x_tim2.c: 1887: TIM2->SMCR |= TIM_SMCR_MSM;
                                   2469 ; genPointerGet
      00058D C6 52 52         [ 1] 2470 	ld	a, 0x5252
                                   2471 ;	STM8L15x_StdPeriph_Driver/src/stm8l15x_tim2.c: 1885: if (NewState != DISABLE)
                                   2472 ; genIfx
      000590 0D 01            [ 1] 2473 	tnz	(0x01, sp)
                                   2474 ; peephole j5 changed absolute to relative unconditional jump.
      000592 27 07            [ 1] 2475 	jreq	00102$
                                   2476 ; peephole j10 removed jra by using inverse jump logic
                                   2477 ; peephole j30 removed unused label 00113$.
                                   2478 ;	STM8L15x_StdPeriph_Driver/src/stm8l15x_tim2.c: 1887: TIM2->SMCR |= TIM_SMCR_MSM;
                                   2479 ; genOr
      000594 AA 80            [ 1] 2480 	or	a, #0x80
                                   2481 ; genPointerSet
      000596 C7 52 52         [ 1] 2482 	ld	0x5252, a
                                   2483 ; genGoto
      000599 20 05            [ 2] 2484 	jra	00104$
                                   2485 ; peephole j5 changed absolute to relative unconditional jump.
                                   2486 ; genLabel
      00059B                       2487 00102$:
                                   2488 ;	STM8L15x_StdPeriph_Driver/src/stm8l15x_tim2.c: 1891: TIM2->SMCR &= (uint8_t)(~TIM_SMCR_MSM);
                                   2489 ; genAnd
      00059B A4 7F            [ 1] 2490 	and	a, #0x7f
                                   2491 ; genPointerSet
      00059D C7 52 52         [ 1] 2492 	ld	0x5252, a
                                   2493 ; genLabel
      0005A0                       2494 00104$:
                                   2495 ;	STM8L15x_StdPeriph_Driver/src/stm8l15x_tim2.c: 1893: }
                                   2496 ; genEndFunction
      0005A0 84               [ 1] 2497 	pop	a
      0005A1 81               [ 4] 2498 	ret
                                   2499 ;	Total TIM2_SelectMasterSlaveMode function size at codegen: 2 bytes.
                                   2500 ;	STM8L15x_StdPeriph_Driver/src/stm8l15x_tim2.c: 1911: void TIM2_ETRConfig(TIM2_ExtTRGPSC_TypeDef TIM2_ExtTRGPrescaler,
                                   2501 ; genLabel
                                   2502 ;	-----------------------------------------
                                   2503 ;	 function TIM2_ETRConfig
                                   2504 ;	-----------------------------------------
                                   2505 ;	Register assignment is optimal.
                                   2506 ;	Stack space usage: 1 bytes.
      0005A2                       2507 _TIM2_ETRConfig:
      0005A2 88               [ 1] 2508 	push	a
                                   2509 ; genReceive
      0005A3 97               [ 1] 2510 	ld	xl, a
                                   2511 ;	STM8L15x_StdPeriph_Driver/src/stm8l15x_tim2.c: 1921: TIM2->ETR |= (uint8_t)((uint8_t)((uint8_t)TIM2_ExtTRGPrescaler | (uint8_t)TIM2_ExtTRGPolarity)
                                   2512 ; genPointerGet
      0005A4 C6 52 53         [ 1] 2513 	ld	a, 0x5253
      0005A7 6B 01            [ 1] 2514 	ld	(0x01, sp), a
                                   2515 ; genOr
      0005A9 9F               [ 1] 2516 	ld	a, xl
      0005AA 1A 04            [ 1] 2517 	or	a, (0x04, sp)
                                   2518 ;	STM8L15x_StdPeriph_Driver/src/stm8l15x_tim2.c: 1922: | (uint8_t)ExtTRGFilter);
                                   2519 ; genOr
      0005AC 1A 05            [ 1] 2520 	or	a, (0x05, sp)
                                   2521 ; genOr
      0005AE 1A 01            [ 1] 2522 	or	a, (0x01, sp)
                                   2523 ; genPointerSet
      0005B0 C7 52 53         [ 1] 2524 	ld	0x5253, a
                                   2525 ; genLabel
                                   2526 ; peephole j30 removed unused label 00101$.
                                   2527 ;	STM8L15x_StdPeriph_Driver/src/stm8l15x_tim2.c: 1923: }
                                   2528 ; genEndFunction
      0005B3 1E 02            [ 2] 2529 	ldw	x, (2, sp)
      0005B5 5B 05            [ 2] 2530 	addw	sp, #5
      0005B7 FC               [ 2] 2531 	jp	(x)
                                   2532 ;	Total TIM2_ETRConfig function size at codegen: 5 bytes.
                                   2533 ;	STM8L15x_StdPeriph_Driver/src/stm8l15x_tim2.c: 1958: void TIM2_EncoderInterfaceConfig(TIM2_EncoderMode_TypeDef TIM2_EncoderMode,
                                   2534 ; genLabel
                                   2535 ;	-----------------------------------------
                                   2536 ;	 function TIM2_EncoderInterfaceConfig
                                   2537 ;	-----------------------------------------
                                   2538 ;	Register assignment might be sub-optimal.
                                   2539 ;	Stack space usage: 2 bytes.
      0005B8                       2540 _TIM2_EncoderInterfaceConfig:
      0005B8 89               [ 2] 2541 	pushw	x
                                   2542 ; genReceive
      0005B9 6B 02            [ 1] 2543 	ld	(0x02, sp), a
                                   2544 ;	STM8L15x_StdPeriph_Driver/src/stm8l15x_tim2.c: 1971: tmpsmcr = TIM2->SMCR;
                                   2545 ; genPointerGet
      0005BB C6 52 52         [ 1] 2546 	ld	a, 0x5252
      0005BE 95               [ 1] 2547 	ld	xh, a
                                   2548 ;	STM8L15x_StdPeriph_Driver/src/stm8l15x_tim2.c: 1972: tmpccmr1 = TIM2->CCMR1;
                                   2549 ; genPointerGet
      0005BF C6 52 59         [ 1] 2550 	ld	a, 0x5259
      0005C2 97               [ 1] 2551 	ld	xl, a
                                   2552 ;	STM8L15x_StdPeriph_Driver/src/stm8l15x_tim2.c: 1973: tmpccmr2 = TIM2->CCMR2;
                                   2553 ; genPointerGet
      0005C3 C6 52 5A         [ 1] 2554 	ld	a, 0x525a
      0005C6 90 97            [ 1] 2555 	ld	yl, a
                                   2556 ;	STM8L15x_StdPeriph_Driver/src/stm8l15x_tim2.c: 1976: tmpsmcr &= (uint8_t)(TIM_SMCR_MSM | TIM_SMCR_TS)  ;
                                   2557 ; genAnd
      0005C8 9E               [ 1] 2558 	ld	a, xh
      0005C9 A4 F0            [ 1] 2559 	and	a, #0xf0
                                   2560 ;	STM8L15x_StdPeriph_Driver/src/stm8l15x_tim2.c: 1977: tmpsmcr |= (uint8_t)TIM2_EncoderMode;
                                   2561 ; genOr
      0005CB 1A 02            [ 1] 2562 	or	a, (0x02, sp)
                                   2563 ;	STM8L15x_StdPeriph_Driver/src/stm8l15x_tim2.c: 1980: tmpccmr1 &= (uint8_t)(~TIM_CCMR_CCxS);
                                   2564 ; genAnd
      0005CD 01               [ 1] 2565 	rrwa	x
                                   2566 ; peephole r3 used rrwa.
      0005CE A4 FC            [ 1] 2567 	and	a, #0xfc
      0005D0 97               [ 1] 2568 	ld	xl, a
                                   2569 ;	STM8L15x_StdPeriph_Driver/src/stm8l15x_tim2.c: 1981: tmpccmr2 &= (uint8_t)(~TIM_CCMR_CCxS);
                                   2570 ; genAnd
      0005D1 90 9F            [ 1] 2571 	ld	a, yl
      0005D3 A4 FC            [ 1] 2572 	and	a, #0xfc
                                   2573 ;	STM8L15x_StdPeriph_Driver/src/stm8l15x_tim2.c: 1982: tmpccmr1 |= TIM_CCMR_TIxDirect_Set;
                                   2574 ; genOr
      0005D5 88               [ 1] 2575 	push	a
      0005D6 54               [ 2] 2576 	srlw	x
      0005D7 99               [ 1] 2577 	scf
      0005D8 59               [ 2] 2578 	rlcw	x
      0005D9 84               [ 1] 2579 	pop	a
                                   2580 ;	STM8L15x_StdPeriph_Driver/src/stm8l15x_tim2.c: 1983: tmpccmr2 |= TIM_CCMR_TIxDirect_Set;
                                   2581 ; genOr
      0005DA AA 01            [ 1] 2582 	or	a, #0x01
      0005DC 6B 01            [ 1] 2583 	ld	(0x01, sp), a
                                   2584 ;	STM8L15x_StdPeriph_Driver/src/stm8l15x_tim2.c: 1988: TIM2->CCER1 |= TIM_CCER1_CC1P ;
                                   2585 ; genPointerGet
      0005DE C6 52 5B         [ 1] 2586 	ld	a, 0x525b
                                   2587 ;	STM8L15x_StdPeriph_Driver/src/stm8l15x_tim2.c: 1986: if (TIM2_IC1Polarity == TIM2_ICPolarity_Falling)
                                   2588 ; genIfx
      0005E1 0D 05            [ 1] 2589 	tnz	(0x05, sp)
                                   2590 ; peephole j5 changed absolute to relative unconditional jump.
      0005E3 27 07            [ 1] 2591 	jreq	00102$
                                   2592 ; peephole j10 removed jra by using inverse jump logic
                                   2593 ; peephole j30 removed unused label 00123$.
                                   2594 ;	STM8L15x_StdPeriph_Driver/src/stm8l15x_tim2.c: 1988: TIM2->CCER1 |= TIM_CCER1_CC1P ;
                                   2595 ; genOr
      0005E5 AA 02            [ 1] 2596 	or	a, #0x02
                                   2597 ; genPointerSet
      0005E7 C7 52 5B         [ 1] 2598 	ld	0x525b, a
                                   2599 ; genGoto
      0005EA 20 05            [ 2] 2600 	jra	00103$
                                   2601 ; peephole j5 changed absolute to relative unconditional jump.
                                   2602 ; genLabel
      0005EC                       2603 00102$:
                                   2604 ;	STM8L15x_StdPeriph_Driver/src/stm8l15x_tim2.c: 1992: TIM2->CCER1 &= (uint8_t)(~TIM_CCER1_CC1P) ;
                                   2605 ; genAnd
      0005EC A4 FD            [ 1] 2606 	and	a, #0xfd
                                   2607 ; genPointerSet
      0005EE C7 52 5B         [ 1] 2608 	ld	0x525b, a
                                   2609 ; genLabel
      0005F1                       2610 00103$:
                                   2611 ;	STM8L15x_StdPeriph_Driver/src/stm8l15x_tim2.c: 1988: TIM2->CCER1 |= TIM_CCER1_CC1P ;
                                   2612 ; genPointerGet
      0005F1 C6 52 5B         [ 1] 2613 	ld	a, 0x525b
                                   2614 ;	STM8L15x_StdPeriph_Driver/src/stm8l15x_tim2.c: 1995: if (TIM2_IC2Polarity == TIM2_ICPolarity_Falling)
                                   2615 ; genIfx
      0005F4 0D 06            [ 1] 2616 	tnz	(0x06, sp)
                                   2617 ; peephole j5 changed absolute to relative unconditional jump.
      0005F6 27 07            [ 1] 2618 	jreq	00105$
                                   2619 ; peephole j10 removed jra by using inverse jump logic
                                   2620 ; peephole j30 removed unused label 00124$.
                                   2621 ;	STM8L15x_StdPeriph_Driver/src/stm8l15x_tim2.c: 1997: TIM2->CCER1 |= TIM_CCER1_CC2P ;
                                   2622 ; genOr
      0005F8 AA 20            [ 1] 2623 	or	a, #0x20
                                   2624 ; genPointerSet
      0005FA C7 52 5B         [ 1] 2625 	ld	0x525b, a
                                   2626 ; genGoto
      0005FD 20 05            [ 2] 2627 	jra	00106$
                                   2628 ; peephole j5 changed absolute to relative unconditional jump.
                                   2629 ; genLabel
      0005FF                       2630 00105$:
                                   2631 ;	STM8L15x_StdPeriph_Driver/src/stm8l15x_tim2.c: 2001: TIM2->CCER1 &= (uint8_t)(~TIM_CCER1_CC2P) ;
                                   2632 ; genAnd
      0005FF A4 DF            [ 1] 2633 	and	a, #0xdf
                                   2634 ; genPointerSet
      000601 C7 52 5B         [ 1] 2635 	ld	0x525b, a
                                   2636 ; genLabel
      000604                       2637 00106$:
                                   2638 ;	STM8L15x_StdPeriph_Driver/src/stm8l15x_tim2.c: 2004: TIM2->SMCR = tmpsmcr;
                                   2639 ; genPointerSet
      000604 90 AE 52 52      [ 2] 2640 	ldw	y, #0x5252
      000608 9E               [ 1] 2641 	ld	a, xh
      000609 90 F7            [ 1] 2642 	ld	(y), a
                                   2643 ;	STM8L15x_StdPeriph_Driver/src/stm8l15x_tim2.c: 2005: TIM2->CCMR1 = tmpccmr1;
                                   2644 ; genPointerSet
      00060B 90 AE 52 59      [ 2] 2645 	ldw	y, #0x5259
      00060F 9F               [ 1] 2646 	ld	a, xl
      000610 90 F7            [ 1] 2647 	ld	(y), a
                                   2648 ;	STM8L15x_StdPeriph_Driver/src/stm8l15x_tim2.c: 2006: TIM2->CCMR2 = tmpccmr2;
                                   2649 ; genPointerSet
      000612 AE 52 5A         [ 2] 2650 	ldw	x, #0x525a
      000615 7B 01            [ 1] 2651 	ld	a, (0x01, sp)
      000617 F7               [ 1] 2652 	ld	(x), a
                                   2653 ; genLabel
                                   2654 ; peephole j30 removed unused label 00107$.
                                   2655 ;	STM8L15x_StdPeriph_Driver/src/stm8l15x_tim2.c: 2007: }
                                   2656 ; genEndFunction
      000618 1E 03            [ 2] 2657 	ldw	x, (3, sp)
      00061A 5B 06            [ 2] 2658 	addw	sp, #6
      00061C FC               [ 2] 2659 	jp	(x)
                                   2660 ;	Total TIM2_EncoderInterfaceConfig function size at codegen: 5 bytes.
                                   2661 ;	STM8L15x_StdPeriph_Driver/src/stm8l15x_tim2.c: 2015: void TIM2_SelectHallSensor(FunctionalState NewState)
                                   2662 ; genLabel
                                   2663 ;	-----------------------------------------
                                   2664 ;	 function TIM2_SelectHallSensor
                                   2665 ;	-----------------------------------------
                                   2666 ;	Register assignment is optimal.
                                   2667 ;	Stack space usage: 1 bytes.
      00061D                       2668 _TIM2_SelectHallSensor:
      00061D 88               [ 1] 2669 	push	a
                                   2670 ; genReceive
      00061E 6B 01            [ 1] 2671 	ld	(0x01, sp), a
                                   2672 ;	STM8L15x_StdPeriph_Driver/src/stm8l15x_tim2.c: 2023: TIM2->CR2 |= TIM_CR2_TI1S;
                                   2673 ; genPointerGet
      000620 C6 52 51         [ 1] 2674 	ld	a, 0x5251
                                   2675 ;	STM8L15x_StdPeriph_Driver/src/stm8l15x_tim2.c: 2021: if (NewState != DISABLE)
                                   2676 ; genIfx
      000623 0D 01            [ 1] 2677 	tnz	(0x01, sp)
                                   2678 ; peephole j5 changed absolute to relative unconditional jump.
      000625 27 07            [ 1] 2679 	jreq	00102$
                                   2680 ; peephole j10 removed jra by using inverse jump logic
                                   2681 ; peephole j30 removed unused label 00113$.
                                   2682 ;	STM8L15x_StdPeriph_Driver/src/stm8l15x_tim2.c: 2023: TIM2->CR2 |= TIM_CR2_TI1S;
                                   2683 ; genOr
      000627 AA 80            [ 1] 2684 	or	a, #0x80
                                   2685 ; genPointerSet
      000629 C7 52 51         [ 1] 2686 	ld	0x5251, a
                                   2687 ; genGoto
      00062C 20 05            [ 2] 2688 	jra	00104$
                                   2689 ; peephole j5 changed absolute to relative unconditional jump.
                                   2690 ; genLabel
      00062E                       2691 00102$:
                                   2692 ;	STM8L15x_StdPeriph_Driver/src/stm8l15x_tim2.c: 2027: TIM2->CR2 &= (uint8_t)(~TIM_CR2_TI1S);
                                   2693 ; genAnd
      00062E A4 7F            [ 1] 2694 	and	a, #0x7f
                                   2695 ; genPointerSet
      000630 C7 52 51         [ 1] 2696 	ld	0x5251, a
                                   2697 ; genLabel
      000633                       2698 00104$:
                                   2699 ;	STM8L15x_StdPeriph_Driver/src/stm8l15x_tim2.c: 2029: }
                                   2700 ; genEndFunction
      000633 84               [ 1] 2701 	pop	a
      000634 81               [ 4] 2702 	ret
                                   2703 ;	Total TIM2_SelectHallSensor function size at codegen: 2 bytes.
                                   2704 ;	STM8L15x_StdPeriph_Driver/src/stm8l15x_tim2.c: 2050: static void TI1_Config(TIM2_ICPolarity_TypeDef TIM2_ICPolarity, \
                                   2705 ; genLabel
                                   2706 ;	-----------------------------------------
                                   2707 ;	 function TI1_Config
                                   2708 ;	-----------------------------------------
                                   2709 ;	Register assignment might be sub-optimal.
                                   2710 ;	Stack space usage: 1 bytes.
      000635                       2711 _TI1_Config:
      000635 88               [ 1] 2712 	push	a
                                   2713 ; genReceive
                                   2714 ;	STM8L15x_StdPeriph_Driver/src/stm8l15x_tim2.c: 2055: uint8_t tmpicpolarity = TIM2_ICPolarity;
                                   2715 ; genCast
                                   2716 ; genAssign
      000636 97               [ 1] 2717 	ld	xl, a
                                   2718 ;	STM8L15x_StdPeriph_Driver/src/stm8l15x_tim2.c: 2056: tmpccmr1 = TIM2->CCMR1;
                                   2719 ; genPointerGet
      000637 C6 52 59         [ 1] 2720 	ld	a, 0x5259
      00063A 95               [ 1] 2721 	ld	xh, a
                                   2722 ;	STM8L15x_StdPeriph_Driver/src/stm8l15x_tim2.c: 2064: TIM2->CCER1 &=  (uint8_t)(~TIM_CCER1_CC1E);
                                   2723 ; genPointerGet
                                   2724 ; genAnd
                                   2725 ; genPointerSet
      00063B 72 11 52 5B      [ 1] 2726 	bres	0x525b, #0
                                   2727 ; peephole 204x replaced 'and' by 'bres' ('0x525b').
                                   2728 ;	STM8L15x_StdPeriph_Driver/src/stm8l15x_tim2.c: 2067: tmpccmr1 &= (uint8_t)(~TIM_CCMR_CCxS) & (uint8_t)(~TIM_CCMR_ICxF);
                                   2729 ; genAnd
      00063F 9E               [ 1] 2730 	ld	a, xh
      000640 A4 0C            [ 1] 2731 	and	a, #0x0c
      000642 6B 01            [ 1] 2732 	ld	(0x01, sp), a
                                   2733 ;	STM8L15x_StdPeriph_Driver/src/stm8l15x_tim2.c: 2068: tmpccmr1 |= (uint8_t)(((uint8_t)(TIM2_ICSelection)) | ((uint8_t)(TIM2_ICFilter << 4)));
                                   2734 ; genLeftShiftLiteral
      000644 7B 05            [ 1] 2735 	ld	a, (0x05, sp)
      000646 4E               [ 1] 2736 	swap	a
      000647 A4 F0            [ 1] 2737 	and	a, #0xf0
                                   2738 ; genOr
      000649 1A 04            [ 1] 2739 	or	a, (0x04, sp)
                                   2740 ; genOr
      00064B 1A 01            [ 1] 2741 	or	a, (0x01, sp)
                                   2742 ;	STM8L15x_StdPeriph_Driver/src/stm8l15x_tim2.c: 2070: TIM2->CCMR1 = tmpccmr1;
                                   2743 ; genPointerSet
      00064D C7 52 59         [ 1] 2744 	ld	0x5259, a
                                   2745 ;	STM8L15x_StdPeriph_Driver/src/stm8l15x_tim2.c: 2064: TIM2->CCER1 &=  (uint8_t)(~TIM_CCER1_CC1E);
                                   2746 ; genPointerGet
      000650 C6 52 5B         [ 1] 2747 	ld	a, 0x525b
                                   2748 ;	STM8L15x_StdPeriph_Driver/src/stm8l15x_tim2.c: 2073: if (tmpicpolarity == (uint8_t)(TIM2_ICPolarity_Falling))
                                   2749 ; genCmpEQorNE
      000653 88               [ 1] 2750 	push	a
      000654 9F               [ 1] 2751 	ld	a, xl
      000655 4A               [ 1] 2752 	dec	a
      000656 84               [ 1] 2753 	pop	a
                                   2754 ; peephole j5 changed absolute to relative unconditional jump.
                                   2755 ; peephole j10 removed jra by using inverse jump logic
                                   2756 ; peephole j30 removed unused label 00114$.
                                   2757 ; peephole j5 changed absolute to relative unconditional jump.
      000657 26 07            [ 1] 2758 	jrne	00102$
                                   2759 ; peephole j7 removed jra by using inverse jump logic
                                   2760 ; peephole j30 removed unused label 00115$.
                                   2761 ; skipping generated iCode
                                   2762 ;	STM8L15x_StdPeriph_Driver/src/stm8l15x_tim2.c: 2075: TIM2->CCER1 |= TIM_CCER1_CC1P;
                                   2763 ; genOr
      000659 AA 02            [ 1] 2764 	or	a, #0x02
                                   2765 ; genPointerSet
      00065B C7 52 5B         [ 1] 2766 	ld	0x525b, a
                                   2767 ; genGoto
      00065E 20 05            [ 2] 2768 	jra	00103$
                                   2769 ; peephole j5 changed absolute to relative unconditional jump.
                                   2770 ; genLabel
      000660                       2771 00102$:
                                   2772 ;	STM8L15x_StdPeriph_Driver/src/stm8l15x_tim2.c: 2079: TIM2->CCER1 &= (uint8_t)(~TIM_CCER1_CC1P);
                                   2773 ; genAnd
      000660 A4 FD            [ 1] 2774 	and	a, #0xfd
                                   2775 ; genPointerSet
      000662 C7 52 5B         [ 1] 2776 	ld	0x525b, a
                                   2777 ; genLabel
      000665                       2778 00103$:
                                   2779 ;	STM8L15x_StdPeriph_Driver/src/stm8l15x_tim2.c: 2083: TIM2->CCER1 |=  TIM_CCER1_CC1E;
                                   2780 ; genPointerGet
      000665 C6 52 5B         [ 1] 2781 	ld	a, 0x525b
                                   2782 ; genOr
      000668 AA 01            [ 1] 2783 	or	a, #0x01
                                   2784 ; genPointerSet
      00066A C7 52 5B         [ 1] 2785 	ld	0x525b, a
                                   2786 ; genLabel
                                   2787 ; peephole j30 removed unused label 00104$.
                                   2788 ;	STM8L15x_StdPeriph_Driver/src/stm8l15x_tim2.c: 2084: }
                                   2789 ; genEndFunction
      00066D 1E 02            [ 2] 2790 	ldw	x, (2, sp)
      00066F 5B 05            [ 2] 2791 	addw	sp, #5
      000671 FC               [ 2] 2792 	jp	(x)
                                   2793 ;	Total TI1_Config function size at codegen: 5 bytes.
                                   2794 ;	STM8L15x_StdPeriph_Driver/src/stm8l15x_tim2.c: 2101: static void TI2_Config(TIM2_ICPolarity_TypeDef TIM2_ICPolarity,
                                   2795 ; genLabel
                                   2796 ;	-----------------------------------------
                                   2797 ;	 function TI2_Config
                                   2798 ;	-----------------------------------------
                                   2799 ;	Register assignment might be sub-optimal.
                                   2800 ;	Stack space usage: 1 bytes.
      000672                       2801 _TI2_Config:
      000672 88               [ 1] 2802 	push	a
                                   2803 ; genReceive
                                   2804 ;	STM8L15x_StdPeriph_Driver/src/stm8l15x_tim2.c: 2106: uint8_t tmpicpolarity = TIM2_ICPolarity;
                                   2805 ; genCast
                                   2806 ; genAssign
      000673 97               [ 1] 2807 	ld	xl, a
                                   2808 ;	STM8L15x_StdPeriph_Driver/src/stm8l15x_tim2.c: 2113: tmpccmr2 = TIM2->CCMR2;
                                   2809 ; genPointerGet
      000674 C6 52 5A         [ 1] 2810 	ld	a, 0x525a
      000677 95               [ 1] 2811 	ld	xh, a
                                   2812 ;	STM8L15x_StdPeriph_Driver/src/stm8l15x_tim2.c: 2116: TIM2->CCER1 &=  (uint8_t)(~TIM_CCER1_CC2E);
                                   2813 ; genPointerGet
                                   2814 ; genAnd
                                   2815 ; genPointerSet
      000678 72 19 52 5B      [ 1] 2816 	bres	0x525b, #4
                                   2817 ; peephole 204x replaced 'and' by 'bres' ('0x525b').
                                   2818 ;	STM8L15x_StdPeriph_Driver/src/stm8l15x_tim2.c: 2119: tmpccmr2 &= (uint8_t)(~TIM_CCMR_CCxS) & (uint8_t)(~TIM_CCMR_ICxF);
                                   2819 ; genAnd
      00067C 9E               [ 1] 2820 	ld	a, xh
      00067D A4 0C            [ 1] 2821 	and	a, #0x0c
      00067F 6B 01            [ 1] 2822 	ld	(0x01, sp), a
                                   2823 ;	STM8L15x_StdPeriph_Driver/src/stm8l15x_tim2.c: 2120: tmpccmr2 |= (uint8_t)(((uint8_t)(TIM2_ICSelection)) | ((uint8_t)(TIM2_ICFilter << 4)));
                                   2824 ; genLeftShiftLiteral
      000681 7B 05            [ 1] 2825 	ld	a, (0x05, sp)
      000683 4E               [ 1] 2826 	swap	a
      000684 A4 F0            [ 1] 2827 	and	a, #0xf0
                                   2828 ; genOr
      000686 1A 04            [ 1] 2829 	or	a, (0x04, sp)
                                   2830 ; genOr
      000688 1A 01            [ 1] 2831 	or	a, (0x01, sp)
                                   2832 ;	STM8L15x_StdPeriph_Driver/src/stm8l15x_tim2.c: 2122: TIM2->CCMR2 = tmpccmr2;
                                   2833 ; genPointerSet
      00068A C7 52 5A         [ 1] 2834 	ld	0x525a, a
                                   2835 ;	STM8L15x_StdPeriph_Driver/src/stm8l15x_tim2.c: 2116: TIM2->CCER1 &=  (uint8_t)(~TIM_CCER1_CC2E);
                                   2836 ; genPointerGet
      00068D C6 52 5B         [ 1] 2837 	ld	a, 0x525b
                                   2838 ;	STM8L15x_StdPeriph_Driver/src/stm8l15x_tim2.c: 2125: if (tmpicpolarity == TIM2_ICPolarity_Falling)
                                   2839 ; genCmpEQorNE
      000690 88               [ 1] 2840 	push	a
      000691 9F               [ 1] 2841 	ld	a, xl
      000692 4A               [ 1] 2842 	dec	a
      000693 84               [ 1] 2843 	pop	a
                                   2844 ; peephole j5 changed absolute to relative unconditional jump.
                                   2845 ; peephole j10 removed jra by using inverse jump logic
                                   2846 ; peephole j30 removed unused label 00114$.
                                   2847 ; peephole j5 changed absolute to relative unconditional jump.
      000694 26 07            [ 1] 2848 	jrne	00102$
                                   2849 ; peephole j7 removed jra by using inverse jump logic
                                   2850 ; peephole j30 removed unused label 00115$.
                                   2851 ; skipping generated iCode
                                   2852 ;	STM8L15x_StdPeriph_Driver/src/stm8l15x_tim2.c: 2127: TIM2->CCER1 |= TIM_CCER1_CC2P ;
                                   2853 ; genOr
      000696 AA 20            [ 1] 2854 	or	a, #0x20
                                   2855 ; genPointerSet
      000698 C7 52 5B         [ 1] 2856 	ld	0x525b, a
                                   2857 ; genGoto
      00069B 20 05            [ 2] 2858 	jra	00103$
                                   2859 ; peephole j5 changed absolute to relative unconditional jump.
                                   2860 ; genLabel
      00069D                       2861 00102$:
                                   2862 ;	STM8L15x_StdPeriph_Driver/src/stm8l15x_tim2.c: 2131: TIM2->CCER1 &= (uint8_t)(~TIM_CCER1_CC2P) ;
                                   2863 ; genAnd
      00069D A4 DF            [ 1] 2864 	and	a, #0xdf
                                   2865 ; genPointerSet
      00069F C7 52 5B         [ 1] 2866 	ld	0x525b, a
                                   2867 ; genLabel
      0006A2                       2868 00103$:
                                   2869 ;	STM8L15x_StdPeriph_Driver/src/stm8l15x_tim2.c: 2135: TIM2->CCER1 |=  TIM_CCER1_CC2E;
                                   2870 ; genPointerGet
      0006A2 C6 52 5B         [ 1] 2871 	ld	a, 0x525b
                                   2872 ; genOr
      0006A5 AA 10            [ 1] 2873 	or	a, #0x10
                                   2874 ; genPointerSet
      0006A7 C7 52 5B         [ 1] 2875 	ld	0x525b, a
                                   2876 ; genLabel
                                   2877 ; peephole j30 removed unused label 00104$.
                                   2878 ;	STM8L15x_StdPeriph_Driver/src/stm8l15x_tim2.c: 2136: }
                                   2879 ; genEndFunction
      0006AA 1E 02            [ 2] 2880 	ldw	x, (2, sp)
      0006AC 5B 05            [ 2] 2881 	addw	sp, #5
      0006AE FC               [ 2] 2882 	jp	(x)
                                   2883 ;	Total TI2_Config function size at codegen: 5 bytes.
                                   2884 	.area CODE
                                   2885 	.area CONST
                                   2886 	.area INITIALIZER
                                   2887 	.area CABS (ABS)
