                                      1 ;--------------------------------------------------------
                                      2 ; File Created by SDCC : free open source ISO C Compiler
                                      3 ; Version 4.5.0 #15242 (Mac OS X x86_64)
                                      4 ;--------------------------------------------------------
                                      5 	.module eric_proc
                                      6 	
                                      7 ;--------------------------------------------------------
                                      8 ; Public variables in this module
                                      9 ;--------------------------------------------------------
                                     10 	.globl _Rs485_GetCfg
                                     11 	.globl _Get_Record
                                     12 	.globl _crc_verify
                                     13 	.globl _Rev16
                                     14 	.globl _Load_Stat
                                     15 	.globl _Save_Stat
                                     16 	.globl _Load_Data
                                     17 	.globl _Save_Data
                                     18 	.globl _rtc_set_datetime
                                     19 	.globl _I2C_WriteByte
                                     20 	.globl _I2C_ReadByte
                                     21 	.globl _Uart1_Send
                                     22 	.globl _Uart1_Init
                                     23 	.globl _Delay
                                     24 	.globl ___memcpy
                                     25 	.globl _memset
                                     26 	.globl _WWDG_SWReset
                                     27 	.globl _USART_DeInit
                                     28 	.globl _GPIO_ReadInputDataBit
                                     29 	.globl _GPIO_Init
                                     30 	.globl _r485rlt
                                     31 	.globl _r485id
                                     32 	.globl _selfid
                                     33 	.globl _ticks
                                     34 	.globl _strokeC
                                     35 	.globl _strokeB
                                     36 	.globl _strokeA
                                     37 	.globl _pkt1
                                     38 	.globl _rsUbuf
                                     39 	.globl _c_ackquery
                                     40 	.globl _m_query
                                     41 	.globl _c_ackcfg
                                     42 	.globl _m_cfg
                                     43 	.globl _lrecd
                                     44 	.globl _recd
                                     45 	.globl _MsgSystem
                                     46 	.globl _single_trg
                                     47 	.globl _mini_sprintf
                                     48 	.globl _System_GetMode
                                     49 	.globl _System_InitMode
                                     50 	.globl _Record_GetStat
                                     51 	.globl _Record_GetRecd
                                     52 	.globl _Record_GetLRecd
                                     53 	.globl _Storage_SaveAllStats
                                     54 	.globl _Record_SaveNew
                                     55 	.globl _Record_LoadHistory
                                     56 	.globl _CRC_GetModbus16
                                     57 	.globl _InitMsg
                                     58 	.globl _SendMsg
                                     59 	.globl _RevMsg
                                     60 	.globl _A_Fxn
                                     61 	.globl _B_Fxn
                                     62 	.globl _C_Fxn
                                     63 	.globl _Pkt_485ackquery
                                     64 	.globl _Rs485_Proc
                                     65 	.globl _Chk_State
                                     66 	.globl _Storage_SaveSettings
                                     67 	.globl _Storage_ClearHistory
                                     68 	.globl _Storage_FactoryReset
                                     69 	.globl _Storage_Init
                                     70 ;--------------------------------------------------------
                                     71 ; ram data
                                     72 ;--------------------------------------------------------
                                     73 	.area DATA
      000000                         74 _single_trg::
      000000                         75 	.ds 1
      000001                         76 _MsgSystem::
      000001                         77 	.ds 290
      000123                         78 _recd::
      000123                         79 	.ds 10
      00012D                         80 _lrecd::
      00012D                         81 	.ds 10
      000137                         82 _m_cfg::
      000137                         83 	.ds 88
      00018F                         84 _c_ackcfg::
      00018F                         85 	.ds 8
      000197                         86 _m_query::
      000197                         87 	.ds 8
      00019F                         88 _c_ackquery::
      00019F                         89 	.ds 128
      00021F                         90 _rsUbuf::
      00021F                         91 	.ds 128
      00029F                         92 _pkt1::
      00029F                         93 	.ds 128
      00031F                         94 _A_Fxn_psta_10000_740:
      00031F                         95 	.ds 4
      000323                         96 _B_Fxn_pstb_10000_747:
      000323                         97 	.ds 4
      000327                         98 _C_Fxn_pstc_10000_754:
      000327                         99 	.ds 4
      00032B                        100 _Rs485_Proc_temp1_10000_793:
      00032B                        101 	.ds 1
      00032C                        102 _Rs485_Proc_temp2_10000_793:
      00032C                        103 	.ds 1
      00032D                        104 _Rs485_Proc_stateU_10000_793:
      00032D                        105 	.ds 1
      00032E                        106 _Rs485_Proc_timeout_10000_793:
      00032E                        107 	.ds 1
      00032F                        108 _Chk_State_last_10000_810:
      00032F                        109 	.ds 1
                                    110 ;--------------------------------------------------------
                                    111 ; ram data
                                    112 ;--------------------------------------------------------
                                    113 	.area INITIALIZED
      000000                        114 _strokeA::
      000000                        115 	.ds 13
      00000D                        116 _strokeB::
      00000D                        117 	.ds 13
      00001A                        118 _strokeC::
      00001A                        119 	.ds 13
      000027                        120 _ticks::
      000027                        121 	.ds 4
      00002B                        122 _stt:
      00002B                        123 	.ds 70
      000071                        124 _selfid::
      000071                        125 	.ds 4
      000075                        126 _r485id::
      000075                        127 	.ds 1
      000076                        128 _r485rlt::
      000076                        129 	.ds 14
      000084                        130 _sysmode:
      000084                        131 	.ds 1
                                    132 ;--------------------------------------------------------
                                    133 ; absolute external ram data
                                    134 ;--------------------------------------------------------
                                    135 	.area DABS (ABS)
                                    136 
                                    137 ; default segment ordering for linker
                                    138 	.area HOME
                                    139 	.area GSINIT
                                    140 	.area GSFINAL
                                    141 	.area CONST
                                    142 	.area INITIALIZER
                                    143 	.area CODE
                                    144 
                                    145 ;--------------------------------------------------------
                                    146 ; global & static initialisations
                                    147 ;--------------------------------------------------------
                                    148 	.area HOME
                                    149 	.area GSINIT
                                    150 	.area GSFINAL
                                    151 	.area GSINIT
                                    152 ;	User/eric_proc.c: 275: static uint8_t  psta[4] = {0};
                                    153 ; skipping iCode since result will be rematerialized
                                    154 ; genPointerSet
      000000 35 00u03u1F      [ 1]  155 	mov	_A_Fxn_psta_10000_740+0, #0x00
                                    156 ; skipping iCode since result will be rematerialized
                                    157 ; genPointerSet
      000004 35 00u03u20      [ 1]  158 	mov	_A_Fxn_psta_10000_740+1, #0x00
                                    159 ; skipping iCode since result will be rematerialized
                                    160 ; genPointerSet
      000008 35 00u03u21      [ 1]  161 	mov	_A_Fxn_psta_10000_740+2, #0x00
                                    162 ; skipping iCode since result will be rematerialized
                                    163 ; genPointerSet
      00000C 35 00u03u22      [ 1]  164 	mov	_A_Fxn_psta_10000_740+3, #0x00
                                    165 ;	User/eric_proc.c: 314: static uint8_t  pstb[4] = {0};
                                    166 ; skipping iCode since result will be rematerialized
                                    167 ; genPointerSet
      000010 35 00u03u23      [ 1]  168 	mov	_B_Fxn_pstb_10000_747+0, #0x00
                                    169 ; skipping iCode since result will be rematerialized
                                    170 ; genPointerSet
      000014 35 00u03u24      [ 1]  171 	mov	_B_Fxn_pstb_10000_747+1, #0x00
                                    172 ; skipping iCode since result will be rematerialized
                                    173 ; genPointerSet
      000018 35 00u03u25      [ 1]  174 	mov	_B_Fxn_pstb_10000_747+2, #0x00
                                    175 ; skipping iCode since result will be rematerialized
                                    176 ; genPointerSet
      00001C 35 00u03u26      [ 1]  177 	mov	_B_Fxn_pstb_10000_747+3, #0x00
                                    178 ;	User/eric_proc.c: 352: static uint8_t  pstc[4] = {0};
                                    179 ; skipping iCode since result will be rematerialized
                                    180 ; genPointerSet
      000020 35 00u03u27      [ 1]  181 	mov	_C_Fxn_pstc_10000_754+0, #0x00
                                    182 ; skipping iCode since result will be rematerialized
                                    183 ; genPointerSet
      000024 35 00u03u28      [ 1]  184 	mov	_C_Fxn_pstc_10000_754+1, #0x00
                                    185 ; skipping iCode since result will be rematerialized
                                    186 ; genPointerSet
      000028 35 00u03u29      [ 1]  187 	mov	_C_Fxn_pstc_10000_754+2, #0x00
                                    188 ; skipping iCode since result will be rematerialized
                                    189 ; genPointerSet
      00002C 35 00u03u2A      [ 1]  190 	mov	_C_Fxn_pstc_10000_754+3, #0x00
                                    191 ;	User/eric_proc.c: 578: static uint8_t temp1 = 0, temp2 = 0, stateU = 0, timeout = 10;
                                    192 ; genAssign
      000030 72 5Fu03u2B      [ 1]  193 	clr	_Rs485_Proc_temp1_10000_793+0
                                    194 ; genAssign
      000034 72 5Fu03u2C      [ 1]  195 	clr	_Rs485_Proc_temp2_10000_793+0
                                    196 ; genAssign
      000038 72 5Fu03u2D      [ 1]  197 	clr	_Rs485_Proc_stateU_10000_793+0
                                    198 ; genAssign
      00003C 35 0Au03u2E      [ 1]  199 	mov	_Rs485_Proc_timeout_10000_793+0, #0x0a
                                    200 ;	User/eric_proc.c: 695: static uint8_t last = 0;
                                    201 ; genAssign
      000040 72 5Fu03u2F      [ 1]  202 	clr	_Chk_State_last_10000_810+0
                                    203 ;--------------------------------------------------------
                                    204 ; Home
                                    205 ;--------------------------------------------------------
                                    206 	.area HOME
                                    207 	.area HOME
                                    208 ;--------------------------------------------------------
                                    209 ; code
                                    210 ;--------------------------------------------------------
                                    211 	.area CODE
                                    212 ;	User/eric_proc.c: 6: static void itoa_pad(char **buf, uint32_t val, int width, char pad, int is_signed) {
                                    213 ; genLabel
                                    214 ;	-----------------------------------------
                                    215 ;	 function itoa_pad
                                    216 ;	-----------------------------------------
                                    217 ;	Register assignment might be sub-optimal.
                                    218 ;	Stack space usage: 22 bytes.
      000000                        219 _itoa_pad:
      000000 52 16            [ 2]  220 	sub	sp, #22
                                    221 ; genReceive
      000002 1F 13            [ 2]  222 	ldw	(0x13, sp), x
                                    223 ;	User/eric_proc.c: 11: if (is_signed && (int32_t)val < 0) {
                                    224 ; genIfx
      000004 1E 20            [ 2]  225 	ldw	x, (0x20, sp)
                                    226 ; peephole j5 changed absolute to relative unconditional jump.
      000006 27 2E            [ 1]  227 	jreq	00102$
                                    228 ; peephole j10 removed jra by using inverse jump logic
                                    229 ; peephole j30 removed unused label 00184$.
                                    230 ; genCast
                                    231 ; genAssign
      000008 16 1B            [ 2]  232 	ldw	y, (0x1b, sp)
      00000A 17 03            [ 2]  233 	ldw	(0x03, sp), y
      00000C 16 19            [ 2]  234 	ldw	y, (0x19, sp)
      00000E 17 01            [ 2]  235 	ldw	(0x01, sp), y
                                    236 ; genCmp
                                    237 ; genCmpTnz
      000010 0D 01            [ 1]  238 	tnz	(0x01, sp)
                                    239 ; peephole j5 changed absolute to relative unconditional jump.
      000012 2A 22            [ 1]  240 	jrpl	00102$
                                    241 ; peephole j8 removed jra by using inverse jump logic
                                    242 ; peephole j30 removed unused label 00185$.
                                    243 ; skipping generated iCode
                                    244 ;	User/eric_proc.c: 12: *(*buf)++ = '-';
                                    245 ; genPointerGet
      000014 1E 13            [ 2]  246 	ldw	x, (0x13, sp)
      000016 FE               [ 2]  247 	ldw	x, (x)
                                    248 ; genPlus
      000017 1F 15            [ 2]  249 	ldw	(0x15, sp), x
                                    250 ; peephole 4w removed redundant load from (0x15, sp) into x.
      000019 5C               [ 1]  251 	incw	x
                                    252 ; genPointerSet
      00001A 16 13            [ 2]  253 	ldw	y, (0x13, sp)
      00001C 90 FF            [ 2]  254 	ldw	(y), x
                                    255 ; genPointerSet
      00001E 1E 15            [ 2]  256 	ldw	x, (0x15, sp)
      000020 A6 2D            [ 1]  257 	ld	a, #0x2d
      000022 F7               [ 1]  258 	ld	(x), a
                                    259 ;	User/eric_proc.c: 13: val = (uint32_t)(-(int32_t)val);
                                    260 ; genUminus
      000023 16 03            [ 2]  261 	ldw	y, (0x03, sp)
      000025 90 50            [ 2]  262 	negw	y
      000027 1E 01            [ 2]  263 	ldw	x, (0x01, sp)
      000029 24 01            [ 1]  264 	jrnc	00186$
      00002B 5C               [ 1]  265 	incw	x
      00002C                        266 00186$:
      00002C 50               [ 2]  267 	negw	x
                                    268 ; genCast
                                    269 ; genAssign
                                    270 ; genAssign
      00002D 17 1B            [ 2]  271 	ldw	(0x1b, sp), y
      00002F 1F 19            [ 2]  272 	ldw	(0x19, sp), x
                                    273 ;	User/eric_proc.c: 14: width--;
                                    274 ; genMinus
      000031 1E 1D            [ 2]  275 	ldw	x, (0x1d, sp)
      000033 5A               [ 2]  276 	decw	x
                                    277 ; genAssign
      000034 1F 1D            [ 2]  278 	ldw	(0x1d, sp), x
                                    279 ; genLabel
      000036                        280 00102$:
                                    281 ;	User/eric_proc.c: 17: if (val == 0) {
                                    282 ; genIfx
      000036 1E 1B            [ 2]  283 	ldw	x, (0x1b, sp)
      000038 26 0D            [ 1]  284 	jrne	00122$
                                    285 ; peephole j22 jumped to 00122$ directly instead of via 00187$.
                                    286 ; peephole j30 removed unused label 00187$.
                                    287 ; peephole j5 changed absolute to relative unconditional jump.
                                    288 ; peephole j7 removed jra by using inverse jump logic
                                    289 ; peephole j30 removed unused label 00188$.
                                    290 ;	User/eric_proc.c: 18: temp[i++] = '0';
                                    291 ; skipping iCode since result will be rematerialized
                                    292 ; genAssign
      00003A 1E 19            [ 2]  293 	ldw	x, (0x19, sp)
      00003C 26 09            [ 1]  294 	jrne	00122$
                                    295 ; peephole 22d removed redundant clrw x.
      00003E 5C               [ 1]  296 	incw	x
      00003F 1F 11            [ 2]  297 	ldw	(0x11, sp), x
                                    298 ; genPointerSet
      000041 A6 30            [ 1]  299 	ld	a, #0x30
      000043 6B 05            [ 1]  300 	ld	(0x05, sp), a
                                    301 ; genGoto
      000045 20 4B            [ 2]  302 	jra	00124$
                                    303 ; peephole j5 changed absolute to relative unconditional jump.
                                    304 ;	User/eric_proc.c: 20: while (val > 0) {
                                    305 ; genLabel
      000047                        306 00122$:
                                    307 ; skipping iCode since result will be rematerialized
                                    308 ; genAssign
      000047 5F               [ 1]  309 	clrw	x
      000048 1F 15            [ 2]  310 	ldw	(0x15, sp), x
                                    311 ; genLabel
      00004A                        312 00104$:
                                    313 ; genIfx
      00004A 1E 1B            [ 2]  314 	ldw	x, (0x1b, sp)
      00004C 26 04            [ 1]  315 	jrne	00189$
      00004E 1E 19            [ 2]  316 	ldw	x, (0x19, sp)
                                    317 ; peephole j5 changed absolute to relative unconditional jump.
      000050 27 3C            [ 1]  318 	jreq	00127$
                                    319 ; peephole j10 removed jra by using inverse jump logic
      000052                        320 00189$:
                                    321 ;	User/eric_proc.c: 21: temp[i++] = (val % 10) + '0';
                                    322 ; genPlus
      000052 96               [ 1]  323 	ldw	x, sp
      000053 1C 00 05         [ 2]  324 	addw	x, #5
      000056 72 FB 15         [ 2]  325 	addw	x, (0x15, sp)
      000059 1F 11            [ 2]  326 	ldw	(0x11, sp), x
                                    327 ; genPlus
      00005B 1E 15            [ 2]  328 	ldw	x, (0x15, sp)
      00005D 5C               [ 1]  329 	incw	x
      00005E 1F 15            [ 2]  330 	ldw	(0x15, sp), x
                                    331 ; peephole j30 removed unused label 00190$.
                                    332 ; genIPush
      000060 4B 0A            [ 1]  333 	push	#0x0a
      000062 5F               [ 1]  334 	clrw	x
      000063 89               [ 2]  335 	pushw	x
      000064 4B 00            [ 1]  336 	push	#0x00
                                    337 ; genIPush
      000066 1E 1F            [ 2]  338 	ldw	x, (0x1f, sp)
      000068 89               [ 2]  339 	pushw	x
      000069 1E 1F            [ 2]  340 	ldw	x, (0x1f, sp)
      00006B 89               [ 2]  341 	pushw	x
                                    342 ; genCall
      00006C CDr00r00         [ 4]  343 	call	__modulong
      00006F 5B 08            [ 2]  344 	addw	sp, #8
                                    345 ; genCast
                                    346 ; genAssign
      000071 9F               [ 1]  347 	ld	a, xl
                                    348 ; genCast
                                    349 ; genAssign
                                    350 ; genPlus
      000072 AB 30            [ 1]  351 	add	a, #0x30
                                    352 ; genPointerSet
      000074 1E 11            [ 2]  353 	ldw	x, (0x11, sp)
      000076 F7               [ 1]  354 	ld	(x), a
                                    355 ;	User/eric_proc.c: 22: val /= 10;
                                    356 ; genIPush
      000077 4B 0A            [ 1]  357 	push	#0x0a
      000079 5F               [ 1]  358 	clrw	x
      00007A 89               [ 2]  359 	pushw	x
      00007B 4B 00            [ 1]  360 	push	#0x00
                                    361 ; genIPush
      00007D 1E 1F            [ 2]  362 	ldw	x, (0x1f, sp)
      00007F 89               [ 2]  363 	pushw	x
      000080 1E 1F            [ 2]  364 	ldw	x, (0x1f, sp)
      000082 89               [ 2]  365 	pushw	x
                                    366 ; genCall
      000083 CDr00r00         [ 4]  367 	call	__divulong
      000086 5B 08            [ 2]  368 	addw	sp, #8
                                    369 ; genAssign
      000088 1F 1B            [ 2]  370 	ldw	(0x1b, sp), x
      00008A 17 19            [ 2]  371 	ldw	(0x19, sp), y
                                    372 ; genGoto
      00008C 20 BC            [ 2]  373 	jra	00104$
                                    374 ; peephole j5 changed absolute to relative unconditional jump.
                                    375 ;	User/eric_proc.c: 26: while (width > i) {
                                    376 ; genLabel
      00008E                        377 00127$:
                                    378 ; genAssign
      00008E 16 15            [ 2]  379 	ldw	y, (0x15, sp)
      000090 17 11            [ 2]  380 	ldw	(0x11, sp), y
                                    381 ; genLabel
      000092                        382 00124$:
                                    383 ; genAssign
      000092 16 1D            [ 2]  384 	ldw	y, (0x1d, sp)
      000094 17 15            [ 2]  385 	ldw	(0x15, sp), y
                                    386 ; genLabel
      000096                        387 00110$:
                                    388 ; genCmp
                                    389 ; genCmpTnz
      000096 1E 15            [ 2]  390 	ldw	x, (0x15, sp)
      000098 13 11            [ 2]  391 	cpw	x, (0x11, sp)
                                    392 ; peephole j5 changed absolute to relative unconditional jump.
      00009A 2D 16            [ 1]  393 	jrsle	00126$
                                    394 ; peephole j13 removed jra by using inverse jump logic
                                    395 ; peephole j30 removed unused label 00191$.
                                    396 ; skipping generated iCode
                                    397 ;	User/eric_proc.c: 27: *(*buf)++ = pad;
                                    398 ; genPointerGet
      00009C 1E 13            [ 2]  399 	ldw	x, (0x13, sp)
      00009E FE               [ 2]  400 	ldw	x, (x)
                                    401 ; genPlus
      00009F 1F 03            [ 2]  402 	ldw	(0x03, sp), x
                                    403 ; peephole 4w removed redundant load from (0x03, sp) into x.
      0000A1 5C               [ 1]  404 	incw	x
                                    405 ; genPointerSet
      0000A2 16 13            [ 2]  406 	ldw	y, (0x13, sp)
      0000A4 90 FF            [ 2]  407 	ldw	(y), x
                                    408 ; genPointerSet
      0000A6 1E 03            [ 2]  409 	ldw	x, (0x03, sp)
      0000A8 7B 1F            [ 1]  410 	ld	a, (0x1f, sp)
      0000AA F7               [ 1]  411 	ld	(x), a
                                    412 ;	User/eric_proc.c: 28: width--;
                                    413 ; genMinus
      0000AB 1E 15            [ 2]  414 	ldw	x, (0x15, sp)
      0000AD 5A               [ 2]  415 	decw	x
      0000AE 1F 15            [ 2]  416 	ldw	(0x15, sp), x
                                    417 ; genGoto
      0000B0 20 E4            [ 2]  418 	jra	00110$
                                    419 ; peephole j5 changed absolute to relative unconditional jump.
                                    420 ;	User/eric_proc.c: 31: while (i > 0) {
                                    421 ; genLabel
      0000B2                        422 00126$:
                                    423 ; skipping iCode since result will be rematerialized
                                    424 ; genAssign
      0000B2 16 11            [ 2]  425 	ldw	y, (0x11, sp)
      0000B4 17 15            [ 2]  426 	ldw	(0x15, sp), y
                                    427 ; genLabel
      0000B6                        428 00113$:
                                    429 ; genCmp
                                    430 ; genCmpTnz
      0000B6 1E 15            [ 2]  431 	ldw	x, (0x15, sp)
      0000B8 A3 00 00         [ 2]  432 	cpw	x, #0x0000
                                    433 ; peephole j5 changed absolute to relative unconditional jump.
      0000BB 2D 1C            [ 1]  434 	jrsle	00116$
                                    435 ; peephole j13 removed jra by using inverse jump logic
                                    436 ; peephole j30 removed unused label 00192$.
                                    437 ; skipping generated iCode
                                    438 ;	User/eric_proc.c: 32: *(*buf)++ = temp[--i];
                                    439 ; genPointerGet
      0000BD 1E 13            [ 2]  440 	ldw	x, (0x13, sp)
      0000BF FE               [ 2]  441 	ldw	x, (x)
                                    442 ; genPlus
      0000C0 1F 11            [ 2]  443 	ldw	(0x11, sp), x
                                    444 ; peephole 4w removed redundant load from (0x11, sp) into x.
      0000C2 5C               [ 1]  445 	incw	x
                                    446 ; genPointerSet
      0000C3 16 13            [ 2]  447 	ldw	y, (0x13, sp)
      0000C5 90 FF            [ 2]  448 	ldw	(y), x
                                    449 ; genMinus
      0000C7 1E 15            [ 2]  450 	ldw	x, (0x15, sp)
      0000C9 5A               [ 2]  451 	decw	x
      0000CA 1F 15            [ 2]  452 	ldw	(0x15, sp), x
                                    453 ; genPlus
      0000CC 96               [ 1]  454 	ldw	x, sp
      0000CD 1C 00 05         [ 2]  455 	addw	x, #5
      0000D0 72 FB 15         [ 2]  456 	addw	x, (0x15, sp)
                                    457 ; genPointerGet
      0000D3 F6               [ 1]  458 	ld	a, (x)
                                    459 ; genPointerSet
      0000D4 1E 11            [ 2]  460 	ldw	x, (0x11, sp)
      0000D6 F7               [ 1]  461 	ld	(x), a
                                    462 ; genGoto
      0000D7 20 DD            [ 2]  463 	jra	00113$
                                    464 ; peephole j5 changed absolute to relative unconditional jump.
                                    465 ; genLabel
      0000D9                        466 00116$:
                                    467 ;	User/eric_proc.c: 34: }
                                    468 ; genEndFunction
      0000D9 1E 17            [ 2]  469 	ldw	x, (23, sp)
      0000DB 5B 21            [ 2]  470 	addw	sp, #33
      0000DD FC               [ 2]  471 	jp	(x)
                                    472 ;	Total itoa_pad function size at codegen: 5 bytes.
                                    473 ;	User/eric_proc.c: 37: void mini_sprintf(char *buffer, const char *format, ...) {
                                    474 ; genLabel
                                    475 ;	-----------------------------------------
                                    476 ;	 function mini_sprintf
                                    477 ;	-----------------------------------------
                                    478 ;	Register assignment might be sub-optimal.
                                    479 ;	Stack space usage: 12 bytes.
      0000DE                        480 _mini_sprintf:
      0000DE 52 0C            [ 2]  481 	sub	sp, #12
                                    482 ;	User/eric_proc.c: 39: va_start(args, format);
                                    483 ; skipping iCode since result will be rematerialized
                                    484 ; skipping iCode since result will be rematerialized
                                    485 ; genPlus
      0000E0 96               [ 1]  486 	ldw	x, sp
      0000E1 1C 00 13         [ 2]  487 	addw	x, #19
      0000E4 1F 01            [ 2]  488 	ldw	(0x01, sp), x
                                    489 ;	User/eric_proc.c: 46: while (*format) {
                                    490 ; genLabel
      0000E6                        491 00124$:
                                    492 ; genAssign
      0000E6 16 11            [ 2]  493 	ldw	y, (0x11, sp)
                                    494 ; genPointerGet
      0000E8 17 0B            [ 2]  495 	ldw	(0x0b, sp), y
      0000EA 93               [ 1]  496 	ldw	x, y
                                    497 ; peephole 15 replaced load from (0x0b, sp) into x by load from y into x.
      0000EB F6               [ 1]  498 	ld	a, (x)
                                    499 ;	User/eric_proc.c: 82: *buffer++ = *format;
                                    500 ; genAssign
      0000EC 16 0F            [ 2]  501 	ldw	y, (0x0f, sp)
      0000EE 17 03            [ 2]  502 	ldw	(0x03, sp), y
                                    503 ;	User/eric_proc.c: 46: while (*format) {
                                    504 ; genIfx
      0000F0 4D               [ 1]  505 	tnz	a
      0000F1 26 03            [ 1]  506 	jrne	00222$
      0000F3 CCr01rFC         [ 2]  507 	jp	00126$
      0000F6                        508 00222$:
                                    509 ;	User/eric_proc.c: 47: if (*format == '%') {
                                    510 ; genCmpEQorNE
      0000F6 A1 25            [ 1]  511 	cp	a, #0x25
                                    512 ; peephole j5 changed absolute to relative unconditional jump.
      0000F8 27 03            [ 1]  513 	jreq	00225$
                                    514 ; peephole j10 removed jra by using inverse jump logic
                                    515 ; peephole j30 removed unused label 00224$.
      0000FA CCr01rE8         [ 2]  516 	jp	00122$
      0000FD                        517 00225$:
                                    518 ; skipping generated iCode
                                    519 ;	User/eric_proc.c: 48: format++;
                                    520 ; genPlus
      0000FD 1E 0B            [ 2]  521 	ldw	x, (0x0b, sp)
      0000FF 5C               [ 1]  522 	incw	x
                                    523 ; genAssign
      000100 1F 11            [ 2]  524 	ldw	(0x11, sp), x
                                    525 ;	User/eric_proc.c: 49: is_long = 0;
                                    526 ; genAssign
      000102 0F 05            [ 1]  527 	clr	(0x05, sp)
                                    528 ;	User/eric_proc.c: 50: width = 0;
                                    529 ; genAssign
      000104 5F               [ 1]  530 	clrw	x
      000105 1F 06            [ 2]  531 	ldw	(0x06, sp), x
                                    532 ;	User/eric_proc.c: 51: pad = ' ';
                                    533 ; genAssign
      000107 A6 20            [ 1]  534 	ld	a, #0x20
      000109 6B 08            [ 1]  535 	ld	(0x08, sp), a
                                    536 ;	User/eric_proc.c: 53: if (*format == '0') {
                                    537 ; genAssign
      00010B 16 11            [ 2]  538 	ldw	y, (0x11, sp)
                                    539 ; genPointerGet
      00010D 17 09            [ 2]  540 	ldw	(0x09, sp), y
      00010F 93               [ 1]  541 	ldw	x, y
                                    542 ; peephole 15 replaced load from (0x09, sp) into x by load from y into x.
      000110 F6               [ 1]  543 	ld	a, (x)
                                    544 ; genCmpEQorNE
      000111 A1 30            [ 1]  545 	cp	a, #0x30
                                    546 ; peephole j5 changed absolute to relative unconditional jump.
                                    547 ; peephole j10 removed jra by using inverse jump logic
                                    548 ; peephole j30 removed unused label 00227$.
                                    549 ; peephole j5 changed absolute to relative unconditional jump.
      000113 26 0B            [ 1]  550 	jrne	00134$
                                    551 ; peephole j7 removed jra by using inverse jump logic
                                    552 ; peephole j30 removed unused label 00228$.
                                    553 ; skipping generated iCode
                                    554 ;	User/eric_proc.c: 54: pad = '0';
                                    555 ; genAssign
      000115 A6 30            [ 1]  556 	ld	a, #0x30
      000117 6B 08            [ 1]  557 	ld	(0x08, sp), a
                                    558 ;	User/eric_proc.c: 55: format++;
                                    559 ; genPlus
      000119 1E 09            [ 2]  560 	ldw	x, (0x09, sp)
      00011B 5C               [ 1]  561 	incw	x
                                    562 ; genAssign
      00011C 1F 0B            [ 2]  563 	ldw	(0x0b, sp), x
                                    564 ; peephole 14 replaced load from (0x0b, sp) into y by load from x into y.
      00011E 1F 11            [ 2]  565 	ldw	(0x11, sp), x
                                    566 ; peephole 14a loaded (0x11, sp) directly from x instead of going through y.
                                    567 ;	User/eric_proc.c: 58: while (*format >= '0' && *format <= '9') {
                                    568 ; genLabel
      000120                        569 00134$:
                                    570 ; genAssign
      000120 16 11            [ 2]  571 	ldw	y, (0x11, sp)
      000122 17 0B            [ 2]  572 	ldw	(0x0b, sp), y
                                    573 ; genLabel
      000124                        574 00104$:
                                    575 ; genPointerGet
      000124 1E 0B            [ 2]  576 	ldw	x, (0x0b, sp)
      000126 F6               [ 1]  577 	ld	a, (x)
                                    578 ;	User/eric_proc.c: 60: format++;
                                    579 ; genPlus
      000127 16 0B            [ 2]  580 	ldw	y, (0x0b, sp)
      000129 90 5C            [ 1]  581 	incw	y
                                    582 ;	User/eric_proc.c: 58: while (*format >= '0' && *format <= '9') {
                                    583 ; genCmp
                                    584 ; genCmpTnz
      00012B A1 30            [ 1]  585 	cp	a, #0x30
                                    586 ; peephole j5 changed absolute to relative unconditional jump.
      00012D 25 1E            [ 1]  587 	jrc	00142$
                                    588 ; peephole j9 removed jra by using inverse jump logic
                                    589 ; peephole j30 removed unused label 00229$.
                                    590 ; skipping generated iCode
                                    591 ; genCmp
                                    592 ; genCmpTnz
      00012F A1 39            [ 1]  593 	cp	a, #0x39
                                    594 ; peephole j5 changed absolute to relative unconditional jump.
      000131 22 1A            [ 1]  595 	jrugt	00142$
                                    596 ; peephole j17 removed jp by using inverse jump logic
                                    597 ; peephole j30 removed unused label 00230$.
                                    598 ; skipping generated iCode
                                    599 ;	User/eric_proc.c: 59: width = width * 10 + (*format - '0');
                                    600 ; genMult
                                    601 ; genMultLit
      000133 1E 06            [ 2]  602 	ldw	x, (0x06, sp)
      000135 58               [ 2]  603 	sllw	x
      000136 58               [ 2]  604 	sllw	x
      000137 72 FB 06         [ 2]  605 	addw	x, (0x06, sp)
      00013A 58               [ 2]  606 	sllw	x
      00013B 1F 0B            [ 2]  607 	ldw	(0x0b, sp), x
                                    608 ; genCast
                                    609 ; genAssign
      00013D 5F               [ 1]  610 	clrw	x
      00013E 97               [ 1]  611 	ld	xl, a
                                    612 ; genMinus
      00013F 1D 00 30         [ 2]  613 	subw	x, #0x0030
                                    614 ; genPlus
      000142 72 FB 0B         [ 2]  615 	addw	x, (0x0b, sp)
      000145 1F 06            [ 2]  616 	ldw	(0x06, sp), x
                                    617 ;	User/eric_proc.c: 60: format++;
                                    618 ; genAssign
      000147 17 0B            [ 2]  619 	ldw	(0x0b, sp), y
                                    620 ; genAssign
      000149 17 11            [ 2]  621 	ldw	(0x11, sp), y
                                    622 ; genGoto
      00014B 20 D7            [ 2]  623 	jra	00104$
                                    624 ; peephole j5 changed absolute to relative unconditional jump.
                                    625 ; genLabel
      00014D                        626 00142$:
                                    627 ; genAssign
      00014D 1E 0B            [ 2]  628 	ldw	x, (0x0b, sp)
      00014F 1F 11            [ 2]  629 	ldw	(0x11, sp), x
                                    630 ;	User/eric_proc.c: 63: if (*format == 'l') {
                                    631 ; genPointerGet
      000151 1E 0B            [ 2]  632 	ldw	x, (0x0b, sp)
      000153 F6               [ 1]  633 	ld	a, (x)
                                    634 ; genCmpEQorNE
                                    635 ; peephole j5 changed absolute to relative unconditional jump.
                                    636 ; peephole j10 removed jra by using inverse jump logic
                                    637 ; peephole j30 removed unused label 00232$.
                                    638 ; peephole j5 changed absolute to relative unconditional jump.
                                    639 ; peephole j7 removed jra by using inverse jump logic
                                    640 ; peephole j30 removed unused label 00233$.
                                    641 ; skipping generated iCode
                                    642 ;	User/eric_proc.c: 64: is_long = 1;
                                    643 ; genAssign
      000154 A0 6C            [ 1]  644 	sub	a, #0x6c
      000156 26 05            [ 1]  645 	jrne	00108$
      000158 4C               [ 1]  646 	inc	a
                                    647 ; peephole 51 used inc to get #1 into a.
      000159 6B 05            [ 1]  648 	ld	(0x05, sp), a
                                    649 ;	User/eric_proc.c: 65: format++;
                                    650 ; genAssign
      00015B 17 11            [ 2]  651 	ldw	(0x11, sp), y
                                    652 ; genLabel
      00015D                        653 00108$:
                                    654 ;	User/eric_proc.c: 68: if (*format == 'd') {
                                    655 ; genAssign
      00015D 1E 11            [ 2]  656 	ldw	x, (0x11, sp)
                                    657 ; genPointerGet
      00015F F6               [ 1]  658 	ld	a, (x)
                                    659 ;	User/eric_proc.c: 73: int ival = va_arg(args, int);
                                    660 ; genPlus
      000160 16 01            [ 2]  661 	ldw	y, (0x01, sp)
      000162 72 A9 00 02      [ 2]  662 	addw	y, #0x0002
                                    663 ; genMinus
      000166 93               [ 1]  664 	ldw	x, y
      000167 5A               [ 2]  665 	decw	x
      000168 5A               [ 2]  666 	decw	x
                                    667 ;	User/eric_proc.c: 68: if (*format == 'd') {
                                    668 ; genCmpEQorNE
      000169 A1 64            [ 1]  669 	cp	a, #0x64
                                    670 ; peephole j5 changed absolute to relative unconditional jump.
                                    671 ; peephole j10 removed jra by using inverse jump logic
                                    672 ; peephole j30 removed unused label 00235$.
                                    673 ; peephole j5 changed absolute to relative unconditional jump.
      00016B 26 5C            [ 1]  674 	jrne	00119$
                                    675 ; peephole j7 removed jra by using inverse jump logic
                                    676 ; peephole j30 removed unused label 00236$.
                                    677 ; skipping generated iCode
                                    678 ;	User/eric_proc.c: 69: if (is_long) {
                                    679 ; genIfx
      00016D 0D 05            [ 1]  680 	tnz	(0x05, sp)
                                    681 ; peephole j5 changed absolute to relative unconditional jump.
      00016F 27 2E            [ 1]  682 	jreq	00110$
                                    683 ; peephole j10 removed jra by using inverse jump logic
                                    684 ; peephole j30 removed unused label 00237$.
                                    685 ;	User/eric_proc.c: 70: val = va_arg(args, uint32_t);
                                    686 ; genPlus
      000171 1E 01            [ 2]  687 	ldw	x, (0x01, sp)
      000173 1C 00 04         [ 2]  688 	addw	x, #0x0004
                                    689 ; genAssign
      000176 1F 01            [ 2]  690 	ldw	(0x01, sp), x
                                    691 ; genMinus
      000178 1D 00 04         [ 2]  692 	subw	x, #0x0004
                                    693 ; genPointerGet
      00017B 90 93            [ 1]  694 	ldw	y, x
      00017D 90 EE 02         [ 2]  695 	ldw	y, (0x2, y)
      000180 FE               [ 2]  696 	ldw	x, (x)
      000181 1F 09            [ 2]  697 	ldw	(0x09, sp), x
                                    698 ;	User/eric_proc.c: 71: itoa_pad(&buffer, val, width, pad, 1);
                                    699 ; skipping iCode since result will be rematerialized
                                    700 ; genCast
                                    701 ; genAssign
      000183 96               [ 1]  702 	ldw	x, sp
      000184 1C 00 0F         [ 2]  703 	addw	x, #15
                                    704 ; genIPush
      000187 4B 01            [ 1]  705 	push	#0x01
      000189 4B 00            [ 1]  706 	push	#0x00
                                    707 ; genIPush
      00018B 7B 0A            [ 1]  708 	ld	a, (0x0a, sp)
      00018D 88               [ 1]  709 	push	a
                                    710 ; genIPush
      00018E 7B 0A            [ 1]  711 	ld	a, (0x0a, sp)
      000190 88               [ 1]  712 	push	a
      000191 7B 0A            [ 1]  713 	ld	a, (0x0a, sp)
      000193 88               [ 1]  714 	push	a
                                    715 ; genIPush
      000194 90 89            [ 2]  716 	pushw	y
      000196 16 10            [ 2]  717 	ldw	y, (0x10, sp)
      000198 90 89            [ 2]  718 	pushw	y
                                    719 ; genSend
                                    720 ; genCall
      00019A CDr00r00         [ 4]  721 	call	_itoa_pad
                                    722 ; genGoto
      00019D 20 55            [ 2]  723 	jra	00123$
                                    724 ; peephole j5 changed absolute to relative unconditional jump.
                                    725 ; genLabel
      00019F                        726 00110$:
                                    727 ;	User/eric_proc.c: 73: int ival = va_arg(args, int);
                                    728 ; genAssign
      00019F 17 01            [ 2]  729 	ldw	(0x01, sp), y
                                    730 ; genPointerGet
      0001A1 FE               [ 2]  731 	ldw	x, (x)
                                    732 ;	User/eric_proc.c: 74: itoa_pad(&buffer, (uint32_t)(ival), width, pad, 1);
                                    733 ; genCast
      0001A2 51               [ 1]  734 	exgw	x, y
      0001A3 90 9E            [ 1]  735 	ld	a, yh
      0001A5 49               [ 1]  736 	rlc	a
      0001A6 4F               [ 1]  737 	clr	a
      0001A7 A2 00            [ 1]  738 	sbc	a, #0x00
      0001A9 6B 0A            [ 1]  739 	ld	(0x0a, sp), a
      0001AB 6B 09            [ 1]  740 	ld	(0x09, sp), a
                                    741 ; genAddrOf
      0001AD 96               [ 1]  742 	ldw	x, sp
      0001AE 1C 00 0F         [ 2]  743 	addw	x, #15
                                    744 ; genCast
                                    745 ; genAssign
                                    746 ; genIPush
      0001B1 4B 01            [ 1]  747 	push	#0x01
      0001B3 4B 00            [ 1]  748 	push	#0x00
                                    749 ; genIPush
      0001B5 7B 0A            [ 1]  750 	ld	a, (0x0a, sp)
      0001B7 88               [ 1]  751 	push	a
                                    752 ; genIPush
      0001B8 7B 0A            [ 1]  753 	ld	a, (0x0a, sp)
      0001BA 88               [ 1]  754 	push	a
      0001BB 7B 0A            [ 1]  755 	ld	a, (0x0a, sp)
      0001BD 88               [ 1]  756 	push	a
                                    757 ; genIPush
      0001BE 90 89            [ 2]  758 	pushw	y
      0001C0 16 10            [ 2]  759 	ldw	y, (0x10, sp)
      0001C2 90 89            [ 2]  760 	pushw	y
                                    761 ; genSend
                                    762 ; genCall
      0001C4 CDr00r00         [ 4]  763 	call	_itoa_pad
                                    764 ; genGoto
      0001C7 20 2B            [ 2]  765 	jra	00123$
                                    766 ; peephole j5 changed absolute to relative unconditional jump.
                                    767 ; genLabel
      0001C9                        768 00119$:
                                    769 ;	User/eric_proc.c: 76: } else if (*format == 's') {
                                    770 ; genCmpEQorNE
      0001C9 A1 73            [ 1]  771 	cp	a, #0x73
                                    772 ; peephole j5 changed absolute to relative unconditional jump.
                                    773 ; peephole j10 removed jra by using inverse jump logic
                                    774 ; peephole j30 removed unused label 00239$.
                                    775 ; peephole j5 changed absolute to relative unconditional jump.
      0001CB 26 11            [ 1]  776 	jrne	00116$
                                    777 ; peephole j7 removed jra by using inverse jump logic
                                    778 ; peephole j30 removed unused label 00240$.
                                    779 ; skipping generated iCode
                                    780 ;	User/eric_proc.c: 77: s = va_arg(args, char*);
                                    781 ; genAssign
      0001CD 17 01            [ 2]  782 	ldw	(0x01, sp), y
                                    783 ; genPointerGet
      0001CF FE               [ 2]  784 	ldw	x, (x)
                                    785 ;	User/eric_proc.c: 78: while (*s) {
                                    786 ; genAssign
      0001D0 16 03            [ 2]  787 	ldw	y, (0x03, sp)
                                    788 ; genLabel
      0001D2                        789 00112$:
                                    790 ; genPointerGet
                                    791 ; genIfx
      0001D2 F6               [ 1]  792 	ld	a, (x)
                                    793 ; peephole 30 removed redundant tnz.
                                    794 ; peephole j5 changed absolute to relative unconditional jump.
      0001D3 27 1D            [ 1]  795 	jreq	00143$
                                    796 ; peephole j10 removed jra by using inverse jump logic
                                    797 ; peephole j30 removed unused label 00241$.
                                    798 ;	User/eric_proc.c: 79: *buffer++ = *s++;
                                    799 ; genAssign
                                    800 ; genPlus
      0001D5 5C               [ 1]  801 	incw	x
                                    802 ; genPointerSet
      0001D6 90 F7            [ 1]  803 	ld	(y), a
                                    804 ; genPlus
      0001D8 90 5C            [ 1]  805 	incw	y
                                    806 ; genAssign
      0001DA 17 0F            [ 2]  807 	ldw	(0x0f, sp), y
                                    808 ; genGoto
      0001DC 20 F4            [ 2]  809 	jra	00112$
                                    810 ; peephole j5 changed absolute to relative unconditional jump.
                                    811 ; genLabel
      0001DE                        812 00116$:
                                    813 ;	User/eric_proc.c: 82: *buffer++ = *format;
                                    814 ; genPointerSet
      0001DE 1E 03            [ 2]  815 	ldw	x, (0x03, sp)
      0001E0 F7               [ 1]  816 	ld	(x), a
                                    817 ; genPlus
      0001E1 1E 0F            [ 2]  818 	ldw	x, (0x0f, sp)
      0001E3 5C               [ 1]  819 	incw	x
                                    820 ; genAssign
      0001E4 1F 0F            [ 2]  821 	ldw	(0x0f, sp), x
                                    822 ; genGoto
      0001E6 20 0C            [ 2]  823 	jra	00123$
                                    824 ; peephole j5 changed absolute to relative unconditional jump.
                                    825 ; genLabel
      0001E8                        826 00122$:
                                    827 ;	User/eric_proc.c: 85: *buffer++ = *format;
                                    828 ; genPointerSet
      0001E8 1E 03            [ 2]  829 	ldw	x, (0x03, sp)
      0001EA F7               [ 1]  830 	ld	(x), a
                                    831 ; genPlus
      0001EB 1E 0F            [ 2]  832 	ldw	x, (0x0f, sp)
      0001ED 5C               [ 1]  833 	incw	x
                                    834 ; genAssign
      0001EE 1F 0F            [ 2]  835 	ldw	(0x0f, sp), x
                                    836 ;	User/eric_proc.c: 89: *buffer = '
                                    837 ; genGoto
      0001F0 20 02            [ 2]  838 	jra	00123$
                                    839 ; peephole j5 changed absolute to relative unconditional jump.
                                    840 ;	User/eric_proc.c: 85: *buffer++ = *format;
                                    841 ; genLabel
      0001F2                        842 00143$:
                                    843 ; genAssign
      0001F2 17 0F            [ 2]  844 	ldw	(0x0f, sp), y
                                    845 ; genLabel
      0001F4                        846 00123$:
                                    847 ;	User/eric_proc.c: 87: format++;
                                    848 ; genPlus
      0001F4 1E 11            [ 2]  849 	ldw	x, (0x11, sp)
      0001F6 5C               [ 1]  850 	incw	x
                                    851 ; genAssign
      0001F7 1F 11            [ 2]  852 	ldw	(0x11, sp), x
                                    853 ; genGoto
      0001F9 CCr00rE6         [ 2]  854 	jp	00124$
                                    855 ; genLabel
      0001FC                        856 00126$:
                                    857 ;	User/eric_proc.c: 89: *buffer = '
                                    858 ; genPointerSet
      0001FC 1E 03            [ 2]  859 	ldw	x, (0x03, sp)
      0001FE 7F               [ 1]  860 	clr	(x)
                                    861 ;	User/eric_proc.c: 90: va_end(args);
                                    862 ; genLabel
                                    863 ; peephole j30 removed unused label 00127$.
                                    864 ;	User/eric_proc.c: 91: }
                                    865 ; genEndFunction
      0001FF 5B 0C            [ 2]  866 	addw	sp, #12
      000201 81               [ 4]  867 	ret
                                    868 ;	Total mini_sprintf function size at codegen: 3 bytes.
                                    869 ;	User/eric_proc.c: 144: uint8_t System_GetMode(void)
                                    870 ; genLabel
                                    871 ;	-----------------------------------------
                                    872 ;	 function System_GetMode
                                    873 ;	-----------------------------------------
                                    874 ;	Register assignment is optimal.
                                    875 ;	Stack space usage: 0 bytes.
      000202                        876 _System_GetMode:
                                    877 ;	User/eric_proc.c: 146: return sysmode;
                                    878 ; genReturn
      000202 C6u00u84         [ 1]  879 	ld	a, _sysmode+0
                                    880 ; genLabel
                                    881 ; peephole j30 removed unused label 00101$.
                                    882 ;	User/eric_proc.c: 147: }
                                    883 ; genEndFunction
      000205 81               [ 4]  884 	ret
                                    885 ;	Total System_GetMode function size at codegen: 1 bytes.
                                    886 ;	User/eric_proc.c: 150: void System_InitMode(void)
                                    887 ; genLabel
                                    888 ;	-----------------------------------------
                                    889 ;	 function System_InitMode
                                    890 ;	-----------------------------------------
                                    891 ;	Register assignment is optimal.
                                    892 ;	Stack space usage: 0 bytes.
      000206                        893 _System_InitMode:
                                    894 ;	User/eric_proc.c: 152: sysmode = GPIO_ReadInputDataBit(GPIOC, GPIO_Pin_4);
                                    895 ; genSend
      000206 A6 10            [ 1]  896 	ld	a, #0x10
                                    897 ; genSend
      000208 AE 50 0A         [ 2]  898 	ldw	x, #0x500a
                                    899 ; genCall
      00020B CDr00r00         [ 4]  900 	call	_GPIO_ReadInputDataBit
                                    901 ; genCast
                                    902 ; genAssign
      00020E C7u00u84         [ 1]  903 	ld	_sysmode+0, a
                                    904 ; genLabel
                                    905 ; peephole j30 removed unused label 00101$.
                                    906 ;	User/eric_proc.c: 153: }
                                    907 ; genEndFunction
      000211 81               [ 4]  908 	ret
                                    909 ;	Total System_InitMode function size at codegen: 1 bytes.
                                    910 ;	User/eric_proc.c: 156: Tstat* Record_GetStat(uint8_t phase)
                                    911 ; genLabel
                                    912 ;	-----------------------------------------
                                    913 ;	 function Record_GetStat
                                    914 ;	-----------------------------------------
                                    915 ;	Register assignment might be sub-optimal.
                                    916 ;	Stack space usage: 0 bytes.
      000212                        917 _Record_GetStat:
                                    918 ; genReceive
                                    919 ;	User/eric_proc.c: 158: if (phase > 6) phase = 0;
                                    920 ; genCmp
                                    921 ; genCmpTnz
      000212 A1 06            [ 1]  922 	cp	a, #0x06
                                    923 ; peephole j5 changed absolute to relative unconditional jump.
      000214 23 01            [ 2]  924 	jrule	00102$
                                    925 ; peephole j16 removed jra by using inverse jump logic
                                    926 ; peephole j30 removed unused label 00112$.
                                    927 ; skipping generated iCode
                                    928 ; genAssign
      000216 4F               [ 1]  929 	clr	a
                                    930 ; genLabel
      000217                        931 00102$:
                                    932 ;	User/eric_proc.c: 159: return &stt[phase];
                                    933 ; skipping iCode since result will be rematerialized
                                    934 ; genMult
      000217 41               [ 1]  935 	exg	a, xl
      000218 A6 0A            [ 1]  936 	ld	a, #0x0a
      00021A 41               [ 1]  937 	exg	a, xl
      00021B 42               [ 4]  938 	mul	x, a
                                    939 ; genPlus
      00021C 1Cr00r2B         [ 2]  940 	addw	x, #(_stt+0)
                                    941 ; genCast
                                    942 ; genAssign
                                    943 ; genReturn
                                    944 ; genLabel
                                    945 ; peephole j30 removed unused label 00103$.
                                    946 ;	User/eric_proc.c: 160: }
                                    947 ; genEndFunction
      00021F 81               [ 4]  948 	ret
                                    949 ;	Total Record_GetStat function size at codegen: 1 bytes.
                                    950 ;	User/eric_proc.c: 162: Trecord* Record_GetRecd(void)
                                    951 ; genLabel
                                    952 ;	-----------------------------------------
                                    953 ;	 function Record_GetRecd
                                    954 ;	-----------------------------------------
                                    955 ;	Register assignment is optimal.
                                    956 ;	Stack space usage: 0 bytes.
      000220                        957 _Record_GetRecd:
                                    958 ;	User/eric_proc.c: 164: return &recd;
                                    959 ; skipping iCode since result will be rematerialized
                                    960 ; skipping iCode since result will be rematerialized
                                    961 ; genReturn
      000220 AEr01r23         [ 2]  962 	ldw	x, #(_recd+0)
                                    963 ; genLabel
                                    964 ; peephole j30 removed unused label 00101$.
                                    965 ;	User/eric_proc.c: 165: }
                                    966 ; genEndFunction
      000223 81               [ 4]  967 	ret
                                    968 ;	Total Record_GetRecd function size at codegen: 1 bytes.
                                    969 ;	User/eric_proc.c: 168: Trecord* Record_GetLRecd(void)
                                    970 ; genLabel
                                    971 ;	-----------------------------------------
                                    972 ;	 function Record_GetLRecd
                                    973 ;	-----------------------------------------
                                    974 ;	Register assignment is optimal.
                                    975 ;	Stack space usage: 0 bytes.
      000224                        976 _Record_GetLRecd:
                                    977 ;	User/eric_proc.c: 170: return &lrecd;
                                    978 ; skipping iCode since result will be rematerialized
                                    979 ; skipping iCode since result will be rematerialized
                                    980 ; genReturn
      000224 AEr01r2D         [ 2]  981 	ldw	x, #(_lrecd+0)
                                    982 ; genLabel
                                    983 ; peephole j30 removed unused label 00101$.
                                    984 ;	User/eric_proc.c: 171: }
                                    985 ; genEndFunction
      000227 81               [ 4]  986 	ret
                                    987 ;	Total Record_GetLRecd function size at codegen: 1 bytes.
                                    988 ;	User/eric_proc.c: 174: void Storage_SaveAllStats(void)
                                    989 ; genLabel
                                    990 ;	-----------------------------------------
                                    991 ;	 function Storage_SaveAllStats
                                    992 ;	-----------------------------------------
                                    993 ;	Register assignment is optimal.
                                    994 ;	Stack space usage: 0 bytes.
      000228                        995 _Storage_SaveAllStats:
                                    996 ;	User/eric_proc.c: 176: Save_Stat((uint8_t *)&stt);
                                    997 ; skipping iCode since result will be rematerialized
                                    998 ; skipping iCode since result will be rematerialized
                                    999 ; genSend
      000228 AEr00r2B         [ 2] 1000 	ldw	x, #(_stt+0)
                                   1001 ; genCall
                                   1002 ; genLabel
                                   1003 ; peephole j30 removed unused label 00101$.
                                   1004 ;	User/eric_proc.c: 177: }
                                   1005 ; genEndFunction
      00022B CCr00r00         [ 2] 1006 	jp	_Save_Stat
                                   1007 ; peephole 52 removed unreachable ret.
                                   1008 ;	Total Storage_SaveAllStats function size at codegen: 1 bytes.
                                   1009 ;	User/eric_proc.c: 180: void Record_SaveNew(uint8_t* timeData, uint32_t phalen)
                                   1010 ; genLabel
                                   1011 ;	-----------------------------------------
                                   1012 ;	 function Record_SaveNew
                                   1013 ;	-----------------------------------------
                                   1014 ;	Register assignment might be sub-optimal.
                                   1015 ;	Stack space usage: 0 bytes.
      00022E                       1016 _Record_SaveNew:
                                   1017 ; genReceive
                                   1018 ;	User/eric_proc.c: 182: memcpy((uint8_t *)&recd, timeData, 6);
                                   1019 ; genCast
                                   1020 ; genAssign
                                   1021 ; skipping iCode since result will be rematerialized
                                   1022 ; skipping iCode since result will be rematerialized
                                   1023 ; genIPush
      00022E 4B 06            [ 1] 1024 	push	#0x06
      000230 4B 00            [ 1] 1025 	push	#0x00
                                   1026 ; genIPush
      000232 89               [ 2] 1027 	pushw	x
                                   1028 ; genSend
      000233 AEr01r23         [ 2] 1029 	ldw	x, #(_recd+0)
                                   1030 ; genCall
      000236 CDr00r00         [ 4] 1031 	call	___memcpy
                                   1032 ;	User/eric_proc.c: 183: recd.pl = phalen;
                                   1033 ; skipping iCode since result will be rematerialized
                                   1034 ; genPointerSet
      000239 AEr01r29         [ 2] 1035 	ldw	x, #(_recd+6)
      00023C 16 05            [ 2] 1036 	ldw	y, (0x05, sp)
      00023E EF 02            [ 2] 1037 	ldw	(0x2, x), y
      000240 16 03            [ 2] 1038 	ldw	y, (0x03, sp)
      000242 FF               [ 2] 1039 	ldw	(x), y
                                   1040 ;	User/eric_proc.c: 184: Save_Data((uint8_t *)&recd);
                                   1041 ; skipping iCode since result will be rematerialized
                                   1042 ; skipping iCode since result will be rematerialized
                                   1043 ; genSend
      000243 AEr01r23         [ 2] 1044 	ldw	x, #(_recd+0)
                                   1045 ; genCall
      000246 CDr00r00         [ 4] 1046 	call	_Save_Data
                                   1047 ; genLabel
                                   1048 ; peephole j30 removed unused label 00101$.
                                   1049 ;	User/eric_proc.c: 185: }
                                   1050 ; genEndFunction
      000249 1E 01            [ 2] 1051 	ldw	x, (1, sp)
      00024B 5B 06            [ 2] 1052 	addw	sp, #6
      00024D FC               [ 2] 1053 	jp	(x)
                                   1054 ;	Total Record_SaveNew function size at codegen: 5 bytes.
                                   1055 ;	User/eric_proc.c: 188: uint8_t Record_LoadHistory(uint8_t mode)
                                   1056 ; genLabel
                                   1057 ;	-----------------------------------------
                                   1058 ;	 function Record_LoadHistory
                                   1059 ;	-----------------------------------------
                                   1060 ;	Register assignment is optimal.
                                   1061 ;	Stack space usage: 0 bytes.
      00024E                       1062 _Record_LoadHistory:
                                   1063 ; genReceive
                                   1064 ;	User/eric_proc.c: 190: return Load_Data(mode, (uint8_t *)&lrecd);
                                   1065 ; skipping iCode since result will be rematerialized
                                   1066 ; skipping iCode since result will be rematerialized
                                   1067 ; genSend
      00024E AEr01r2D         [ 2] 1068 	ldw	x, #(_lrecd+0)
                                   1069 ; genSend
                                   1070 ; genCall
                                   1071 ; genReturn
                                   1072 ; genLabel
                                   1073 ; peephole j30 removed unused label 00101$.
                                   1074 ;	User/eric_proc.c: 191: }
                                   1075 ; genEndFunction
      000251 CCr00r00         [ 2] 1076 	jp	_Load_Data
                                   1077 ; peephole 52 removed unreachable ret.
                                   1078 ;	Total Record_LoadHistory function size at codegen: 1 bytes.
                                   1079 ;	User/eric_proc.c: 203: uint16_t CRC_GetModbus16(uint8_t *pdata, int len)
                                   1080 ; genLabel
                                   1081 ;	-----------------------------------------
                                   1082 ;	 function CRC_GetModbus16
                                   1083 ;	-----------------------------------------
                                   1084 ;	Register assignment might be sub-optimal.
                                   1085 ;	Stack space usage: 7 bytes.
      000254                       1086 _CRC_GetModbus16:
      000254 52 07            [ 2] 1087 	sub	sp, #7
                                   1088 ; genReceive
      000256 51               [ 1] 1089 	exgw	x, y
                                   1090 ;	User/eric_proc.c: 205: uint16_t crc = 0xFFFF;
                                   1091 ; genAssign
      000257 5F               [ 1] 1092 	clrw	x
      000258 5A               [ 2] 1093 	decw	x
      000259 1F 03            [ 2] 1094 	ldw	(0x03, sp), x
                                   1095 ;	User/eric_proc.c: 208: while (len--)
                                   1096 ; genAssign
      00025B 17 05            [ 2] 1097 	ldw	(0x05, sp), y
                                   1098 ; genAssign
                                   1099 ; genLabel
      00025D                       1100 00105$:
                                   1101 ; genAssign
      00025D 16 0A            [ 2] 1102 	ldw	y, (0x0a, sp)
      00025F 17 01            [ 2] 1103 	ldw	(0x01, sp), y
                                   1104 ; genMinus
      000261 1E 0A            [ 2] 1105 	ldw	x, (0x0a, sp)
      000263 5A               [ 2] 1106 	decw	x
      000264 1F 0A            [ 2] 1107 	ldw	(0x0a, sp), x
                                   1108 ; genIfx
      000266 1E 01            [ 2] 1109 	ldw	x, (0x01, sp)
                                   1110 ; peephole j5 changed absolute to relative unconditional jump.
      000268 27 38            [ 1] 1111 	jreq	00107$
                                   1112 ; peephole j10 removed jra by using inverse jump logic
                                   1113 ; peephole j30 removed unused label 00149$.
                                   1114 ;	User/eric_proc.c: 210: crc ^= *pdata++;
                                   1115 ; genPointerGet
      00026A 1E 05            [ 2] 1116 	ldw	x, (0x05, sp)
      00026C F6               [ 1] 1117 	ld	a, (x)
                                   1118 ; genPlus
      00026D 1E 05            [ 2] 1119 	ldw	x, (0x05, sp)
      00026F 5C               [ 1] 1120 	incw	x
      000270 1F 05            [ 2] 1121 	ldw	(0x05, sp), x
                                   1122 ; peephole j30 removed unused label 00150$.
                                   1123 ; genCast
                                   1124 ; genAssign
                                   1125 ; peephole 3 removed dead clrw of x.
                                   1126 ; genXor
      000272 18 04            [ 1] 1127 	xor	a, (0x04, sp)
      000274 6B 04            [ 1] 1128 	ld	(0x04, sp), a
      000276 4F               [ 1] 1129 	clr	a
      000277 18 03            [ 1] 1130 	xor	a, (0x03, sp)
      000279 6B 03            [ 1] 1131 	ld	(0x03, sp), a
                                   1132 ;	User/eric_proc.c: 211: for (i = 0; i < 8; i++)
                                   1133 ; genAssign
      00027B 0F 07            [ 1] 1134 	clr	(0x07, sp)
                                   1135 ; genLabel
      00027D                       1136 00108$:
                                   1137 ;	User/eric_proc.c: 214: crc = (crc >> 1) ^ 0xA001;
                                   1138 ; genRightShiftLiteral
      00027D 1E 03            [ 2] 1139 	ldw	x, (0x03, sp)
      00027F 54               [ 2] 1140 	srlw	x
      000280 1F 01            [ 2] 1141 	ldw	(0x01, sp), x
                                   1142 ;	User/eric_proc.c: 213: if (crc & 1)
                                   1143 ; genAnd
      000282 7B 04            [ 1] 1144 	ld	a, (0x04, sp)
      000284 44               [ 1] 1145 	srl	a
                                   1146 ; peephole j5 changed absolute to relative unconditional jump.
      000285 24 0D            [ 1] 1147 	jrnc	00102$
                                   1148 ; peephole j6 removed jra by using inverse jump logic
                                   1149 ; peephole j30 removed unused label 00151$.
                                   1150 ; skipping generated iCode
                                   1151 ;	User/eric_proc.c: 214: crc = (crc >> 1) ^ 0xA001;
                                   1152 ; genCast
                                   1153 ; genAssign
      000287 1E 01            [ 2] 1154 	ldw	x, (0x01, sp)
                                   1155 ; genXor
      000289 9F               [ 1] 1156 	ld	a, xl
      00028A A8 01            [ 1] 1157 	xor	a, #0x01
      00028C 02               [ 1] 1158 	rlwa	x
                                   1159 ; peephole r1 used rlwa.
      00028D A8 A0            [ 1] 1160 	xor	a, #0xa0
      00028F 95               [ 1] 1161 	ld	xh, a
                                   1162 ; genCast
                                   1163 ; genAssign
      000290 1F 03            [ 2] 1164 	ldw	(0x03, sp), x
                                   1165 ; genGoto
      000292 20 04            [ 2] 1166 	jra	00109$
                                   1167 ; peephole j5 changed absolute to relative unconditional jump.
                                   1168 ; genLabel
      000294                       1169 00102$:
                                   1170 ;	User/eric_proc.c: 216: crc = crc >> 1;
                                   1171 ; genAssign
      000294 16 01            [ 2] 1172 	ldw	y, (0x01, sp)
      000296 17 03            [ 2] 1173 	ldw	(0x03, sp), y
                                   1174 ; genLabel
      000298                       1175 00109$:
                                   1176 ;	User/eric_proc.c: 211: for (i = 0; i < 8; i++)
                                   1177 ; genPlus
      000298 0C 07            [ 1] 1178 	inc	(0x07, sp)
                                   1179 ; genCmp
                                   1180 ; genCmpTnz
      00029A 7B 07            [ 1] 1181 	ld	a, (0x07, sp)
      00029C A1 08            [ 1] 1182 	cp	a, #0x08
                                   1183 ; peephole j5 changed absolute to relative unconditional jump.
      00029E 25 DD            [ 1] 1184 	jrc	00108$
                                   1185 ; peephole j9 removed jra by using inverse jump logic
                                   1186 ; peephole j30 removed unused label 00152$.
                                   1187 ; skipping generated iCode
                                   1188 ; genGoto
      0002A0 20 BB            [ 2] 1189 	jra	00105$
                                   1190 ; peephole j5 changed absolute to relative unconditional jump.
                                   1191 ; genLabel
      0002A2                       1192 00107$:
                                   1193 ;	User/eric_proc.c: 219: return crc;
                                   1194 ; genReturn
      0002A2 1E 03            [ 2] 1195 	ldw	x, (0x03, sp)
                                   1196 ; genLabel
                                   1197 ; peephole j30 removed unused label 00110$.
                                   1198 ;	User/eric_proc.c: 220: }
                                   1199 ; genEndFunction
      0002A4 5B 07            [ 2] 1200 	addw	sp, #7
      0002A6 90 85            [ 2] 1201 	popw	y
      0002A8 5B 02            [ 2] 1202 	addw	sp, #2
      0002AA 90 FC            [ 2] 1203 	jp	(y)
                                   1204 ;	Total CRC_GetModbus16 function size at codegen: 8 bytes.
                                   1205 ;	User/eric_proc.c: 222: void InitMsg(MsgQue *msgq)
                                   1206 ; genLabel
                                   1207 ;	-----------------------------------------
                                   1208 ;	 function InitMsg
                                   1209 ;	-----------------------------------------
                                   1210 ;	Register assignment might be sub-optimal.
                                   1211 ;	Stack space usage: 2 bytes.
      0002AC                       1212 _InitMsg:
      0002AC 89               [ 2] 1213 	pushw	x
                                   1214 ; genReceive
                                   1215 ;	User/eric_proc.c: 226: if (msgq == 0)
                                   1216 ; genIfx
      0002AD 5D               [ 2] 1217 	tnzw	x
                                   1218 ; peephole j5 changed absolute to relative unconditional jump.
                                   1219 ; peephole j7 removed jra by using inverse jump logic
                                   1220 ; peephole j30 removed unused label 00123$.
                                   1221 ;	User/eric_proc.c: 228: return;
                                   1222 ; genReturn
                                   1223 ; peephole j5 changed absolute to relative unconditional jump.
                                   1224 ; genLabel
      0002AE 27 30            [ 1] 1225 	jreq	00106$
                                   1226 ; peephole j10 removed jra by using inverse jump logic
                                   1227 ; peephole j30 removed unused label 00102$.
                                   1228 ;	User/eric_proc.c: 230: msgq->r = 0;
                                   1229 ; genPlus
      0002B0 90 93            [ 1] 1230 	ldw	y, x
      0002B2 90 5C            [ 1] 1231 	incw	y
                                   1232 ; genPointerSet
      0002B4 90 7F            [ 1] 1233 	clr	(y)
                                   1234 ;	User/eric_proc.c: 231: msgq->w = 0;
                                   1235 ; genPointerSet
      0002B6 7F               [ 1] 1236 	clr	(x)
                                   1237 ;	User/eric_proc.c: 232: for (i = 0; i < MSG_LEN; i++)
                                   1238 ; genPlus
      0002B7 5C               [ 1] 1239 	incw	x
      0002B8 5C               [ 1] 1240 	incw	x
      0002B9 1F 01            [ 2] 1241 	ldw	(0x01, sp), x
                                   1242 ; genAssign
      0002BB 4F               [ 1] 1243 	clr	a
                                   1244 ; genLabel
      0002BC                       1245 00104$:
                                   1246 ;	User/eric_proc.c: 234: msgq->msg[i].msgtype = 0;
                                   1247 ; genMult
      0002BC 88               [ 1] 1248 	push	a
      0002BD 61               [ 1] 1249 	exg	a, yl
      0002BE A6 09            [ 1] 1250 	ld	a, #0x09
      0002C0 61               [ 1] 1251 	exg	a, yl
      0002C1 90 42            [ 4] 1252 	mul	y, a
      0002C3 84               [ 1] 1253 	pop	a
                                   1254 ; genPlus
      0002C4 72 F9 01         [ 2] 1255 	addw	y, (0x01, sp)
                                   1256 ; genPointerSet
      0002C7 90 7F            [ 1] 1257 	clr	(y)
                                   1258 ;	User/eric_proc.c: 235: msgq->msg[i].msgval1 = 0;
                                   1259 ; genPlus
      0002C9 93               [ 1] 1260 	ldw	x, y
      0002CA 5C               [ 1] 1261 	incw	x
                                   1262 ; genPointerSet
      0002CB 6F 03            [ 1] 1263 	clr	(0x3, x)
      0002CD 6F 02            [ 1] 1264 	clr	(0x2, x)
      0002CF 6F 01            [ 1] 1265 	clr	(0x1, x)
      0002D1 7F               [ 1] 1266 	clr	(x)
                                   1267 ;	User/eric_proc.c: 236: msgq->msg[i].msgval2 = 0;
                                   1268 ; genPlus
      0002D2 93               [ 1] 1269 	ldw	x, y
      0002D3 1C 00 05         [ 2] 1270 	addw	x, #0x0005
                                   1271 ; genPointerSet
      0002D6 90 5F            [ 1] 1272 	clrw	y
      0002D8 EF 02            [ 2] 1273 	ldw	(0x2, x), y
      0002DA FF               [ 2] 1274 	ldw	(x), y
                                   1275 ;	User/eric_proc.c: 232: for (i = 0; i < MSG_LEN; i++)
                                   1276 ; genPlus
      0002DB 4C               [ 1] 1277 	inc	a
                                   1278 ; genCmp
                                   1279 ; genCmpTnz
      0002DC A1 20            [ 1] 1280 	cp	a, #0x20
                                   1281 ; peephole j5 changed absolute to relative unconditional jump.
      0002DE 25 DC            [ 1] 1282 	jrc	00104$
                                   1283 ; peephole j9 removed jra by using inverse jump logic
                                   1284 ; peephole j30 removed unused label 00124$.
                                   1285 ; skipping generated iCode
                                   1286 ; genLabel
      0002E0                       1287 00106$:
                                   1288 ;	User/eric_proc.c: 238: }
                                   1289 ; genEndFunction
      0002E0 85               [ 2] 1290 	popw	x
      0002E1 81               [ 4] 1291 	ret
                                   1292 ;	Total InitMsg function size at codegen: 2 bytes.
                                   1293 ;	User/eric_proc.c: 241: void SendMsg(MsgQue *msgq, uint8_t type, uint32_t val1, uint32_t val2)
                                   1294 ; genLabel
                                   1295 ;	-----------------------------------------
                                   1296 ;	 function SendMsg
                                   1297 ;	-----------------------------------------
                                   1298 ;	Register assignment might be sub-optimal.
                                   1299 ;	Stack space usage: 4 bytes.
      0002E2                       1300 _SendMsg:
      0002E2 52 04            [ 2] 1301 	sub	sp, #4
                                   1302 ; genReceive
      0002E4 51               [ 1] 1303 	exgw	x, y
                                   1304 ; genReceive
                                   1305 ;	User/eric_proc.c: 243: if (msgq == 0)
                                   1306 ; genIfx
      0002E5 90 5D            [ 2] 1307 	tnzw	y
                                   1308 ; peephole j5 changed absolute to relative unconditional jump.
                                   1309 ; peephole j7 removed jra by using inverse jump logic
                                   1310 ; peephole j30 removed unused label 00112$.
                                   1311 ;	User/eric_proc.c: 245: return;
                                   1312 ; genReturn
                                   1313 ; peephole j5 changed absolute to relative unconditional jump.
                                   1314 ; genLabel
      0002E7 27 4A            [ 1] 1315 	jreq	00103$
                                   1316 ; peephole j10 removed jra by using inverse jump logic
                                   1317 ; peephole j30 removed unused label 00102$.
                                   1318 ;	User/eric_proc.c: 247: msgq->msg[msgq->w].msgtype = type;
                                   1319 ; genPlus
      0002E9 93               [ 1] 1320 	ldw	x, y
      0002EA 5C               [ 1] 1321 	incw	x
      0002EB 5C               [ 1] 1322 	incw	x
      0002EC 1F 01            [ 2] 1323 	ldw	(0x01, sp), x
                                   1324 ; genCast
                                   1325 ; genAssign
                                   1326 ; genPointerGet
      0002EE 17 03            [ 2] 1327 	ldw	(0x03, sp), y
      0002F0 93               [ 1] 1328 	ldw	x, y
                                   1329 ; peephole 15 replaced load from (0x03, sp) into x by load from y into x.
      0002F1 88               [ 1] 1330 	push	a
      0002F2 F6               [ 1] 1331 	ld	a, (x)
      0002F3 97               [ 1] 1332 	ld	xl, a
                                   1333 ; genMult
                                   1334 ; peephole 6 removed dead pop / push pair.
      0002F4 A6 09            [ 1] 1335 	ld	a, #0x09
      0002F6 42               [ 4] 1336 	mul	x, a
      0002F7 84               [ 1] 1337 	pop	a
                                   1338 ; genPlus
      0002F8 72 FB 01         [ 2] 1339 	addw	x, (0x01, sp)
                                   1340 ; genPointerSet
      0002FB F7               [ 1] 1341 	ld	(x), a
                                   1342 ;	User/eric_proc.c: 248: msgq->msg[msgq->w].msgval1 = val1;
                                   1343 ; genPointerGet
      0002FC 1E 03            [ 2] 1344 	ldw	x, (0x03, sp)
      0002FE F6               [ 1] 1345 	ld	a, (x)
      0002FF 97               [ 1] 1346 	ld	xl, a
                                   1347 ; genMult
      000300 A6 09            [ 1] 1348 	ld	a, #0x09
      000302 42               [ 4] 1349 	mul	x, a
                                   1350 ; genPlus
      000303 72 FB 01         [ 2] 1351 	addw	x, (0x01, sp)
                                   1352 ; genPlus
      000306 5C               [ 1] 1353 	incw	x
                                   1354 ; genPointerSet
      000307 16 09            [ 2] 1355 	ldw	y, (0x09, sp)
      000309 EF 02            [ 2] 1356 	ldw	(0x2, x), y
      00030B 16 07            [ 2] 1357 	ldw	y, (0x07, sp)
      00030D FF               [ 2] 1358 	ldw	(x), y
                                   1359 ;	User/eric_proc.c: 249: msgq->msg[msgq->w].msgval2 = val2;
                                   1360 ; genPointerGet
      00030E 1E 03            [ 2] 1361 	ldw	x, (0x03, sp)
      000310 F6               [ 1] 1362 	ld	a, (x)
      000311 97               [ 1] 1363 	ld	xl, a
                                   1364 ; genMult
      000312 A6 09            [ 1] 1365 	ld	a, #0x09
      000314 42               [ 4] 1366 	mul	x, a
                                   1367 ; genPlus
      000315 72 FB 01         [ 2] 1368 	addw	x, (0x01, sp)
                                   1369 ; genPlus
      000318 1C 00 05         [ 2] 1370 	addw	x, #0x0005
                                   1371 ; genPointerSet
      00031B 16 0D            [ 2] 1372 	ldw	y, (0x0d, sp)
      00031D EF 02            [ 2] 1373 	ldw	(0x2, x), y
      00031F 16 0B            [ 2] 1374 	ldw	y, (0x0b, sp)
      000321 FF               [ 2] 1375 	ldw	(x), y
                                   1376 ;	User/eric_proc.c: 250: msgq->w = (msgq->w + 1) % MSG_LEN;
                                   1377 ; genPointerGet
      000322 1E 03            [ 2] 1378 	ldw	x, (0x03, sp)
      000324 F6               [ 1] 1379 	ld	a, (x)
                                   1380 ; genCast
                                   1381 ; genAssign
      000325 5F               [ 1] 1382 	clrw	x
                                   1383 ; genPlus
      000326 97               [ 1] 1384 	ld	xl, a
      000327 5C               [ 1] 1385 	incw	x
                                   1386 ; genIPush
      000328 4B 20            [ 1] 1387 	push	#0x20
      00032A 4B 00            [ 1] 1388 	push	#0x00
                                   1389 ; genSend
                                   1390 ; genCall
      00032C CDr00r00         [ 4] 1391 	call	__modsint
      00032F 9F               [ 1] 1392 	ld	a, xl
                                   1393 ; genCast
                                   1394 ; genAssign
                                   1395 ; genPointerSet
      000330 1E 03            [ 2] 1396 	ldw	x, (0x03, sp)
      000332 F7               [ 1] 1397 	ld	(x), a
                                   1398 ; genLabel
      000333                       1399 00103$:
                                   1400 ;	User/eric_proc.c: 251: }
                                   1401 ; genEndFunction
      000333 1E 05            [ 2] 1402 	ldw	x, (5, sp)
      000335 5B 0E            [ 2] 1403 	addw	sp, #14
      000337 FC               [ 2] 1404 	jp	(x)
                                   1405 ;	Total SendMsg function size at codegen: 5 bytes.
                                   1406 ;	User/eric_proc.c: 253: TMSG *RevMsg(MsgQue *msgq)
                                   1407 ; genLabel
                                   1408 ;	-----------------------------------------
                                   1409 ;	 function RevMsg
                                   1410 ;	-----------------------------------------
                                   1411 ;	Register assignment might be sub-optimal.
                                   1412 ;	Stack space usage: 7 bytes.
      000338                       1413 _RevMsg:
      000338 52 07            [ 2] 1414 	sub	sp, #7
                                   1415 ; genReceive
                                   1416 ;	User/eric_proc.c: 257: if (msgq == 0)
                                   1417 ; genIfx
                                   1418 ; peephole j5 changed absolute to relative unconditional jump.
                                   1419 ; peephole j7 removed jra by using inverse jump logic
                                   1420 ; peephole j30 removed unused label 00121$.
                                   1421 ;	User/eric_proc.c: 259: return 0;
                                   1422 ; genReturn
      00033A 5D               [ 2] 1423 	tnzw	x
                                   1424 ; peephole 22c removed redundant clrw x.
                                   1425 ; peephole j5 changed absolute to relative unconditional jump.
                                   1426 ; genLabel
      00033B 27 38            [ 1] 1427 	jreq	00105$
                                   1428 ; peephole j10 removed jra by using inverse jump logic
                                   1429 ; peephole j30 removed unused label 00102$.
                                   1430 ;	User/eric_proc.c: 262: if (msgq->r != msgq->w)
                                   1431 ; genPlus
      00033D 9F               [ 1] 1432 	ld	a, xl
      00033E AB 01            [ 1] 1433 	add	a, #0x01
      000340 6B 02            [ 1] 1434 	ld	(0x02, sp), a
      000342 9E               [ 1] 1435 	ld	a, xh
      000343 A9 00            [ 1] 1436 	adc	a, #0x00
      000345 6B 01            [ 1] 1437 	ld	(0x01, sp), a
                                   1438 ; genPointerGet
      000347 16 01            [ 2] 1439 	ldw	y, (0x01, sp)
      000349 90 F6            [ 1] 1440 	ld	a, (y)
      00034B 6B 03            [ 1] 1441 	ld	(0x03, sp), a
                                   1442 ; genPointerGet
      00034D F6               [ 1] 1443 	ld	a, (x)
                                   1444 ; genCmpEQorNE
      00034E 11 03            [ 1] 1445 	cp	a, (0x03, sp)
                                   1446 ; peephole j5 changed absolute to relative unconditional jump.
      000350 27 22            [ 1] 1447 	jreq	00104$
                                   1448 ; peephole j10 removed jra by using inverse jump logic
                                   1449 ; peephole j30 removed unused label 00123$.
                                   1450 ; skipping generated iCode
                                   1451 ;	User/eric_proc.c: 264: p = &msgq->msg[msgq->r];
                                   1452 ; genPlus
      000352 5C               [ 1] 1453 	incw	x
      000353 5C               [ 1] 1454 	incw	x
      000354 1F 04            [ 2] 1455 	ldw	(0x04, sp), x
                                   1456 ; genMult
      000356 7B 03            [ 1] 1457 	ld	a, (0x03, sp)
      000358 97               [ 1] 1458 	ld	xl, a
      000359 A6 09            [ 1] 1459 	ld	a, #0x09
      00035B 42               [ 4] 1460 	mul	x, a
                                   1461 ; genPlus
      00035C 72 FB 04         [ 2] 1462 	addw	x, (0x04, sp)
      00035F 1F 06            [ 2] 1463 	ldw	(0x06, sp), x
                                   1464 ;	User/eric_proc.c: 265: msgq->r = (msgq->r + 1) % MSG_LEN;
                                   1465 ; genCast
                                   1466 ; genAssign
      000361 7B 03            [ 1] 1467 	ld	a, (0x03, sp)
      000363 5F               [ 1] 1468 	clrw	x
                                   1469 ; genPlus
      000364 97               [ 1] 1470 	ld	xl, a
      000365 5C               [ 1] 1471 	incw	x
                                   1472 ; genIPush
      000366 4B 20            [ 1] 1473 	push	#0x20
      000368 4B 00            [ 1] 1474 	push	#0x00
                                   1475 ; genSend
                                   1476 ; genCall
      00036A CDr00r00         [ 4] 1477 	call	__modsint
      00036D 9F               [ 1] 1478 	ld	a, xl
                                   1479 ; genCast
                                   1480 ; genAssign
                                   1481 ; genPointerSet
      00036E 1E 01            [ 2] 1482 	ldw	x, (0x01, sp)
      000370 F7               [ 1] 1483 	ld	(x), a
                                   1484 ;	User/eric_proc.c: 266: return p;
                                   1485 ; genReturn
      000371 1E 06            [ 2] 1486 	ldw	x, (0x06, sp)
                                   1487 ; peephole j5 changed absolute to relative unconditional jump.
                                   1488 ; genLabel
                                   1489 ;	User/eric_proc.c: 269: return 0;
                                   1490 ; genReturn
                                   1491 ; genLabel
      000373 21                    1492 	.byte 0x21
                                   1493 ; peephole jrf2 used jump-on-false opcode to shorten jump over 1-byte instruction.
      000374                       1494 00104$:
      000374 5F               [ 1] 1495 	clrw	x
      000375                       1496 00105$:
                                   1497 ;	User/eric_proc.c: 270: }
                                   1498 ; genEndFunction
      000375 5B 07            [ 2] 1499 	addw	sp, #7
      000377 81               [ 4] 1500 	ret
                                   1501 ;	Total RevMsg function size at codegen: 3 bytes.
                                   1502 ;	User/eric_proc.c: 273: void A_Fxn(void)
                                   1503 ; genLabel
                                   1504 ;	-----------------------------------------
                                   1505 ;	 function A_Fxn
                                   1506 ;	-----------------------------------------
                                   1507 ;	Register assignment might be sub-optimal.
                                   1508 ;	Stack space usage: 14 bytes.
      000378                       1509 _A_Fxn:
      000378 52 0E            [ 2] 1510 	sub	sp, #14
                                   1511 ;	User/eric_proc.c: 279: if (strokeA.tim_trg > 0)
                                   1512 ; skipping iCode since result will be rematerialized
                                   1513 ; genCast
                                   1514 ; genAssign
      00037A AEr00r00         [ 2] 1515 	ldw	x, #(_strokeA+0)
                                   1516 ; genPointerGet
      00037D 1F 01            [ 2] 1517 	ldw	(0x01, sp), x
                                   1518 ; peephole 4w removed redundant load from (0x01, sp) into x.
      00037F F6               [ 1] 1519 	ld	a, (x)
                                   1520 ; genIfx
      000380 6B 0E            [ 1] 1521 	ld	(0x0e, sp), a
                                   1522 ; peephole 31a removed redundant tnz.
                                   1523 ; peephole j5 changed absolute to relative unconditional jump.
      000382 27 03            [ 1] 1524 	jreq	00102$
                                   1525 ; peephole j10 removed jra by using inverse jump logic
                                   1526 ; peephole j30 removed unused label 00149$.
                                   1527 ;	User/eric_proc.c: 281: return;
                                   1528 ; genReturn
      000384 CCr04r89         [ 2] 1529 	jp	00110$
                                   1530 ; genLabel
      000387                       1531 00102$:
                                   1532 ;	User/eric_proc.c: 284: psta[0] = psta[1];
                                   1533 ; skipping iCode since result will be rematerialized
                                   1534 ; skipping iCode since result will be rematerialized
                                   1535 ; genPointerGet
                                   1536 ; genPointerSet
      000387 55u03u20u03u1F   [ 1] 1537 	mov	_A_Fxn_psta_10000_740+0, _A_Fxn_psta_10000_740+1
                                   1538 ; peephole 4d replaced pair of mem-to-mem load with mov.
                                   1539 ;	User/eric_proc.c: 285: psta[1] = psta[2];
                                   1540 ; genPlus
      00038C AEr03r21         [ 2] 1541 	ldw	x, #(_A_Fxn_psta_10000_740+0)+2
                                   1542 ; genPointerGet
      00038F F6               [ 1] 1543 	ld	a, (x)
                                   1544 ; genPointerSet
      000390 C7u03u20         [ 1] 1545 	ld	_A_Fxn_psta_10000_740+1, a
                                   1546 ;	User/eric_proc.c: 286: psta[2] = psta[3];
                                   1547 ; skipping iCode since result will be rematerialized
                                   1548 ; genPointerGet
      000393 C6u03u22         [ 1] 1549 	ld	a, _A_Fxn_psta_10000_740+3
                                   1550 ; genPointerSet
      000396 F7               [ 1] 1551 	ld	(x), a
                                   1552 ;	User/eric_proc.c: 287: psta[3] = GPIO_ReadInputDataBit(GPIOD, GPIO_Pin_5); //每200ms读pin状态,超过1000ms都是高电平，表示一次冲击停止
                                   1553 ; genSend
      000397 A6 20            [ 1] 1554 	ld	a, #0x20
                                   1555 ; genSend
      000399 AE 50 0F         [ 2] 1556 	ldw	x, #0x500f
                                   1557 ; genCall
      00039C CDr00r00         [ 4] 1558 	call	_GPIO_ReadInputDataBit
                                   1559 ; genCast
                                   1560 ; genAssign
                                   1561 ; genPointerSet
      00039F C7u03u22         [ 1] 1562 	ld	_A_Fxn_psta_10000_740+3, a
                                   1563 ;	User/eric_proc.c: 289: for (i = 0; i < 4; i++)
                                   1564 ; genAssign
      0003A2 4F               [ 1] 1565 	clr	a
                                   1566 ; genLabel
      0003A3                       1567 00108$:
                                   1568 ;	User/eric_proc.c: 291: if (0 == (psta[i] & 0x20))
                                   1569 ; genPlus
      0003A3 5F               [ 1] 1570 	clrw	x
      0003A4 97               [ 1] 1571 	ld	xl, a
      0003A5 1Cr03r1F         [ 2] 1572 	addw	x, #(_A_Fxn_psta_10000_740+0)
                                   1573 ; genPointerGet
      0003A8 88               [ 1] 1574 	push	a
      0003A9 F6               [ 1] 1575 	ld	a, (x)
                                   1576 ; genAnd
                                   1577 ; peephole 6 removed dead pop / push pair.
                                   1578 ; peephole 0 removed dead load into xl from a.
                                   1579 ; peephole 4 removed redundant load from xl into a.
      0003AA A5 20            [ 1] 1580 	bcp	a, #0x20
      0003AC 84               [ 1] 1581 	pop	a
                                   1582 ; peephole j5 changed absolute to relative unconditional jump.
      0003AD 26 05            [ 1] 1583 	jrne	00109$
                                   1584 ; peephole j7 removed jra by using inverse jump logic
                                   1585 ; peephole j30 removed unused label 00150$.
                                   1586 ; skipping generated iCode
                                   1587 ;	User/eric_proc.c: 293: i = 0xff;
                                   1588 ; genAssign
      0003AF A6 FF            [ 1] 1589 	ld	a, #0xff
      0003B1 97               [ 1] 1590 	ld	xl, a
                                   1591 ;	User/eric_proc.c: 294: break;
                                   1592 ; genGoto
      0003B2 20 06            [ 2] 1593 	jra	00105$
                                   1594 ; peephole j5 changed absolute to relative unconditional jump.
                                   1595 ; genLabel
      0003B4                       1596 00109$:
                                   1597 ;	User/eric_proc.c: 289: for (i = 0; i < 4; i++)
                                   1598 ; genPlus
      0003B4 4C               [ 1] 1599 	inc	a
                                   1600 ; genAssign
      0003B5 97               [ 1] 1601 	ld	xl, a
                                   1602 ; genCmp
                                   1603 ; genCmpTnz
      0003B6 A1 04            [ 1] 1604 	cp	a, #0x04
                                   1605 ; peephole j5 changed absolute to relative unconditional jump.
      0003B8 25 E9            [ 1] 1606 	jrc	00108$
                                   1607 ; peephole j9 removed jra by using inverse jump logic
                                   1608 ; peephole j30 removed unused label 00151$.
                                   1609 ; skipping generated iCode
                                   1610 ; genLabel
      0003BA                       1611 00105$:
                                   1612 ;	User/eric_proc.c: 297: if (i != 0xff)
                                   1613 ; genCmpEQorNE
      0003BA 9F               [ 1] 1614 	ld	a, xl
      0003BB 4C               [ 1] 1615 	inc	a
      0003BC 26 03            [ 1] 1616 	jrne	00153$
      0003BE CCr04r89         [ 2] 1617 	jp	00110$
      0003C1                       1618 00153$:
                                   1619 ; skipping generated iCode
                                   1620 ;	User/eric_proc.c: 299: memset(psta, 0, 4);
                                   1621 ; skipping iCode since result will be rematerialized
                                   1622 ; genIPush
      0003C1 4B 04            [ 1] 1623 	push	#0x04
      0003C3 4B 00            [ 1] 1624 	push	#0x00
                                   1625 ; genIPush
      0003C5 5F               [ 1] 1626 	clrw	x
      0003C6 89               [ 2] 1627 	pushw	x
                                   1628 ; genSend
      0003C7 AEr03r1F         [ 2] 1629 	ldw	x, #(_A_Fxn_psta_10000_740+0)
                                   1630 ; genCall
      0003CA CDr00r00         [ 4] 1631 	call	_memset
                                   1632 ;	User/eric_proc.c: 300: raw = (strokeA.tim_e >= strokeA.tim_s) ? (strokeA.tim_e - strokeA.tim_s) : 0;
                                   1633 ; skipping iCode since result will be rematerialized
                                   1634 ; genPointerGet
      0003CD AEr00r00         [ 2] 1635 	ldw	x, #(_strokeA+0)
      0003D0 90 93            [ 1] 1636 	ldw	y, x
      0003D2 90 EE 07         [ 2] 1637 	ldw	y, (0x7, y)
      0003D5 17 05            [ 2] 1638 	ldw	(0x05, sp), y
      0003D7 EE 05            [ 2] 1639 	ldw	x, (0x5, x)
      0003D9 1F 03            [ 2] 1640 	ldw	(0x03, sp), x
                                   1641 ; skipping iCode since result will be rematerialized
                                   1642 ; genPointerGet
      0003DB AEr00r01         [ 2] 1643 	ldw	x, #(_strokeA+1)
      0003DE 90 93            [ 1] 1644 	ldw	y, x
      0003E0 90 EE 02         [ 2] 1645 	ldw	y, (0x2, y)
      0003E3 17 09            [ 2] 1646 	ldw	(0x09, sp), y
      0003E5 FE               [ 2] 1647 	ldw	x, (x)
      0003E6 1F 07            [ 2] 1648 	ldw	(0x07, sp), x
                                   1649 ; genCmp
                                   1650 ; genCmpTnz
      0003E8 1E 05            [ 2] 1651 	ldw	x, (0x05, sp)
      0003EA 13 09            [ 2] 1652 	cpw	x, (0x09, sp)
      0003EC 7B 04            [ 1] 1653 	ld	a, (0x04, sp)
      0003EE 12 08            [ 1] 1654 	sbc	a, (0x08, sp)
      0003F0 7B 03            [ 1] 1655 	ld	a, (0x03, sp)
      0003F2 12 07            [ 1] 1656 	sbc	a, (0x07, sp)
                                   1657 ; peephole j5 changed absolute to relative unconditional jump.
      0003F4 25 12            [ 1] 1658 	jrc	00112$
                                   1659 ; peephole j9 removed jra by using inverse jump logic
                                   1660 ; peephole j30 removed unused label 00155$.
                                   1661 ; skipping generated iCode
                                   1662 ; genMinus
      0003F6 1E 05            [ 2] 1663 	ldw	x, (0x05, sp)
      0003F8 72 F0 09         [ 2] 1664 	subw	x, (0x09, sp)
      0003FB 1F 0D            [ 2] 1665 	ldw	(0x0d, sp), x
      0003FD 7B 04            [ 1] 1666 	ld	a, (0x04, sp)
      0003FF 12 08            [ 1] 1667 	sbc	a, (0x08, sp)
      000401 97               [ 1] 1668 	ld	xl, a
      000402 7B 03            [ 1] 1669 	ld	a, (0x03, sp)
      000404 12 07            [ 1] 1670 	sbc	a, (0x07, sp)
                                   1671 ; genGoto
      000406 20 05            [ 2] 1672 	jra	00113$
                                   1673 ; peephole j5 changed absolute to relative unconditional jump.
                                   1674 ; genLabel
      000408                       1675 00112$:
                                   1676 ; genAssign
      000408 5F               [ 1] 1677 	clrw	x
      000409 1F 0D            [ 2] 1678 	ldw	(0x0d, sp), x
      00040B 5F               [ 1] 1679 	clrw	x
      00040C 4F               [ 1] 1680 	clr	a
                                   1681 ; genLabel
      00040D                       1682 00113$:
                                   1683 ; genAssign
      00040D 95               [ 1] 1684 	ld	xh, a
      00040E 16 0D            [ 2] 1685 	ldw	y, (0x0d, sp)
                                   1686 ;	User/eric_proc.c: 301: strokeA.tim_len = (uint32_t)((701UL * raw + 3500UL) / 7000UL);
                                   1687 ; skipping iCode since result will be rematerialized
                                   1688 ; genIPush
      000410 90 89            [ 2] 1689 	pushw	y
      000412 89               [ 2] 1690 	pushw	x
                                   1691 ; genIPush
      000413 4B BD            [ 1] 1692 	push	#0xbd
      000415 4B 02            [ 1] 1693 	push	#0x02
      000417 5F               [ 1] 1694 	clrw	x
      000418 89               [ 2] 1695 	pushw	x
                                   1696 ; genCall
      000419 CDr00r00         [ 4] 1697 	call	__mullong
      00041C 5B 08            [ 2] 1698 	addw	sp, #8
      00041E 17 0B            [ 2] 1699 	ldw	(0x0b, sp), y
                                   1700 ; genPlus
      000420 1C 0D AC         [ 2] 1701 	addw	x, #0x0dac
      000423 16 0B            [ 2] 1702 	ldw	y, (0x0b, sp)
      000425 24 02            [ 1] 1703 	jrnc	00156$
      000427 90 5C            [ 1] 1704 	incw	y
      000429                       1705 00156$:
                                   1706 ; genIPush
      000429 4B 58            [ 1] 1707 	push	#0x58
      00042B 4B 1B            [ 1] 1708 	push	#0x1b
      00042D 4B 00            [ 1] 1709 	push	#0x00
      00042F 4B 00            [ 1] 1710 	push	#0x00
                                   1711 ; genIPush
      000431 89               [ 2] 1712 	pushw	x
      000432 90 89            [ 2] 1713 	pushw	y
                                   1714 ; genCall
      000434 CDr00r00         [ 4] 1715 	call	__divulong
      000437 5B 08            [ 2] 1716 	addw	sp, #8
      000439 17 0B            [ 2] 1717 	ldw	(0x0b, sp), y
                                   1718 ; genPointerSet
      00043B 90 AEr00r09      [ 2] 1719 	ldw	y, #(_strokeA+9)
      00043F 90 EF 02         [ 2] 1720 	ldw	(0x2, y), x
      000442 1E 0B            [ 2] 1721 	ldw	x, (0x0b, sp)
      000444 90 FF            [ 2] 1722 	ldw	(y), x
                                   1723 ;	User/eric_proc.c: 302: strokeA.tim_trg = 1;
                                   1724 ; genPointerSet
      000446 1E 01            [ 2] 1725 	ldw	x, (0x01, sp)
      000448 A6 01            [ 1] 1726 	ld	a, #0x01
      00044A F7               [ 1] 1727 	ld	(x), a
                                   1728 ;	User/eric_proc.c: 303: single_trg += 1;
                                   1729 ; genCast
                                   1730 ; genAssign
                                   1731 ; genPlus
      00044B 72 5Cu00u00      [ 1] 1732 	inc	_single_trg+0
                                   1733 ; peephole 16 applied inc on _single_trg+0 instead of a.
                                   1734 ;	User/eric_proc.c: 304: strokeA.tim_len = (strokeA.tim_len & 0x00ffffff) | (0x01000000); //A相+时长
                                   1735 ; genPointerGet
      00044F AEr00r09         [ 2] 1736 	ldw	x, #(_strokeA+9)
      000452 90 93            [ 1] 1737 	ldw	y, x
      000454 90 EE 02         [ 2] 1738 	ldw	y, (0x2, y)
      000457 FE               [ 2] 1739 	ldw	x, (x)
                                   1740 ; genAnd
      000458 9F               [ 1] 1741 	ld	a, xl
      000459 88               [ 1] 1742 	push	a
      00045A 0F 08            [ 1] 1743 	clr	(0x08, sp)
      00045C 84               [ 1] 1744 	pop	a
                                   1745 ; genOr
      00045D 6B 0C            [ 1] 1746 	ld	(0x0c, sp), a
      00045F 17 0D            [ 2] 1747 	ldw	(0x0d, sp), y
      000461 A6 01            [ 1] 1748 	ld	a, #0x01
      000463 6B 0B            [ 1] 1749 	ld	(0x0b, sp), a
                                   1750 ; genPointerSet
      000465 AEr00r09         [ 2] 1751 	ldw	x, #(_strokeA+9)
      000468 16 0D            [ 2] 1752 	ldw	y, (0x0d, sp)
      00046A EF 02            [ 2] 1753 	ldw	(0x2, x), y
      00046C 16 0B            [ 2] 1754 	ldw	y, (0x0b, sp)
      00046E FF               [ 2] 1755 	ldw	(x), y
                                   1756 ;	User/eric_proc.c: 305: SendMsg(&MsgSystem, MSG_COUNT, strokeA.tim_len, strokeA.tim_s); //发送相别+时长+起始时间(用于判断是否是相邻两项同时被雷击)
                                   1757 ; genPointerGet
      00046F AEr00r01         [ 2] 1758 	ldw	x, #(_strokeA+1)
      000472 90 93            [ 1] 1759 	ldw	y, x
      000474 90 EE 02         [ 2] 1760 	ldw	y, (0x2, y)
      000477 FE               [ 2] 1761 	ldw	x, (x)
                                   1762 ; skipping iCode since result will be rematerialized
                                   1763 ; skipping iCode since result will be rematerialized
                                   1764 ; genIPush
      000478 90 89            [ 2] 1765 	pushw	y
      00047A 89               [ 2] 1766 	pushw	x
                                   1767 ; genIPush
      00047B 1E 11            [ 2] 1768 	ldw	x, (0x11, sp)
      00047D 89               [ 2] 1769 	pushw	x
      00047E 1E 11            [ 2] 1770 	ldw	x, (0x11, sp)
      000480 89               [ 2] 1771 	pushw	x
                                   1772 ; genSend
      000481 A6 03            [ 1] 1773 	ld	a, #0x03
                                   1774 ; genSend
      000483 AEr00r01         [ 2] 1775 	ldw	x, #(_MsgSystem+0)
                                   1776 ; genCall
      000486 CDr02rE2         [ 4] 1777 	call	_SendMsg
                                   1778 ; genLabel
      000489                       1779 00110$:
                                   1780 ;	User/eric_proc.c: 309: }
                                   1781 ; genEndFunction
      000489 5B 0E            [ 2] 1782 	addw	sp, #14
      00048B 81               [ 4] 1783 	ret
                                   1784 ;	Total A_Fxn function size at codegen: 3 bytes.
                                   1785 ;	User/eric_proc.c: 312: void B_Fxn(void)
                                   1786 ; genLabel
                                   1787 ;	-----------------------------------------
                                   1788 ;	 function B_Fxn
                                   1789 ;	-----------------------------------------
                                   1790 ;	Register assignment might be sub-optimal.
                                   1791 ;	Stack space usage: 14 bytes.
      00048C                       1792 _B_Fxn:
      00048C 52 0E            [ 2] 1793 	sub	sp, #14
                                   1794 ;	User/eric_proc.c: 318: if (strokeB.tim_trg > 0)
                                   1795 ; skipping iCode since result will be rematerialized
                                   1796 ; genCast
                                   1797 ; genAssign
      00048E AEr00r0D         [ 2] 1798 	ldw	x, #(_strokeB+0)
                                   1799 ; genPointerGet
      000491 1F 01            [ 2] 1800 	ldw	(0x01, sp), x
                                   1801 ; peephole 4w removed redundant load from (0x01, sp) into x.
      000493 F6               [ 1] 1802 	ld	a, (x)
                                   1803 ; genIfx
      000494 6B 0E            [ 1] 1804 	ld	(0x0e, sp), a
                                   1805 ; peephole 31a removed redundant tnz.
                                   1806 ; peephole j5 changed absolute to relative unconditional jump.
      000496 27 03            [ 1] 1807 	jreq	00102$
                                   1808 ; peephole j10 removed jra by using inverse jump logic
                                   1809 ; peephole j30 removed unused label 00149$.
                                   1810 ;	User/eric_proc.c: 320: return;
                                   1811 ; genReturn
      000498 CCr05r9D         [ 2] 1812 	jp	00110$
                                   1813 ; genLabel
      00049B                       1814 00102$:
                                   1815 ;	User/eric_proc.c: 323: pstb[0] = pstb[1];
                                   1816 ; skipping iCode since result will be rematerialized
                                   1817 ; skipping iCode since result will be rematerialized
                                   1818 ; genPointerGet
                                   1819 ; genPointerSet
      00049B 55u03u24u03u23   [ 1] 1820 	mov	_B_Fxn_pstb_10000_747+0, _B_Fxn_pstb_10000_747+1
                                   1821 ; peephole 4d replaced pair of mem-to-mem load with mov.
                                   1822 ;	User/eric_proc.c: 324: pstb[1] = pstb[2];
                                   1823 ; genPlus
      0004A0 AEr03r25         [ 2] 1824 	ldw	x, #(_B_Fxn_pstb_10000_747+0)+2
                                   1825 ; genPointerGet
      0004A3 F6               [ 1] 1826 	ld	a, (x)
                                   1827 ; genPointerSet
      0004A4 C7u03u24         [ 1] 1828 	ld	_B_Fxn_pstb_10000_747+1, a
                                   1829 ;	User/eric_proc.c: 325: pstb[2] = pstb[3];
                                   1830 ; skipping iCode since result will be rematerialized
                                   1831 ; genPointerGet
      0004A7 C6u03u26         [ 1] 1832 	ld	a, _B_Fxn_pstb_10000_747+3
                                   1833 ; genPointerSet
      0004AA F7               [ 1] 1834 	ld	(x), a
                                   1835 ;	User/eric_proc.c: 326: pstb[3] = GPIO_ReadInputDataBit(GPIOD, GPIO_Pin_6); //每200ms读pin状态,超过1000ms都是高电平，表示一次冲击停止
                                   1836 ; genSend
      0004AB A6 40            [ 1] 1837 	ld	a, #0x40
                                   1838 ; genSend
      0004AD AE 50 0F         [ 2] 1839 	ldw	x, #0x500f
                                   1840 ; genCall
      0004B0 CDr00r00         [ 4] 1841 	call	_GPIO_ReadInputDataBit
                                   1842 ; genCast
                                   1843 ; genAssign
                                   1844 ; genPointerSet
      0004B3 C7u03u26         [ 1] 1845 	ld	_B_Fxn_pstb_10000_747+3, a
                                   1846 ;	User/eric_proc.c: 328: for (i = 0; i < 4; i++)
                                   1847 ; genAssign
      0004B6 4F               [ 1] 1848 	clr	a
                                   1849 ; genLabel
      0004B7                       1850 00108$:
                                   1851 ;	User/eric_proc.c: 330: if (0 == (pstb[i] & 0x40))
                                   1852 ; genPlus
      0004B7 5F               [ 1] 1853 	clrw	x
      0004B8 97               [ 1] 1854 	ld	xl, a
      0004B9 1Cr03r23         [ 2] 1855 	addw	x, #(_B_Fxn_pstb_10000_747+0)
                                   1856 ; genPointerGet
      0004BC 88               [ 1] 1857 	push	a
      0004BD F6               [ 1] 1858 	ld	a, (x)
                                   1859 ; genAnd
                                   1860 ; peephole 6 removed dead pop / push pair.
                                   1861 ; peephole 0 removed dead load into xl from a.
                                   1862 ; peephole 4 removed redundant load from xl into a.
      0004BE A5 40            [ 1] 1863 	bcp	a, #0x40
      0004C0 84               [ 1] 1864 	pop	a
                                   1865 ; peephole j5 changed absolute to relative unconditional jump.
      0004C1 26 05            [ 1] 1866 	jrne	00109$
                                   1867 ; peephole j7 removed jra by using inverse jump logic
                                   1868 ; peephole j30 removed unused label 00150$.
                                   1869 ; skipping generated iCode
                                   1870 ;	User/eric_proc.c: 332: i = 0xff;
                                   1871 ; genAssign
      0004C3 A6 FF            [ 1] 1872 	ld	a, #0xff
      0004C5 97               [ 1] 1873 	ld	xl, a
                                   1874 ;	User/eric_proc.c: 333: break;
                                   1875 ; genGoto
      0004C6 20 06            [ 2] 1876 	jra	00105$
                                   1877 ; peephole j5 changed absolute to relative unconditional jump.
                                   1878 ; genLabel
      0004C8                       1879 00109$:
                                   1880 ;	User/eric_proc.c: 328: for (i = 0; i < 4; i++)
                                   1881 ; genPlus
      0004C8 4C               [ 1] 1882 	inc	a
                                   1883 ; genAssign
      0004C9 97               [ 1] 1884 	ld	xl, a
                                   1885 ; genCmp
                                   1886 ; genCmpTnz
      0004CA A1 04            [ 1] 1887 	cp	a, #0x04
                                   1888 ; peephole j5 changed absolute to relative unconditional jump.
      0004CC 25 E9            [ 1] 1889 	jrc	00108$
                                   1890 ; peephole j9 removed jra by using inverse jump logic
                                   1891 ; peephole j30 removed unused label 00151$.
                                   1892 ; skipping generated iCode
                                   1893 ; genLabel
      0004CE                       1894 00105$:
                                   1895 ;	User/eric_proc.c: 336: if (i != 0xff)
                                   1896 ; genCmpEQorNE
      0004CE 9F               [ 1] 1897 	ld	a, xl
      0004CF 4C               [ 1] 1898 	inc	a
      0004D0 26 03            [ 1] 1899 	jrne	00153$
      0004D2 CCr05r9D         [ 2] 1900 	jp	00110$
      0004D5                       1901 00153$:
                                   1902 ; skipping generated iCode
                                   1903 ;	User/eric_proc.c: 338: memset(pstb, 0, 4);
                                   1904 ; skipping iCode since result will be rematerialized
                                   1905 ; genIPush
      0004D5 4B 04            [ 1] 1906 	push	#0x04
      0004D7 4B 00            [ 1] 1907 	push	#0x00
                                   1908 ; genIPush
      0004D9 5F               [ 1] 1909 	clrw	x
      0004DA 89               [ 2] 1910 	pushw	x
                                   1911 ; genSend
      0004DB AEr03r23         [ 2] 1912 	ldw	x, #(_B_Fxn_pstb_10000_747+0)
                                   1913 ; genCall
      0004DE CDr00r00         [ 4] 1914 	call	_memset
                                   1915 ;	User/eric_proc.c: 339: raw = (strokeB.tim_e >= strokeB.tim_s) ? (strokeB.tim_e - strokeB.tim_s) : 0;
                                   1916 ; skipping iCode since result will be rematerialized
                                   1917 ; genPointerGet
      0004E1 AEr00r0D         [ 2] 1918 	ldw	x, #(_strokeB+0)
      0004E4 90 93            [ 1] 1919 	ldw	y, x
      0004E6 90 EE 07         [ 2] 1920 	ldw	y, (0x7, y)
      0004E9 17 05            [ 2] 1921 	ldw	(0x05, sp), y
      0004EB EE 05            [ 2] 1922 	ldw	x, (0x5, x)
      0004ED 1F 03            [ 2] 1923 	ldw	(0x03, sp), x
                                   1924 ; skipping iCode since result will be rematerialized
                                   1925 ; genPointerGet
      0004EF AEr00r0E         [ 2] 1926 	ldw	x, #(_strokeB+1)
      0004F2 90 93            [ 1] 1927 	ldw	y, x
      0004F4 90 EE 02         [ 2] 1928 	ldw	y, (0x2, y)
      0004F7 17 09            [ 2] 1929 	ldw	(0x09, sp), y
      0004F9 FE               [ 2] 1930 	ldw	x, (x)
      0004FA 1F 07            [ 2] 1931 	ldw	(0x07, sp), x
                                   1932 ; genCmp
                                   1933 ; genCmpTnz
      0004FC 1E 05            [ 2] 1934 	ldw	x, (0x05, sp)
      0004FE 13 09            [ 2] 1935 	cpw	x, (0x09, sp)
      000500 7B 04            [ 1] 1936 	ld	a, (0x04, sp)
      000502 12 08            [ 1] 1937 	sbc	a, (0x08, sp)
      000504 7B 03            [ 1] 1938 	ld	a, (0x03, sp)
      000506 12 07            [ 1] 1939 	sbc	a, (0x07, sp)
                                   1940 ; peephole j5 changed absolute to relative unconditional jump.
      000508 25 12            [ 1] 1941 	jrc	00112$
                                   1942 ; peephole j9 removed jra by using inverse jump logic
                                   1943 ; peephole j30 removed unused label 00155$.
                                   1944 ; skipping generated iCode
                                   1945 ; genMinus
      00050A 1E 05            [ 2] 1946 	ldw	x, (0x05, sp)
      00050C 72 F0 09         [ 2] 1947 	subw	x, (0x09, sp)
      00050F 1F 0D            [ 2] 1948 	ldw	(0x0d, sp), x
      000511 7B 04            [ 1] 1949 	ld	a, (0x04, sp)
      000513 12 08            [ 1] 1950 	sbc	a, (0x08, sp)
      000515 97               [ 1] 1951 	ld	xl, a
      000516 7B 03            [ 1] 1952 	ld	a, (0x03, sp)
      000518 12 07            [ 1] 1953 	sbc	a, (0x07, sp)
                                   1954 ; genGoto
      00051A 20 05            [ 2] 1955 	jra	00113$
                                   1956 ; peephole j5 changed absolute to relative unconditional jump.
                                   1957 ; genLabel
      00051C                       1958 00112$:
                                   1959 ; genAssign
      00051C 5F               [ 1] 1960 	clrw	x
      00051D 1F 0D            [ 2] 1961 	ldw	(0x0d, sp), x
      00051F 5F               [ 1] 1962 	clrw	x
      000520 4F               [ 1] 1963 	clr	a
                                   1964 ; genLabel
      000521                       1965 00113$:
                                   1966 ; genAssign
      000521 95               [ 1] 1967 	ld	xh, a
      000522 16 0D            [ 2] 1968 	ldw	y, (0x0d, sp)
                                   1969 ;	User/eric_proc.c: 340: strokeB.tim_len = (uint32_t)((701UL * raw + 3500UL) / 7000UL);
                                   1970 ; skipping iCode since result will be rematerialized
                                   1971 ; genIPush
      000524 90 89            [ 2] 1972 	pushw	y
      000526 89               [ 2] 1973 	pushw	x
                                   1974 ; genIPush
      000527 4B BD            [ 1] 1975 	push	#0xbd
      000529 4B 02            [ 1] 1976 	push	#0x02
      00052B 5F               [ 1] 1977 	clrw	x
      00052C 89               [ 2] 1978 	pushw	x
                                   1979 ; genCall
      00052D CDr00r00         [ 4] 1980 	call	__mullong
      000530 5B 08            [ 2] 1981 	addw	sp, #8
      000532 17 0B            [ 2] 1982 	ldw	(0x0b, sp), y
                                   1983 ; genPlus
      000534 1C 0D AC         [ 2] 1984 	addw	x, #0x0dac
      000537 16 0B            [ 2] 1985 	ldw	y, (0x0b, sp)
      000539 24 02            [ 1] 1986 	jrnc	00156$
      00053B 90 5C            [ 1] 1987 	incw	y
      00053D                       1988 00156$:
                                   1989 ; genIPush
      00053D 4B 58            [ 1] 1990 	push	#0x58
      00053F 4B 1B            [ 1] 1991 	push	#0x1b
      000541 4B 00            [ 1] 1992 	push	#0x00
      000543 4B 00            [ 1] 1993 	push	#0x00
                                   1994 ; genIPush
      000545 89               [ 2] 1995 	pushw	x
      000546 90 89            [ 2] 1996 	pushw	y
                                   1997 ; genCall
      000548 CDr00r00         [ 4] 1998 	call	__divulong
      00054B 5B 08            [ 2] 1999 	addw	sp, #8
      00054D 17 0B            [ 2] 2000 	ldw	(0x0b, sp), y
                                   2001 ; genPointerSet
      00054F 90 AEr00r16      [ 2] 2002 	ldw	y, #(_strokeB+9)
      000553 90 EF 02         [ 2] 2003 	ldw	(0x2, y), x
      000556 1E 0B            [ 2] 2004 	ldw	x, (0x0b, sp)
      000558 90 FF            [ 2] 2005 	ldw	(y), x
                                   2006 ;	User/eric_proc.c: 341: strokeB.tim_trg = 1;
                                   2007 ; genPointerSet
      00055A 1E 01            [ 2] 2008 	ldw	x, (0x01, sp)
      00055C A6 01            [ 1] 2009 	ld	a, #0x01
      00055E F7               [ 1] 2010 	ld	(x), a
                                   2011 ;	User/eric_proc.c: 342: single_trg += 1;
                                   2012 ; genCast
                                   2013 ; genAssign
                                   2014 ; genPlus
      00055F 72 5Cu00u00      [ 1] 2015 	inc	_single_trg+0
                                   2016 ; peephole 16 applied inc on _single_trg+0 instead of a.
                                   2017 ;	User/eric_proc.c: 343: strokeB.tim_len = (strokeB.tim_len & 0x00ffffff) | (0x02000000);
                                   2018 ; genPointerGet
      000563 AEr00r16         [ 2] 2019 	ldw	x, #(_strokeB+9)
      000566 90 93            [ 1] 2020 	ldw	y, x
      000568 90 EE 02         [ 2] 2021 	ldw	y, (0x2, y)
      00056B FE               [ 2] 2022 	ldw	x, (x)
                                   2023 ; genAnd
      00056C 9F               [ 1] 2024 	ld	a, xl
      00056D 88               [ 1] 2025 	push	a
      00056E 0F 08            [ 1] 2026 	clr	(0x08, sp)
      000570 84               [ 1] 2027 	pop	a
                                   2028 ; genOr
      000571 6B 0C            [ 1] 2029 	ld	(0x0c, sp), a
      000573 17 0D            [ 2] 2030 	ldw	(0x0d, sp), y
      000575 A6 02            [ 1] 2031 	ld	a, #0x02
      000577 6B 0B            [ 1] 2032 	ld	(0x0b, sp), a
                                   2033 ; genPointerSet
      000579 AEr00r16         [ 2] 2034 	ldw	x, #(_strokeB+9)
      00057C 16 0D            [ 2] 2035 	ldw	y, (0x0d, sp)
      00057E EF 02            [ 2] 2036 	ldw	(0x2, x), y
      000580 16 0B            [ 2] 2037 	ldw	y, (0x0b, sp)
      000582 FF               [ 2] 2038 	ldw	(x), y
                                   2039 ;	User/eric_proc.c: 344: SendMsg(&MsgSystem, MSG_COUNT, strokeB.tim_len, strokeB.tim_s);
                                   2040 ; genPointerGet
      000583 AEr00r0E         [ 2] 2041 	ldw	x, #(_strokeB+1)
      000586 90 93            [ 1] 2042 	ldw	y, x
      000588 90 EE 02         [ 2] 2043 	ldw	y, (0x2, y)
      00058B FE               [ 2] 2044 	ldw	x, (x)
                                   2045 ; skipping iCode since result will be rematerialized
                                   2046 ; skipping iCode since result will be rematerialized
                                   2047 ; genIPush
      00058C 90 89            [ 2] 2048 	pushw	y
      00058E 89               [ 2] 2049 	pushw	x
                                   2050 ; genIPush
      00058F 1E 11            [ 2] 2051 	ldw	x, (0x11, sp)
      000591 89               [ 2] 2052 	pushw	x
      000592 1E 11            [ 2] 2053 	ldw	x, (0x11, sp)
      000594 89               [ 2] 2054 	pushw	x
                                   2055 ; genSend
      000595 A6 03            [ 1] 2056 	ld	a, #0x03
                                   2057 ; genSend
      000597 AEr00r01         [ 2] 2058 	ldw	x, #(_MsgSystem+0)
                                   2059 ; genCall
      00059A CDr02rE2         [ 4] 2060 	call	_SendMsg
                                   2061 ; genLabel
      00059D                       2062 00110$:
                                   2063 ;	User/eric_proc.c: 347: }
                                   2064 ; genEndFunction
      00059D 5B 0E            [ 2] 2065 	addw	sp, #14
      00059F 81               [ 4] 2066 	ret
                                   2067 ;	Total B_Fxn function size at codegen: 3 bytes.
                                   2068 ;	User/eric_proc.c: 350: void C_Fxn(void)
                                   2069 ; genLabel
                                   2070 ;	-----------------------------------------
                                   2071 ;	 function C_Fxn
                                   2072 ;	-----------------------------------------
                                   2073 ;	Register assignment might be sub-optimal.
                                   2074 ;	Stack space usage: 14 bytes.
      0005A0                       2075 _C_Fxn:
      0005A0 52 0E            [ 2] 2076 	sub	sp, #14
                                   2077 ;	User/eric_proc.c: 356: if (strokeC.tim_trg > 0)
                                   2078 ; skipping iCode since result will be rematerialized
                                   2079 ; genCast
                                   2080 ; genAssign
      0005A2 AEr00r1A         [ 2] 2081 	ldw	x, #(_strokeC+0)
                                   2082 ; genPointerGet
      0005A5 1F 01            [ 2] 2083 	ldw	(0x01, sp), x
                                   2084 ; peephole 4w removed redundant load from (0x01, sp) into x.
      0005A7 F6               [ 1] 2085 	ld	a, (x)
                                   2086 ; genIfx
      0005A8 6B 0E            [ 1] 2087 	ld	(0x0e, sp), a
                                   2088 ; peephole 31a removed redundant tnz.
                                   2089 ; peephole j5 changed absolute to relative unconditional jump.
      0005AA 27 03            [ 1] 2090 	jreq	00102$
                                   2091 ; peephole j10 removed jra by using inverse jump logic
                                   2092 ; peephole j30 removed unused label 00149$.
                                   2093 ;	User/eric_proc.c: 358: return;
                                   2094 ; genReturn
      0005AC CCr06rB3         [ 2] 2095 	jp	00110$
                                   2096 ; genLabel
      0005AF                       2097 00102$:
                                   2098 ;	User/eric_proc.c: 361: pstc[0] = pstc[1];
                                   2099 ; skipping iCode since result will be rematerialized
                                   2100 ; skipping iCode since result will be rematerialized
                                   2101 ; genPointerGet
                                   2102 ; genPointerSet
      0005AF 55u03u28u03u27   [ 1] 2103 	mov	_C_Fxn_pstc_10000_754+0, _C_Fxn_pstc_10000_754+1
                                   2104 ; peephole 4d replaced pair of mem-to-mem load with mov.
                                   2105 ;	User/eric_proc.c: 362: pstc[1] = pstc[2];
                                   2106 ; genPlus
      0005B4 AEr03r29         [ 2] 2107 	ldw	x, #(_C_Fxn_pstc_10000_754+0)+2
                                   2108 ; genPointerGet
      0005B7 F6               [ 1] 2109 	ld	a, (x)
                                   2110 ; genPointerSet
      0005B8 C7u03u28         [ 1] 2111 	ld	_C_Fxn_pstc_10000_754+1, a
                                   2112 ;	User/eric_proc.c: 363: pstc[2] = pstc[3];
                                   2113 ; skipping iCode since result will be rematerialized
                                   2114 ; genPointerGet
      0005BB C6u03u2A         [ 1] 2115 	ld	a, _C_Fxn_pstc_10000_754+3
                                   2116 ; genPointerSet
      0005BE F7               [ 1] 2117 	ld	(x), a
                                   2118 ;	User/eric_proc.c: 364: pstc[3] = GPIO_ReadInputDataBit(GPIOD, GPIO_Pin_7); //每200ms读pin状态,超过1000ms都是高电平，表示一次冲击停止
                                   2119 ; genSend
      0005BF A6 80            [ 1] 2120 	ld	a, #0x80
                                   2121 ; genSend
      0005C1 AE 50 0F         [ 2] 2122 	ldw	x, #0x500f
                                   2123 ; genCall
      0005C4 CDr00r00         [ 4] 2124 	call	_GPIO_ReadInputDataBit
                                   2125 ; genCast
                                   2126 ; genAssign
                                   2127 ; genPointerSet
      0005C7 C7u03u2A         [ 1] 2128 	ld	_C_Fxn_pstc_10000_754+3, a
                                   2129 ;	User/eric_proc.c: 366: for (i = 0; i < 4; i++)
                                   2130 ; genAssign
      0005CA 4F               [ 1] 2131 	clr	a
                                   2132 ; genLabel
      0005CB                       2133 00108$:
                                   2134 ;	User/eric_proc.c: 368: if (0 == (pstc[i] & 0x80))
                                   2135 ; genPlus
      0005CB 5F               [ 1] 2136 	clrw	x
      0005CC 97               [ 1] 2137 	ld	xl, a
      0005CD 1Cr03r27         [ 2] 2138 	addw	x, #(_C_Fxn_pstc_10000_754+0)
                                   2139 ; genPointerGet
      0005D0 88               [ 1] 2140 	push	a
      0005D1 F6               [ 1] 2141 	ld	a, (x)
      0005D2 6B 0F            [ 1] 2142 	ld	(0x0f, sp), a
      0005D4 84               [ 1] 2143 	pop	a
                                   2144 ; genAnd
      0005D5 0D 0E            [ 1] 2145 	tnz	(0x0e, sp)
                                   2146 ; peephole j5 changed absolute to relative unconditional jump.
      0005D7 2B 05            [ 1] 2147 	jrmi	00109$
                                   2148 ; peephole j11 removed jra by using inverse jump logic
                                   2149 ; peephole j30 removed unused label 00150$.
                                   2150 ; skipping generated iCode
                                   2151 ;	User/eric_proc.c: 370: i = 0xff;
                                   2152 ; genAssign
      0005D9 A6 FF            [ 1] 2153 	ld	a, #0xff
      0005DB 97               [ 1] 2154 	ld	xl, a
                                   2155 ;	User/eric_proc.c: 371: break;
                                   2156 ; genGoto
      0005DC 20 06            [ 2] 2157 	jra	00105$
                                   2158 ; peephole j5 changed absolute to relative unconditional jump.
                                   2159 ; genLabel
      0005DE                       2160 00109$:
                                   2161 ;	User/eric_proc.c: 366: for (i = 0; i < 4; i++)
                                   2162 ; genPlus
      0005DE 4C               [ 1] 2163 	inc	a
                                   2164 ; genAssign
      0005DF 97               [ 1] 2165 	ld	xl, a
                                   2166 ; genCmp
                                   2167 ; genCmpTnz
      0005E0 A1 04            [ 1] 2168 	cp	a, #0x04
                                   2169 ; peephole j5 changed absolute to relative unconditional jump.
      0005E2 25 E7            [ 1] 2170 	jrc	00108$
                                   2171 ; peephole j9 removed jra by using inverse jump logic
                                   2172 ; peephole j30 removed unused label 00151$.
                                   2173 ; skipping generated iCode
                                   2174 ; genLabel
      0005E4                       2175 00105$:
                                   2176 ;	User/eric_proc.c: 375: if (i != 0xff)
                                   2177 ; genCmpEQorNE
      0005E4 9F               [ 1] 2178 	ld	a, xl
      0005E5 4C               [ 1] 2179 	inc	a
      0005E6 26 03            [ 1] 2180 	jrne	00153$
      0005E8 CCr06rB3         [ 2] 2181 	jp	00110$
      0005EB                       2182 00153$:
                                   2183 ; skipping generated iCode
                                   2184 ;	User/eric_proc.c: 377: memset(pstc, 0, 4);
                                   2185 ; skipping iCode since result will be rematerialized
                                   2186 ; genIPush
      0005EB 4B 04            [ 1] 2187 	push	#0x04
      0005ED 4B 00            [ 1] 2188 	push	#0x00
                                   2189 ; genIPush
      0005EF 5F               [ 1] 2190 	clrw	x
      0005F0 89               [ 2] 2191 	pushw	x
                                   2192 ; genSend
      0005F1 AEr03r27         [ 2] 2193 	ldw	x, #(_C_Fxn_pstc_10000_754+0)
                                   2194 ; genCall
      0005F4 CDr00r00         [ 4] 2195 	call	_memset
                                   2196 ;	User/eric_proc.c: 378: raw = (strokeC.tim_e >= strokeC.tim_s) ? (strokeC.tim_e - strokeC.tim_s) : 0;
                                   2197 ; skipping iCode since result will be rematerialized
                                   2198 ; genPointerGet
      0005F7 AEr00r1A         [ 2] 2199 	ldw	x, #(_strokeC+0)
      0005FA 90 93            [ 1] 2200 	ldw	y, x
      0005FC 90 EE 07         [ 2] 2201 	ldw	y, (0x7, y)
      0005FF 17 05            [ 2] 2202 	ldw	(0x05, sp), y
      000601 EE 05            [ 2] 2203 	ldw	x, (0x5, x)
      000603 1F 03            [ 2] 2204 	ldw	(0x03, sp), x
                                   2205 ; skipping iCode since result will be rematerialized
                                   2206 ; genPointerGet
      000605 AEr00r1B         [ 2] 2207 	ldw	x, #(_strokeC+1)
      000608 90 93            [ 1] 2208 	ldw	y, x
      00060A 90 EE 02         [ 2] 2209 	ldw	y, (0x2, y)
      00060D 17 09            [ 2] 2210 	ldw	(0x09, sp), y
      00060F FE               [ 2] 2211 	ldw	x, (x)
      000610 1F 07            [ 2] 2212 	ldw	(0x07, sp), x
                                   2213 ; genCmp
                                   2214 ; genCmpTnz
      000612 1E 05            [ 2] 2215 	ldw	x, (0x05, sp)
      000614 13 09            [ 2] 2216 	cpw	x, (0x09, sp)
      000616 7B 04            [ 1] 2217 	ld	a, (0x04, sp)
      000618 12 08            [ 1] 2218 	sbc	a, (0x08, sp)
      00061A 7B 03            [ 1] 2219 	ld	a, (0x03, sp)
      00061C 12 07            [ 1] 2220 	sbc	a, (0x07, sp)
                                   2221 ; peephole j5 changed absolute to relative unconditional jump.
      00061E 25 12            [ 1] 2222 	jrc	00112$
                                   2223 ; peephole j9 removed jra by using inverse jump logic
                                   2224 ; peephole j30 removed unused label 00155$.
                                   2225 ; skipping generated iCode
                                   2226 ; genMinus
      000620 1E 05            [ 2] 2227 	ldw	x, (0x05, sp)
      000622 72 F0 09         [ 2] 2228 	subw	x, (0x09, sp)
      000625 1F 0D            [ 2] 2229 	ldw	(0x0d, sp), x
      000627 7B 04            [ 1] 2230 	ld	a, (0x04, sp)
      000629 12 08            [ 1] 2231 	sbc	a, (0x08, sp)
      00062B 97               [ 1] 2232 	ld	xl, a
      00062C 7B 03            [ 1] 2233 	ld	a, (0x03, sp)
      00062E 12 07            [ 1] 2234 	sbc	a, (0x07, sp)
                                   2235 ; genGoto
      000630 20 05            [ 2] 2236 	jra	00113$
                                   2237 ; peephole j5 changed absolute to relative unconditional jump.
                                   2238 ; genLabel
      000632                       2239 00112$:
                                   2240 ; genAssign
      000632 5F               [ 1] 2241 	clrw	x
      000633 1F 0D            [ 2] 2242 	ldw	(0x0d, sp), x
      000635 5F               [ 1] 2243 	clrw	x
      000636 4F               [ 1] 2244 	clr	a
                                   2245 ; genLabel
      000637                       2246 00113$:
                                   2247 ; genAssign
      000637 95               [ 1] 2248 	ld	xh, a
      000638 16 0D            [ 2] 2249 	ldw	y, (0x0d, sp)
                                   2250 ;	User/eric_proc.c: 379: strokeC.tim_len = (uint32_t)((701UL * raw + 3500UL) / 7000UL);
                                   2251 ; skipping iCode since result will be rematerialized
                                   2252 ; genIPush
      00063A 90 89            [ 2] 2253 	pushw	y
      00063C 89               [ 2] 2254 	pushw	x
                                   2255 ; genIPush
      00063D 4B BD            [ 1] 2256 	push	#0xbd
      00063F 4B 02            [ 1] 2257 	push	#0x02
      000641 5F               [ 1] 2258 	clrw	x
      000642 89               [ 2] 2259 	pushw	x
                                   2260 ; genCall
      000643 CDr00r00         [ 4] 2261 	call	__mullong
      000646 5B 08            [ 2] 2262 	addw	sp, #8
      000648 17 0B            [ 2] 2263 	ldw	(0x0b, sp), y
                                   2264 ; genPlus
      00064A 1C 0D AC         [ 2] 2265 	addw	x, #0x0dac
      00064D 16 0B            [ 2] 2266 	ldw	y, (0x0b, sp)
      00064F 24 02            [ 1] 2267 	jrnc	00156$
      000651 90 5C            [ 1] 2268 	incw	y
      000653                       2269 00156$:
                                   2270 ; genIPush
      000653 4B 58            [ 1] 2271 	push	#0x58
      000655 4B 1B            [ 1] 2272 	push	#0x1b
      000657 4B 00            [ 1] 2273 	push	#0x00
      000659 4B 00            [ 1] 2274 	push	#0x00
                                   2275 ; genIPush
      00065B 89               [ 2] 2276 	pushw	x
      00065C 90 89            [ 2] 2277 	pushw	y
                                   2278 ; genCall
      00065E CDr00r00         [ 4] 2279 	call	__divulong
      000661 5B 08            [ 2] 2280 	addw	sp, #8
      000663 17 0B            [ 2] 2281 	ldw	(0x0b, sp), y
                                   2282 ; genPointerSet
      000665 90 AEr00r23      [ 2] 2283 	ldw	y, #(_strokeC+9)
      000669 90 EF 02         [ 2] 2284 	ldw	(0x2, y), x
      00066C 1E 0B            [ 2] 2285 	ldw	x, (0x0b, sp)
      00066E 90 FF            [ 2] 2286 	ldw	(y), x
                                   2287 ;	User/eric_proc.c: 380: strokeC.tim_trg = 1;
                                   2288 ; genPointerSet
      000670 1E 01            [ 2] 2289 	ldw	x, (0x01, sp)
      000672 A6 01            [ 1] 2290 	ld	a, #0x01
      000674 F7               [ 1] 2291 	ld	(x), a
                                   2292 ;	User/eric_proc.c: 381: single_trg += 1;
                                   2293 ; genCast
                                   2294 ; genAssign
                                   2295 ; genPlus
      000675 72 5Cu00u00      [ 1] 2296 	inc	_single_trg+0
                                   2297 ; peephole 16 applied inc on _single_trg+0 instead of a.
                                   2298 ;	User/eric_proc.c: 382: strokeC.tim_len = (strokeC.tim_len & 0x00ffffff) | (0x04000000);
                                   2299 ; genPointerGet
      000679 AEr00r23         [ 2] 2300 	ldw	x, #(_strokeC+9)
      00067C 90 93            [ 1] 2301 	ldw	y, x
      00067E 90 EE 02         [ 2] 2302 	ldw	y, (0x2, y)
      000681 FE               [ 2] 2303 	ldw	x, (x)
                                   2304 ; genAnd
      000682 9F               [ 1] 2305 	ld	a, xl
      000683 88               [ 1] 2306 	push	a
      000684 0F 08            [ 1] 2307 	clr	(0x08, sp)
      000686 84               [ 1] 2308 	pop	a
                                   2309 ; genOr
      000687 6B 0C            [ 1] 2310 	ld	(0x0c, sp), a
      000689 17 0D            [ 2] 2311 	ldw	(0x0d, sp), y
      00068B A6 04            [ 1] 2312 	ld	a, #0x04
      00068D 6B 0B            [ 1] 2313 	ld	(0x0b, sp), a
                                   2314 ; genPointerSet
      00068F AEr00r23         [ 2] 2315 	ldw	x, #(_strokeC+9)
      000692 16 0D            [ 2] 2316 	ldw	y, (0x0d, sp)
      000694 EF 02            [ 2] 2317 	ldw	(0x2, x), y
      000696 16 0B            [ 2] 2318 	ldw	y, (0x0b, sp)
      000698 FF               [ 2] 2319 	ldw	(x), y
                                   2320 ;	User/eric_proc.c: 383: SendMsg(&MsgSystem, MSG_COUNT, strokeC.tim_len, strokeC.tim_s);
                                   2321 ; genPointerGet
      000699 AEr00r1B         [ 2] 2322 	ldw	x, #(_strokeC+1)
      00069C 90 93            [ 1] 2323 	ldw	y, x
      00069E 90 EE 02         [ 2] 2324 	ldw	y, (0x2, y)
      0006A1 FE               [ 2] 2325 	ldw	x, (x)
                                   2326 ; skipping iCode since result will be rematerialized
                                   2327 ; skipping iCode since result will be rematerialized
                                   2328 ; genIPush
      0006A2 90 89            [ 2] 2329 	pushw	y
      0006A4 89               [ 2] 2330 	pushw	x
                                   2331 ; genIPush
      0006A5 1E 11            [ 2] 2332 	ldw	x, (0x11, sp)
      0006A7 89               [ 2] 2333 	pushw	x
      0006A8 1E 11            [ 2] 2334 	ldw	x, (0x11, sp)
      0006AA 89               [ 2] 2335 	pushw	x
                                   2336 ; genSend
      0006AB A6 03            [ 1] 2337 	ld	a, #0x03
                                   2338 ; genSend
      0006AD AEr00r01         [ 2] 2339 	ldw	x, #(_MsgSystem+0)
                                   2340 ; genCall
      0006B0 CDr02rE2         [ 4] 2341 	call	_SendMsg
                                   2342 ; genLabel
      0006B3                       2343 00110$:
                                   2344 ;	User/eric_proc.c: 387: }
                                   2345 ; genEndFunction
      0006B3 5B 0E            [ 2] 2346 	addw	sp, #14
      0006B5 81               [ 4] 2347 	ret
                                   2348 ;	Total C_Fxn function size at codegen: 3 bytes.
                                   2349 ;	User/eric_proc.c: 390: uint16_t Rev16(uint16_t val)
                                   2350 ; genLabel
                                   2351 ;	-----------------------------------------
                                   2352 ;	 function Rev16
                                   2353 ;	-----------------------------------------
                                   2354 ;	Register assignment might be sub-optimal.
                                   2355 ;	Stack space usage: 2 bytes.
      0006B6                       2356 _Rev16:
      0006B6 89               [ 2] 2357 	pushw	x
                                   2358 ; genReceive
                                   2359 ;	User/eric_proc.c: 395: a = (val >> 8) & 0xff;
                                   2360 ; genGetByte
      0006B7 90 93            [ 1] 2361 	ldw	y, x
                                   2362 ;	User/eric_proc.c: 396: b = val & 0xff;
                                   2363 ; genCast
                                   2364 ; genAssign
                                   2365 ;	User/eric_proc.c: 397: c = (b << 8) | a;
                                   2366 ; genCast
                                   2367 ; genAssign
                                   2368 ; peephole 1 removed dead clear of a.
                                   2369 ; genLeftShiftLiteral
      0006B9 4F               [ 1] 2370 	clr	a
      0006BA 02               [ 1] 2371 	rlwa	x
                                   2372 ; genCast
                                   2373 ; genAssign
      0006BB 0F 01            [ 1] 2374 	clr	(0x01, sp)
                                   2375 ; genOr
      0006BD 90 9E            [ 1] 2376 	ld	a, yh
                                   2377 ; genCast
                                   2378 ; genAssign
                                   2379 ;	User/eric_proc.c: 398: return c;
                                   2380 ; genReturn
      0006BF 97               [ 1] 2381 	ld	xl, a
                                   2382 ; genLabel
                                   2383 ; peephole j30 removed unused label 00101$.
                                   2384 ;	User/eric_proc.c: 399: }
                                   2385 ; genEndFunction
      0006C0 5B 02            [ 2] 2386 	addw	sp, #2
      0006C2 81               [ 4] 2387 	ret
                                   2388 ;	Total Rev16 function size at codegen: 3 bytes.
                                   2389 ;	User/eric_proc.c: 401: uint8_t crc_verify(uint8_t *p, uint16_t len) //stm8是大端模式
                                   2390 ; genLabel
                                   2391 ;	-----------------------------------------
                                   2392 ;	 function crc_verify
                                   2393 ;	-----------------------------------------
                                   2394 ;	Register assignment might be sub-optimal.
                                   2395 ;	Stack space usage: 4 bytes.
      0006C3                       2396 _crc_verify:
      0006C3 52 04            [ 2] 2397 	sub	sp, #4
                                   2398 ; genReceive
      0006C5 1F 03            [ 2] 2399 	ldw	(0x03, sp), x
                                   2400 ;	User/eric_proc.c: 403: uint16_t crc1 = 0, crc2 = 0;
                                   2401 ; genAssign
      0006C7 5F               [ 1] 2402 	clrw	x
      0006C8 1F 01            [ 2] 2403 	ldw	(0x01, sp), x
                                   2404 ;	User/eric_proc.c: 405: memcpy((uint8_t *)&crc1, p + len - 2, 2);
                                   2405 ; genPlus
      0006CA 1E 03            [ 2] 2406 	ldw	x, (0x03, sp)
      0006CC 72 FB 07         [ 2] 2407 	addw	x, (0x07, sp)
                                   2408 ; genMinus
      0006CF 5A               [ 2] 2409 	decw	x
      0006D0 5A               [ 2] 2410 	decw	x
                                   2411 ; genCast
                                   2412 ; genAssign
                                   2413 ; skipping iCode since result will be rematerialized
                                   2414 ; skipping iCode since result will be rematerialized
                                   2415 ; genIPush
      0006D1 4B 02            [ 1] 2416 	push	#0x02
      0006D3 4B 00            [ 1] 2417 	push	#0x00
                                   2418 ; genIPush
      0006D5 89               [ 2] 2419 	pushw	x
                                   2420 ; genSend
      0006D6 96               [ 1] 2421 	ldw	x, sp
      0006D7 1C 00 05         [ 2] 2422 	addw	x, #5
                                   2423 ; genCall
      0006DA CDr00r00         [ 4] 2424 	call	___memcpy
                                   2425 ;	User/eric_proc.c: 406: crc1 = Rev16(crc1);
                                   2426 ; genSend
      0006DD 1E 01            [ 2] 2427 	ldw	x, (0x01, sp)
                                   2428 ; genCall
      0006DF CDr06rB6         [ 4] 2429 	call	_Rev16
                                   2430 ; genAssign
      0006E2 1F 01            [ 2] 2431 	ldw	(0x01, sp), x
                                   2432 ;	User/eric_proc.c: 407: crc2 = CRC_GetModbus16(p, len - 2);
                                   2433 ; genCast
                                   2434 ; genAssign
      0006E4 1E 07            [ 2] 2435 	ldw	x, (0x07, sp)
                                   2436 ; genMinus
      0006E6 5A               [ 2] 2437 	decw	x
      0006E7 5A               [ 2] 2438 	decw	x
                                   2439 ; genIPush
      0006E8 89               [ 2] 2440 	pushw	x
                                   2441 ; genSend
      0006E9 1E 05            [ 2] 2442 	ldw	x, (0x05, sp)
                                   2443 ; genCall
      0006EB CDr02r54         [ 4] 2444 	call	_CRC_GetModbus16
                                   2445 ;	User/eric_proc.c: 408: if (crc1 == crc2)
                                   2446 ; genCmpEQorNE
      0006EE 13 01            [ 2] 2447 	cpw	x, (0x01, sp)
                                   2448 ; peephole j5 changed absolute to relative unconditional jump.
                                   2449 ; peephole j10 removed jra by using inverse jump logic
                                   2450 ; peephole j30 removed unused label 00114$.
                                   2451 ; peephole j5 changed absolute to relative unconditional jump.
      0006F0 26 03            [ 1] 2452 	jrne	00102$
                                   2453 ; peephole j7 removed jra by using inverse jump logic
                                   2454 ; peephole j30 removed unused label 00115$.
                                   2455 ; skipping generated iCode
                                   2456 ;	User/eric_proc.c: 410: return 1;
                                   2457 ; genReturn
      0006F2 A6 01            [ 1] 2458 	ld	a, #0x01
                                   2459 ; peephole j5 changed absolute to relative unconditional jump.
                                   2460 ; genLabel
                                   2461 ;	User/eric_proc.c: 414: return 0;
                                   2462 ; genReturn
                                   2463 ; genLabel
      0006F4 21                    2464 	.byte 0x21
                                   2465 ; peephole jrf1 used jump-on-false opcode to shorten jump over 1-byte instruction.
      0006F5                       2466 00102$:
      0006F5 4F               [ 1] 2467 	clr	a
      0006F6                       2468 00104$:
                                   2469 ;	User/eric_proc.c: 416: }
                                   2470 ; genEndFunction
      0006F6 1E 05            [ 2] 2471 	ldw	x, (5, sp)
      0006F8 5B 08            [ 2] 2472 	addw	sp, #8
      0006FA FC               [ 2] 2473 	jp	(x)
                                   2474 ;	Total crc_verify function size at codegen: 5 bytes.
                                   2475 ;	User/eric_proc.c: 419: uint16_t Pkt_485ackquery(uint8_t addrID, uint8_t funID, uint16_t saddr, uint16_t offset, Rs485u16Rlt *rlt, uint8_t *packet)
                                   2476 ; genLabel
                                   2477 ;	-----------------------------------------
                                   2478 ;	 function Pkt_485ackquery
                                   2479 ;	-----------------------------------------
                                   2480 ;	Register assignment might be sub-optimal.
                                   2481 ;	Stack space usage: 25 bytes.
      0006FB                       2482 _Pkt_485ackquery:
      0006FB 52 19            [ 2] 2483 	sub	sp, #25
                                   2484 ; genReceive
      0006FD 6B 19            [ 1] 2485 	ld	(0x19, sp), a
                                   2486 ;	User/eric_proc.c: 422: uint16_t crc16 = 0;
                                   2487 ; genAssign
      0006FF 5F               [ 1] 2488 	clrw	x
      000700 1F 01            [ 2] 2489 	ldw	(0x01, sp), x
                                   2490 ;	User/eric_proc.c: 425: if (rlt == NULL)
                                   2491 ; genIfx
                                   2492 ; peephole j5 changed absolute to relative unconditional jump.
                                   2493 ; peephole j7 removed jra by using inverse jump logic
                                   2494 ; peephole j30 removed unused label 00149$.
                                   2495 ;	User/eric_proc.c: 427: return 0;
                                   2496 ; genReturn
      000702 1E 21            [ 2] 2497 	ldw	x, (0x21, sp)
      000704 26 03            [ 1] 2498 	jrne	00102$
                                   2499 ; peephole 22d removed redundant clrw x.
      000706 CCr07rDC         [ 2] 2500 	jp	00112$
                                   2501 ; genLabel
      000709                       2502 00102$:
                                   2503 ;	User/eric_proc.c: 429: if (packet == NULL)
                                   2504 ; genIfx
                                   2505 ; peephole j5 changed absolute to relative unconditional jump.
                                   2506 ; peephole j7 removed jra by using inverse jump logic
                                   2507 ; peephole j30 removed unused label 00150$.
                                   2508 ;	User/eric_proc.c: 431: return 0;
                                   2509 ; genReturn
      000709 1E 23            [ 2] 2510 	ldw	x, (0x23, sp)
      00070B 26 03            [ 1] 2511 	jrne	00104$
                                   2512 ; peephole 22d removed redundant clrw x.
      00070D CCr07rDC         [ 2] 2513 	jp	00112$
                                   2514 ; genLabel
      000710                       2515 00104$:
                                   2516 ;	User/eric_proc.c: 433: if (saddr > 7)
                                   2517 ; genCast
                                   2518 ; genAssign
      000710 1E 1D            [ 2] 2519 	ldw	x, (0x1d, sp)
                                   2520 ; genCmp
                                   2521 ; genCmpTnz
      000712 A3 00 07         [ 2] 2522 	cpw	x, #0x0007
                                   2523 ; peephole j5 changed absolute to relative unconditional jump.
      000715 23 04            [ 2] 2524 	jrule	00106$
                                   2525 ; peephole j16 removed jra by using inverse jump logic
                                   2526 ; peephole j30 removed unused label 00151$.
                                   2527 ; skipping generated iCode
                                   2528 ;	User/eric_proc.c: 435: return 0;
                                   2529 ; genReturn
      000717 5F               [ 1] 2530 	clrw	x
      000718 CCr07rDC         [ 2] 2531 	jp	00112$
                                   2532 ; genLabel
      00071B                       2533 00106$:
                                   2534 ;	User/eric_proc.c: 437: if ((offset == 0) || (offset > 7))
                                   2535 ; genIfx
                                   2536 ; peephole j5 changed absolute to relative unconditional jump.
                                   2537 ; peephole j10 removed jra by using inverse jump logic
                                   2538 ; peephole j30 removed unused label 00152$.
                                   2539 ; genCast
                                   2540 ; genAssign
      00071B 1E 1F            [ 2] 2541 	ldw	x, (0x1f, sp)
      00071D 27 05            [ 1] 2542 	jreq	00107$
                                   2543 ; peephole 50eq removed redundant load of x from (0x1f, sp).
                                   2544 ; genCmp
                                   2545 ; genCmpTnz
      00071F A3 00 07         [ 2] 2546 	cpw	x, #0x0007
                                   2547 ; peephole j5 changed absolute to relative unconditional jump.
      000722 23 04            [ 2] 2548 	jrule	00108$
                                   2549 ; peephole j16 removed jra by using inverse jump logic
                                   2550 ; peephole j30 removed unused label 00153$.
                                   2551 ; skipping generated iCode
                                   2552 ; genLabel
      000724                       2553 00107$:
                                   2554 ;	User/eric_proc.c: 439: return 0;
                                   2555 ; genReturn
      000724 5F               [ 1] 2556 	clrw	x
      000725 CCr07rDC         [ 2] 2557 	jp	00112$
                                   2558 ; genLabel
      000728                       2559 00108$:
                                   2560 ;	User/eric_proc.c: 443: if ((saddr + offset) > 7) //如果地址加偏移错误，自动修正
                                   2561 ; genPlus
      000728 1E 1D            [ 2] 2562 	ldw	x, (0x1d, sp)
      00072A 72 FB 1F         [ 2] 2563 	addw	x, (0x1f, sp)
                                   2564 ; genCast
                                   2565 ; genAssign
                                   2566 ; genCmp
                                   2567 ; genCmpTnz
      00072D A3 00 07         [ 2] 2568 	cpw	x, #0x0007
                                   2569 ; peephole j5 changed absolute to relative unconditional jump.
      000730 23 08            [ 2] 2570 	jrule	00111$
                                   2571 ; peephole j16 removed jra by using inverse jump logic
                                   2572 ; peephole j30 removed unused label 00154$.
                                   2573 ; skipping generated iCode
                                   2574 ;	User/eric_proc.c: 445: offset = 7 - saddr;
                                   2575 ; genMinus
      000732 AE 00 07         [ 2] 2576 	ldw	x, #0x0007
      000735 72 F0 1D         [ 2] 2577 	subw	x, (0x1d, sp)
                                   2578 ; genAssign
      000738 1F 1F            [ 2] 2579 	ldw	(0x1f, sp), x
                                   2580 ; genLabel
      00073A                       2581 00111$:
                                   2582 ;	User/eric_proc.c: 448: memset(packet, 0, 128);
                                   2583 ; genCast
                                   2584 ; genAssign
      00073A 16 23            [ 2] 2585 	ldw	y, (0x23, sp)
      00073C 17 13            [ 2] 2586 	ldw	(0x13, sp), y
                                   2587 ; genIPush
      00073E 4B 80            [ 1] 2588 	push	#0x80
      000740 4B 00            [ 1] 2589 	push	#0x00
                                   2590 ; genIPush
      000742 5F               [ 1] 2591 	clrw	x
      000743 89               [ 2] 2592 	pushw	x
                                   2593 ; genSend
      000744 1E 17            [ 2] 2594 	ldw	x, (0x17, sp)
                                   2595 ; genCall
      000746 CDr00r00         [ 4] 2596 	call	_memset
                                   2597 ;	User/eric_proc.c: 449: memset((uint8_t *)&c_ackquery, 0, 128);
                                   2598 ; skipping iCode since result will be rematerialized
                                   2599 ; skipping iCode since result will be rematerialized
                                   2600 ; genIPush
      000749 4B 80            [ 1] 2601 	push	#0x80
      00074B 4B 00            [ 1] 2602 	push	#0x00
                                   2603 ; genIPush
      00074D 5F               [ 1] 2604 	clrw	x
      00074E 89               [ 2] 2605 	pushw	x
                                   2606 ; genSend
      00074F AEr01r9F         [ 2] 2607 	ldw	x, #(_c_ackquery+0)
                                   2608 ; genCall
      000752 CDr00r00         [ 4] 2609 	call	_memset
                                   2610 ;	User/eric_proc.c: 450: c_ackquery.addrID = addrID;
                                   2611 ; skipping iCode since result will be rematerialized
                                   2612 ; genPointerSet
      000755 AEr01r9F         [ 2] 2613 	ldw	x, #(_c_ackquery+0)
      000758 7B 19            [ 1] 2614 	ld	a, (0x19, sp)
      00075A F7               [ 1] 2615 	ld	(x), a
                                   2616 ;	User/eric_proc.c: 451: c_ackquery.funID = funID;
                                   2617 ; skipping iCode since result will be rematerialized
                                   2618 ; genPointerSet
      00075B AEr01rA0         [ 2] 2619 	ldw	x, #(_c_ackquery+1)
      00075E 7B 1C            [ 1] 2620 	ld	a, (0x1c, sp)
      000760 F7               [ 1] 2621 	ld	(x), a
                                   2622 ;	User/eric_proc.c: 453: rlt16[0] = rlt->index;
                                   2623 ; skipping iCode since result will be rematerialized
                                   2624 ; genAssign
      000761 16 21            [ 2] 2625 	ldw	y, (0x21, sp)
                                   2626 ; genPointerGet
      000763 93               [ 1] 2627 	ldw	x, y
      000764 FE               [ 2] 2628 	ldw	x, (x)
                                   2629 ; genPointerSet
      000765 1F 03            [ 2] 2630 	ldw	(0x03, sp), x
                                   2631 ;	User/eric_proc.c: 454: rlt16[1] = rlt->phase;
                                   2632 ; skipping iCode since result will be rematerialized
                                   2633 ; genAssign
      000767 93               [ 1] 2634 	ldw	x, y
                                   2635 ; genPointerGet
      000768 EE 02            [ 2] 2636 	ldw	x, (0x2, x)
                                   2637 ; genPointerSet
      00076A 1F 05            [ 2] 2638 	ldw	(0x05, sp), x
                                   2639 ;	User/eric_proc.c: 455: rlt16[2] = rlt->tlen;
                                   2640 ; skipping iCode since result will be rematerialized
                                   2641 ; genAssign
      00076C 93               [ 1] 2642 	ldw	x, y
                                   2643 ; genPointerGet
      00076D EE 04            [ 2] 2644 	ldw	x, (0x4, x)
                                   2645 ; genPointerSet
      00076F 1F 07            [ 2] 2646 	ldw	(0x07, sp), x
                                   2647 ;	User/eric_proc.c: 456: rlt16[3] = rlt->ym;
                                   2648 ; skipping iCode since result will be rematerialized
                                   2649 ; genAssign
      000771 93               [ 1] 2650 	ldw	x, y
                                   2651 ; genPointerGet
      000772 EE 06            [ 2] 2652 	ldw	x, (0x6, x)
                                   2653 ; genPointerSet
      000774 1F 09            [ 2] 2654 	ldw	(0x09, sp), x
                                   2655 ;	User/eric_proc.c: 457: rlt16[4] = rlt->dh;
                                   2656 ; skipping iCode since result will be rematerialized
                                   2657 ; genAssign
      000776 93               [ 1] 2658 	ldw	x, y
                                   2659 ; genPointerGet
      000777 EE 08            [ 2] 2660 	ldw	x, (0x8, x)
                                   2661 ; genPointerSet
      000779 1F 0B            [ 2] 2662 	ldw	(0x0b, sp), x
                                   2663 ;	User/eric_proc.c: 458: rlt16[5] = rlt->ms;
                                   2664 ; skipping iCode since result will be rematerialized
                                   2665 ; genAssign
      00077B 93               [ 1] 2666 	ldw	x, y
                                   2667 ; genPointerGet
      00077C EE 0A            [ 2] 2668 	ldw	x, (0xa, x)
                                   2669 ; genPointerSet
      00077E 1F 0D            [ 2] 2670 	ldw	(0x0d, sp), x
                                   2671 ;	User/eric_proc.c: 459: rlt16[6] = rlt->batt;
                                   2672 ; skipping iCode since result will be rematerialized
                                   2673 ; genAssign
                                   2674 ; genPointerGet
      000780 90 EE 0C         [ 2] 2675 	ldw	y, (0xc, y)
                                   2676 ; genPointerSet
      000783 17 0F            [ 2] 2677 	ldw	(0x0f, sp), y
                                   2678 ;	User/eric_proc.c: 461: c_ackquery.length = offset * 2; //偏移量从1开始计算
                                   2679 ; skipping iCode since result will be rematerialized
                                   2680 ; genCast
                                   2681 ; genAssign
      000785 7B 20            [ 1] 2682 	ld	a, (0x20, sp)
                                   2683 ; genLeftShiftLiteral
      000787 48               [ 1] 2684 	sll	a
                                   2685 ; genPointerSet
                                   2686 ;	User/eric_proc.c: 463: memcpy(c_ackquery.buf, (uint8_t *)&rlt16[saddr], c_ackquery.length);
                                   2687 ; genPointerGet
      000788 C7u01uA1         [ 1] 2688 	ld	_c_ackquery+2, a
                                   2689 ; peephole 4 removed redundant load from _c_ackquery+2 into a.
                                   2690 ; genCast
                                   2691 ; genAssign
      00078B 0F 15            [ 1] 2692 	clr	(0x15, sp)
                                   2693 ; genLeftShiftLiteral
      00078D 1E 1D            [ 2] 2694 	ldw	x, (0x1d, sp)
      00078F 58               [ 2] 2695 	sllw	x
      000790 1F 17            [ 2] 2696 	ldw	(0x17, sp), x
                                   2697 ; genPlus
      000792 96               [ 1] 2698 	ldw	x, sp
      000793 1C 00 03         [ 2] 2699 	addw	x, #3
      000796 72 FB 17         [ 2] 2700 	addw	x, (0x17, sp)
                                   2701 ; genCast
                                   2702 ; genAssign
                                   2703 ; skipping iCode since result will be rematerialized
                                   2704 ; skipping iCode since result will be rematerialized
                                   2705 ; genIPush
      000799 88               [ 1] 2706 	push	a
      00079A 4F               [ 1] 2707 	clr	a
      00079B 88               [ 1] 2708 	push	a
                                   2709 ; genIPush
      00079C 89               [ 2] 2710 	pushw	x
                                   2711 ; genSend
      00079D AEr01rA2         [ 2] 2712 	ldw	x, #(_c_ackquery+3)
                                   2713 ; genCall
      0007A0 CDr00r00         [ 4] 2714 	call	___memcpy
                                   2715 ;	User/eric_proc.c: 464: len = 3 + c_ackquery.length;
                                   2716 ; genPointerGet
      0007A3 C6u01uA1         [ 1] 2717 	ld	a, _c_ackquery+2
                                   2718 ; genCast
                                   2719 ; genAssign
      0007A6 5F               [ 1] 2720 	clrw	x
                                   2721 ; genPlus
      0007A7 97               [ 1] 2722 	ld	xl, a
      0007A8 1C 00 03         [ 2] 2723 	addw	x, #0x0003
                                   2724 ; genCast
                                   2725 ; genAssign
                                   2726 ;	User/eric_proc.c: 465: memcpy(packet, (uint8_t *)&c_ackquery, len);
                                   2727 ; genCast
                                   2728 ; genAssign
      0007AB 1F 15            [ 2] 2729 	ldw	(0x15, sp), x
                                   2730 ; peephole 14 replaced load from (0x15, sp) into y by load from x into y.
                                   2731 ; peephole 14a loaded (0x17, sp) directly from x instead of going through y.
                                   2732 ; skipping iCode since result will be rematerialized
                                   2733 ; skipping iCode since result will be rematerialized
                                   2734 ; genIPush
      0007AD 1F 17            [ 2] 2735 	ldw	(0x17, sp), x
                                   2736 ; peephole 4w removed redundant load from (0x17, sp) into x.
      0007AF 89               [ 2] 2737 	pushw	x
                                   2738 ; genIPush
      0007B0 4Br9F            [ 1] 2739 	push	#<(_c_ackquery+0)
      0007B2 4Bs01            [ 1] 2740 	push	#((_c_ackquery+0) >> 8)
                                   2741 ; genSend
      0007B4 1E 17            [ 2] 2742 	ldw	x, (0x17, sp)
                                   2743 ; genCall
      0007B6 CDr00r00         [ 4] 2744 	call	___memcpy
                                   2745 ;	User/eric_proc.c: 466: crc16 = CRC_GetModbus16(packet, len);
                                   2746 ; genCast
                                   2747 ; genAssign
      0007B9 1E 15            [ 2] 2748 	ldw	x, (0x15, sp)
                                   2749 ; genIPush
      0007BB 89               [ 2] 2750 	pushw	x
                                   2751 ; genSend
      0007BC 1E 25            [ 2] 2752 	ldw	x, (0x25, sp)
                                   2753 ; genCall
      0007BE CDr02r54         [ 4] 2754 	call	_CRC_GetModbus16
                                   2755 ; genAssign
      0007C1 1F 01            [ 2] 2756 	ldw	(0x01, sp), x
                                   2757 ;	User/eric_proc.c: 467: crc16 = Rev16(crc16);
                                   2758 ; genSend
                                   2759 ; genCall
      0007C3 CDr06rB6         [ 4] 2760 	call	_Rev16
                                   2761 ; genAssign
      0007C6 1F 01            [ 2] 2762 	ldw	(0x01, sp), x
                                   2763 ;	User/eric_proc.c: 468: memcpy((packet + len), (uint8_t *)&crc16, 2); //拷贝CRC
                                   2764 ; genAddrOf
      0007C8 96               [ 1] 2765 	ldw	x, sp
      0007C9 5C               [ 1] 2766 	incw	x
                                   2767 ; genCast
                                   2768 ; genAssign
                                   2769 ; genPlus
      0007CA 16 23            [ 2] 2770 	ldw	y, (0x23, sp)
      0007CC 72 F9 15         [ 2] 2771 	addw	y, (0x15, sp)
                                   2772 ; genIPush
      0007CF 4B 02            [ 1] 2773 	push	#0x02
      0007D1 4B 00            [ 1] 2774 	push	#0x00
                                   2775 ; genIPush
      0007D3 89               [ 2] 2776 	pushw	x
                                   2777 ; genSend
      0007D4 93               [ 1] 2778 	ldw	x, y
                                   2779 ; genCall
      0007D5 CDr00r00         [ 4] 2780 	call	___memcpy
                                   2781 ;	User/eric_proc.c: 469: return (len + 2);
                                   2782 ; genPlus
      0007D8 1E 17            [ 2] 2783 	ldw	x, (0x17, sp)
      0007DA 5C               [ 1] 2784 	incw	x
      0007DB 5C               [ 1] 2785 	incw	x
                                   2786 ; genCast
                                   2787 ; genAssign
                                   2788 ; genReturn
                                   2789 ; genLabel
      0007DC                       2790 00112$:
                                   2791 ;	User/eric_proc.c: 471: }
                                   2792 ; genEndFunction
      0007DC 16 1A            [ 2] 2793 	ldw	y, (26, sp)
      0007DE 5B 24            [ 2] 2794 	addw	sp, #36
      0007E0 90 FC            [ 2] 2795 	jp	(y)
                                   2796 ;	Total Pkt_485ackquery function size at codegen: 6 bytes.
                                   2797 ;	User/eric_proc.c: 473: void Get_Record(uint8_t tag)
                                   2798 ; genLabel
                                   2799 ;	-----------------------------------------
                                   2800 ;	 function Get_Record
                                   2801 ;	-----------------------------------------
                                   2802 ;	Register assignment might be sub-optimal.
                                   2803 ;	Stack space usage: 4 bytes.
      0007E2                       2804 _Get_Record:
      0007E2 52 04            [ 2] 2805 	sub	sp, #4
                                   2806 ; genReceive
                                   2807 ;	User/eric_proc.c: 477: if (tag == 0) //如果超时从当前最新的记录开始读取，否则读取下一条记录
                                   2808 ; genIfx
      0007E4 4D               [ 1] 2809 	tnz	a
                                   2810 ; peephole j5 changed absolute to relative unconditional jump.
      0007E5 26 24            [ 1] 2811 	jrne	00108$
                                   2812 ; peephole j7 removed jra by using inverse jump logic
                                   2813 ; peephole j30 removed unused label 00142$.
                                   2814 ;	User/eric_proc.c: 479: if (data_index.used) //有效数据
                                   2815 ; skipping iCode since result will be rematerialized
                                   2816 ; skipping iCode since result will be rematerialized
                                   2817 ; genPointerGet
      0007E7 C6u00u02         [ 1] 2818 	ld	a, _data_index+2
                                   2819 ;	User/eric_proc.c: 483: data_index.r = data_index.w - 1;
                                   2820 ; genCast
                                   2821 ; genAssign
      0007EA AEr00r00         [ 2] 2822 	ldw	x, #(_data_index+0)
                                   2823 ;	User/eric_proc.c: 479: if (data_index.used) //有效数据
                                   2824 ; genIfx
      0007ED 4D               [ 1] 2825 	tnz	a
                                   2826 ; peephole j5 changed absolute to relative unconditional jump.
      0007EE 27 0E            [ 1] 2827 	jreq	00105$
                                   2828 ; peephole j10 removed jra by using inverse jump logic
                                   2829 ; peephole j30 removed unused label 00143$.
                                   2830 ;	User/eric_proc.c: 481: if (data_index.w > 0)
                                   2831 ; skipping iCode since result will be rematerialized
                                   2832 ; genPointerGet
                                   2833 ; genIfx
      0007F0 C6u00u01         [ 1] 2834 	ld	a, _data_index+1
                                   2835 ; peephole 30 removed redundant tnz.
                                   2836 ; peephole j5 changed absolute to relative unconditional jump.
      0007F3 27 04            [ 1] 2837 	jreq	00102$
                                   2838 ; peephole j10 removed jra by using inverse jump logic
                                   2839 ; peephole j30 removed unused label 00144$.
                                   2840 ;	User/eric_proc.c: 483: data_index.r = data_index.w - 1;
                                   2841 ; genCast
                                   2842 ; genAssign
                                   2843 ; genMinus
      0007F5 4A               [ 1] 2844 	dec	a
                                   2845 ; genPointerSet
      0007F6 F7               [ 1] 2846 	ld	(x), a
                                   2847 ; genGoto
      0007F7 20 06            [ 2] 2848 	jra	00106$
                                   2849 ; peephole j5 changed absolute to relative unconditional jump.
                                   2850 ; genLabel
      0007F9                       2851 00102$:
                                   2852 ;	User/eric_proc.c: 487: data_index.r = 89;
                                   2853 ; genPointerSet
      0007F9 A6 59            [ 1] 2854 	ld	a, #0x59
      0007FB F7               [ 1] 2855 	ld	(x), a
                                   2856 ; genGoto
      0007FC 20 01            [ 2] 2857 	jra	00106$
                                   2858 ; peephole j5 changed absolute to relative unconditional jump.
                                   2859 ; genLabel
      0007FE                       2860 00105$:
                                   2861 ;	User/eric_proc.c: 492: data_index.r = 0;
                                   2862 ; genPointerSet
      0007FE 7F               [ 1] 2863 	clr	(x)
                                   2864 ; genLabel
      0007FF                       2865 00106$:
                                   2866 ;	User/eric_proc.c: 494: result = Load_Data(2, (uint8_t *)&lrecd);
                                   2867 ; skipping iCode since result will be rematerialized
                                   2868 ; skipping iCode since result will be rematerialized
                                   2869 ; genSend
      0007FF AEr01r2D         [ 2] 2870 	ldw	x, #(_lrecd+0)
                                   2871 ; genSend
      000802 A6 02            [ 1] 2872 	ld	a, #0x02
                                   2873 ; genCall
      000804 CDr00r00         [ 4] 2874 	call	_Load_Data
      000807 6B 04            [ 1] 2875 	ld	(0x04, sp), a
                                   2876 ; genGoto
      000809 20 09            [ 2] 2877 	jra	00109$
                                   2878 ; peephole j5 changed absolute to relative unconditional jump.
                                   2879 ; genLabel
      00080B                       2880 00108$:
                                   2881 ;	User/eric_proc.c: 498: result = Load_Data(0, (uint8_t *)&lrecd);
                                   2882 ; skipping iCode since result will be rematerialized
                                   2883 ; skipping iCode since result will be rematerialized
                                   2884 ; genSend
      00080B AEr01r2D         [ 2] 2885 	ldw	x, #(_lrecd+0)
                                   2886 ; genSend
      00080E 4F               [ 1] 2887 	clr	a
                                   2888 ; genCall
      00080F CDr00r00         [ 4] 2889 	call	_Load_Data
      000812 6B 04            [ 1] 2890 	ld	(0x04, sp), a
                                   2891 ; genLabel
      000814                       2892 00109$:
                                   2893 ;	User/eric_proc.c: 501: if (result)
                                   2894 ; genIfx
      000814 0D 04            [ 1] 2895 	tnz	(0x04, sp)
                                   2896 ; peephole j5 changed absolute to relative unconditional jump.
      000816 27 5F            [ 1] 2897 	jreq	00112$
                                   2898 ; peephole j10 removed jra by using inverse jump logic
                                   2899 ; peephole j30 removed unused label 00145$.
                                   2900 ;	User/eric_proc.c: 503: r485rlt.index = data_index.r + 1;
                                   2901 ; skipping iCode since result will be rematerialized
                                   2902 ; genCast
                                   2903 ; genAssign
      000818 90 AEr00r76      [ 2] 2904 	ldw	y, #(_r485rlt+0)
                                   2905 ; skipping iCode since result will be rematerialized
                                   2906 ; genPointerGet
      00081C C6u00u00         [ 1] 2907 	ld	a, _data_index+0
                                   2908 ; genCast
                                   2909 ; genAssign
      00081F 5F               [ 1] 2910 	clrw	x
                                   2911 ; genPlus
      000820 97               [ 1] 2912 	ld	xl, a
      000821 5C               [ 1] 2913 	incw	x
                                   2914 ; genCast
                                   2915 ; genAssign
                                   2916 ; genPointerSet
      000822 90 FF            [ 2] 2917 	ldw	(y), x
                                   2918 ;	User/eric_proc.c: 504: r485rlt.phase = (lrecd.pl >> 24) & 0xff;
                                   2919 ; skipping iCode since result will be rematerialized
                                   2920 ; skipping iCode since result will be rematerialized
                                   2921 ; skipping iCode since result will be rematerialized
                                   2922 ; genPointerGet
      000824 AEr01r33         [ 2] 2923 	ldw	x, #(_lrecd+6)
                                   2924 ; peephole 0w removed dead load into y from x.
                                   2925 ; peephole 0w removed dead load into y from (0x2, y).
      000827 FE               [ 2] 2926 	ldw	x, (x)
                                   2927 ; genGetByte
      000828 9E               [ 1] 2928 	ld	a, xh
                                   2929 ; genCast
                                   2930 ; genAssign
      000829 5F               [ 1] 2931 	clrw	x
      00082A 97               [ 1] 2932 	ld	xl, a
                                   2933 ; genPointerSet
      00082B CFu00u78         [ 2] 2934 	ldw	_r485rlt+2, x
                                   2935 ;	User/eric_proc.c: 505: r485rlt.tlen = (lrecd.pl & 0x0000ffff);
                                   2936 ; skipping iCode since result will be rematerialized
                                   2937 ; genPointerGet
      00082E CEu01u35         [ 2] 2938 	ldw	x, _lrecd+8
                                   2939 ; genAssign
                                   2940 ; genPointerSet
      000831 CFu00u7A         [ 2] 2941 	ldw	_r485rlt+4, x
                                   2942 ;	User/eric_proc.c: 506: r485rlt.ym = (lrecd.year << 8) | lrecd.mon;
                                   2943 ; skipping iCode since result will be rematerialized
                                   2944 ; genPointerGet
      000834 C6u01u2D         [ 1] 2945 	ld	a, _lrecd+0
                                   2946 ; genCast
                                   2947 ; genAssign
                                   2948 ; peephole 3 removed dead clrw of x.
                                   2949 ; genLeftShiftLiteral
      000837 95               [ 1] 2950 	ld	xh, a
      000838 0F 02            [ 1] 2951 	clr	(0x02, sp)
                                   2952 ; skipping iCode since result will be rematerialized
                                   2953 ; genPointerGet
      00083A C6u01u2E         [ 1] 2954 	ld	a, _lrecd+1
                                   2955 ; genCast
                                   2956 ; genAssign
      00083D 0F 03            [ 1] 2957 	clr	(0x03, sp)
                                   2958 ; genOr
      00083F 97               [ 1] 2959 	ld	xl, a
                                   2960 ; genCast
                                   2961 ; genAssign
                                   2962 ; genPointerSet
      000840 CFu00u7C         [ 2] 2963 	ldw	_r485rlt+6, x
                                   2964 ;	User/eric_proc.c: 507: r485rlt.dh = (lrecd.day << 8) | lrecd.hour;
                                   2965 ; skipping iCode since result will be rematerialized
                                   2966 ; skipping iCode since result will be rematerialized
                                   2967 ; genPointerGet
      000843 C6u01u2F         [ 1] 2968 	ld	a, _lrecd+2
                                   2969 ; genCast
                                   2970 ; genAssign
                                   2971 ; peephole 3 removed dead clrw of x.
                                   2972 ; genLeftShiftLiteral
      000846 95               [ 1] 2973 	ld	xh, a
      000847 0F 02            [ 1] 2974 	clr	(0x02, sp)
                                   2975 ; skipping iCode since result will be rematerialized
                                   2976 ; genPointerGet
      000849 C6u01u30         [ 1] 2977 	ld	a, _lrecd+3
                                   2978 ; genCast
                                   2979 ; genAssign
      00084C 0F 03            [ 1] 2980 	clr	(0x03, sp)
                                   2981 ; genOr
      00084E 97               [ 1] 2982 	ld	xl, a
                                   2983 ; genCast
                                   2984 ; genAssign
                                   2985 ; genPointerSet
      00084F CFu00u7E         [ 2] 2986 	ldw	_r485rlt+8, x
                                   2987 ;	User/eric_proc.c: 508: r485rlt.ms = (lrecd.min << 8) | lrecd.sec;
                                   2988 ; skipping iCode since result will be rematerialized
                                   2989 ; skipping iCode since result will be rematerialized
                                   2990 ; genPointerGet
      000852 C6u01u31         [ 1] 2991 	ld	a, _lrecd+4
                                   2992 ; genCast
                                   2993 ; genAssign
                                   2994 ; peephole 3 removed dead clrw of x.
                                   2995 ; genLeftShiftLiteral
      000855 95               [ 1] 2996 	ld	xh, a
      000856 0F 02            [ 1] 2997 	clr	(0x02, sp)
                                   2998 ; skipping iCode since result will be rematerialized
                                   2999 ; genPointerGet
      000858 C6u01u32         [ 1] 3000 	ld	a, _lrecd+5
                                   3001 ; genCast
                                   3002 ; genAssign
      00085B 0F 03            [ 1] 3003 	clr	(0x03, sp)
                                   3004 ; genOr
      00085D 97               [ 1] 3005 	ld	xl, a
                                   3006 ; genCast
                                   3007 ; genAssign
                                   3008 ; genPointerSet
      00085E CFu00u80         [ 2] 3009 	ldw	_r485rlt+10, x
                                   3010 ;	User/eric_proc.c: 509: r485rlt.batt = (uint16_t)(Verfin / 100);
                                   3011 ; skipping iCode since result will be rematerialized
                                   3012 ; genIPush
      000861 4B 64            [ 1] 3013 	push	#0x64
      000863 5F               [ 1] 3014 	clrw	x
      000864 89               [ 2] 3015 	pushw	x
      000865 4B 00            [ 1] 3016 	push	#0x00
                                   3017 ; genIPush
      000867 CEu00u02         [ 2] 3018 	ldw	x, _Verfin+2
      00086A 89               [ 2] 3019 	pushw	x
      00086B CEu00u00         [ 2] 3020 	ldw	x, _Verfin+0
      00086E 89               [ 2] 3021 	pushw	x
                                   3022 ; genCall
      00086F CDr00r00         [ 4] 3023 	call	__divulong
      000872 5B 08            [ 2] 3024 	addw	sp, #8
                                   3025 ; genCast
                                   3026 ; genAssign
                                   3027 ; genPointerSet
      000874 CFu00u82         [ 2] 3028 	ldw	_r485rlt+12, x
                                   3029 ; genLabel
      000877                       3030 00112$:
                                   3031 ;	User/eric_proc.c: 511: }
                                   3032 ; genEndFunction
      000877 5B 04            [ 2] 3033 	addw	sp, #4
      000879 81               [ 4] 3034 	ret
                                   3035 ;	Total Get_Record function size at codegen: 3 bytes.
                                   3036 ;	User/eric_proc.c: 514: uint8_t Rs485_GetCfg(uint16_t staddr, uint16_t offset, uint8_t *pbuf)
                                   3037 ; genLabel
                                   3038 ;	-----------------------------------------
                                   3039 ;	 function Rs485_GetCfg
                                   3040 ;	-----------------------------------------
                                   3041 ;	Register assignment might be sub-optimal.
                                   3042 ;	Stack space usage: 10 bytes.
      00087A                       3043 _Rs485_GetCfg:
      00087A 52 0A            [ 2] 3044 	sub	sp, #10
                                   3045 ; genReceive
      00087C 1F 05            [ 2] 3046 	ldw	(0x05, sp), x
                                   3047 ;	User/eric_proc.c: 516: uint16_t addr = 0, val1 = 0, val2 = 0;
                                   3048 ; genAssign
      00087E 5F               [ 1] 3049 	clrw	x
      00087F 1F 01            [ 2] 3050 	ldw	(0x01, sp), x
                                   3051 ;	User/eric_proc.c: 518: if (pbuf == NULL)
                                   3052 ; genIfx
      000881 1E 0F            [ 2] 3053 	ldw	x, (0x0f, sp)
                                   3054 ; peephole j5 changed absolute to relative unconditional jump.
      000883 26 04            [ 1] 3055 	jrne	00102$
                                   3056 ; peephole j7 removed jra by using inverse jump logic
                                   3057 ; peephole j30 removed unused label 00183$.
                                   3058 ;	User/eric_proc.c: 520: return 0;
                                   3059 ; genReturn
      000885 4F               [ 1] 3060 	clr	a
      000886 CCr09r2C         [ 2] 3061 	jp	00124$
                                   3062 ; genLabel
      000889                       3063 00102$:
                                   3064 ;	User/eric_proc.c: 522: if (staddr < 0x8000)
                                   3065 ; genCast
                                   3066 ; genAssign
      000889 1E 05            [ 2] 3067 	ldw	x, (0x05, sp)
                                   3068 ; genCmp
                                   3069 ; genCmpTnz
      00088B A3 80 00         [ 2] 3070 	cpw	x, #0x8000
                                   3071 ; peephole j5 changed absolute to relative unconditional jump.
      00088E 24 04            [ 1] 3072 	jrnc	00104$
                                   3073 ; peephole j6 removed jra by using inverse jump logic
                                   3074 ; peephole j30 removed unused label 00184$.
                                   3075 ; skipping generated iCode
                                   3076 ;	User/eric_proc.c: 524: return 0;
                                   3077 ; genReturn
      000890 4F               [ 1] 3078 	clr	a
      000891 CCr09r2C         [ 2] 3079 	jp	00124$
                                   3080 ; genLabel
      000894                       3081 00104$:
                                   3082 ;	User/eric_proc.c: 526: if (staddr > 0x8005)
                                   3083 ; genCmp
                                   3084 ; genCmpTnz
      000894 A3 80 05         [ 2] 3085 	cpw	x, #0x8005
                                   3086 ; peephole j5 changed absolute to relative unconditional jump.
      000897 23 04            [ 2] 3087 	jrule	00106$
                                   3088 ; peephole j16 removed jra by using inverse jump logic
                                   3089 ; peephole j30 removed unused label 00185$.
                                   3090 ; skipping generated iCode
                                   3091 ;	User/eric_proc.c: 528: return 0;
                                   3092 ; genReturn
      000899 4F               [ 1] 3093 	clr	a
      00089A CCr09r2C         [ 2] 3094 	jp	00124$
                                   3095 ; genLabel
      00089D                       3096 00106$:
                                   3097 ;	User/eric_proc.c: 530: if ((offset == 0) || (offset > 6))
                                   3098 ; genIfx
      00089D 16 0D            [ 2] 3099 	ldw	y, (0x0d, sp)
                                   3100 ; peephole j5 changed absolute to relative unconditional jump.
      00089F 27 08            [ 1] 3101 	jreq	00107$
                                   3102 ; peephole j10 removed jra by using inverse jump logic
                                   3103 ; peephole j30 removed unused label 00186$.
                                   3104 ; genCast
                                   3105 ; genAssign
      0008A1 16 0D            [ 2] 3106 	ldw	y, (0x0d, sp)
                                   3107 ; genCmp
                                   3108 ; genCmpTnz
      0008A3 90 A3 00 06      [ 2] 3109 	cpw	y, #0x0006
                                   3110 ; peephole j5 changed absolute to relative unconditional jump.
      0008A7 23 04            [ 2] 3111 	jrule	00108$
                                   3112 ; peephole j16 removed jra by using inverse jump logic
                                   3113 ; peephole j30 removed unused label 00187$.
                                   3114 ; skipping generated iCode
                                   3115 ; genLabel
      0008A9                       3116 00107$:
                                   3117 ;	User/eric_proc.c: 532: return 0;
                                   3118 ; genReturn
      0008A9 4F               [ 1] 3119 	clr	a
      0008AA CCr09r2C         [ 2] 3120 	jp	00124$
                                   3121 ; genLabel
      0008AD                       3122 00108$:
                                   3123 ;	User/eric_proc.c: 535: if ((staddr + offset) > 0x8006) //如果地址加偏移错误，自动修正
                                   3124 ; genPlus
      0008AD 16 05            [ 2] 3125 	ldw	y, (0x05, sp)
      0008AF 72 F9 0D         [ 2] 3126 	addw	y, (0x0d, sp)
                                   3127 ; genCast
                                   3128 ; genAssign
                                   3129 ; genCmp
                                   3130 ; genCmpTnz
      0008B2 90 A3 80 06      [ 2] 3131 	cpw	y, #0x8006
                                   3132 ; peephole j5 changed absolute to relative unconditional jump.
      0008B6 23 09            [ 2] 3133 	jrule	00111$
                                   3134 ; peephole j16 removed jra by using inverse jump logic
                                   3135 ; peephole j30 removed unused label 00188$.
                                   3136 ; skipping generated iCode
                                   3137 ;	User/eric_proc.c: 537: offset = 0x8006 - staddr;
                                   3138 ; genMinus
      0008B8 90 AE 80 06      [ 2] 3139 	ldw	y, #0x8006
      0008BC 72 F2 05         [ 2] 3140 	subw	y, (0x05, sp)
                                   3141 ; genAssign
      0008BF 17 0D            [ 2] 3142 	ldw	(0x0d, sp), y
                                   3143 ; genLabel
      0008C1                       3144 00111$:
                                   3145 ;	User/eric_proc.c: 540: for (addr = staddr - 0x8000; addr <= offset ; addr++)
                                   3146 ; genMinus
      0008C1 1D 80 00         [ 2] 3147 	subw	x, #0x8000
                                   3148 ; genCast
                                   3149 ; genAssign
                                   3150 ; skipping iCode since result will be rematerialized
                                   3151 ; skipping iCode since result will be rematerialized
                                   3152 ; skipping iCode since result will be rematerialized
                                   3153 ; skipping iCode since result will be rematerialized
                                   3154 ; skipping iCode since result will be rematerialized
                                   3155 ; genAssign
      0008C4 16 0F            [ 2] 3156 	ldw	y, (0x0f, sp)
      0008C6 17 07            [ 2] 3157 	ldw	(0x07, sp), y
                                   3158 ; genAssign
      0008C8 1F 09            [ 2] 3159 	ldw	(0x09, sp), x
                                   3160 ; genLabel
      0008CA                       3161 00122$:
                                   3162 ; genCmp
                                   3163 ; genCmpTnz
      0008CA 1E 09            [ 2] 3164 	ldw	x, (0x09, sp)
      0008CC 13 0D            [ 2] 3165 	cpw	x, (0x0d, sp)
                                   3166 ; peephole j5 changed absolute to relative unconditional jump.
      0008CE 22 5A            [ 1] 3167 	jrugt	00120$
                                   3168 ; peephole j17 removed jp by using inverse jump logic
                                   3169 ; peephole j30 removed unused label 00189$.
                                   3170 ; skipping generated iCode
                                   3171 ;	User/eric_proc.c: 542: memcpy((uint8_t *)&val1, pbuf, 2);
                                   3172 ; genCast
                                   3173 ; genAssign
      0008D0 1E 07            [ 2] 3174 	ldw	x, (0x07, sp)
                                   3175 ; skipping iCode since result will be rematerialized
                                   3176 ; skipping iCode since result will be rematerialized
                                   3177 ; genIPush
      0008D2 4B 02            [ 1] 3178 	push	#0x02
      0008D4 4B 00            [ 1] 3179 	push	#0x00
                                   3180 ; genIPush
      0008D6 89               [ 2] 3181 	pushw	x
                                   3182 ; genSend
      0008D7 96               [ 1] 3183 	ldw	x, sp
      0008D8 1C 00 05         [ 2] 3184 	addw	x, #5
                                   3185 ; genCall
      0008DB CDr00r00         [ 4] 3186 	call	___memcpy
                                   3187 ;	User/eric_proc.c: 543: val2 = Rev16(val1);
                                   3188 ; genSend
      0008DE 1E 01            [ 2] 3189 	ldw	x, (0x01, sp)
                                   3190 ; genCall
      0008E0 CDr06rB6         [ 4] 3191 	call	_Rev16
      0008E3 1F 03            [ 2] 3192 	ldw	(0x03, sp), x
                                   3193 ;	User/eric_proc.c: 545: switch (addr)
                                   3194 ; genCmp
                                   3195 ; genCmpTnz
      0008E5 1E 09            [ 2] 3196 	ldw	x, (0x09, sp)
      0008E7 A3 00 05         [ 2] 3197 	cpw	x, #0x0005
                                   3198 ; peephole j5 changed absolute to relative unconditional jump.
      0008EA 22 31            [ 1] 3199 	jrugt	00119$
                                   3200 ; peephole j17 removed jp by using inverse jump logic
                                   3201 ; peephole j30 removed unused label 00190$.
                                   3202 ; skipping generated iCode
                                   3203 ;	User/eric_proc.c: 548: adjustdt.dt[0] = (val2 & 0xff);
                                   3204 ; genCast
                                   3205 ; genAssign
      0008EC 7B 04            [ 1] 3206 	ld	a, (0x04, sp)
                                   3207 ;	User/eric_proc.c: 545: switch (addr)
                                   3208 ; genJumpTab
      0008EE 1E 09            [ 2] 3209 	ldw	x, (0x09, sp)
      0008F0 58               [ 2] 3210 	sllw	x
      0008F1 DEu08uF5         [ 2] 3211 	ldw	x, (#00191$, x)
      0008F4 FC               [ 2] 3212 	jp	(x)
      0008F5                       3213 00191$:
      0008F5r09r01                 3214 	.dw	#00112$
      0008F7r09r06                 3215 	.dw	#00113$
      0008F9r09r0B                 3216 	.dw	#00114$
      0008FBr09r10                 3217 	.dw	#00115$
      0008FDr09r15                 3218 	.dw	#00116$
      0008FFr09r1A                 3219 	.dw	#00117$
                                   3220 ;	User/eric_proc.c: 547: case 0x00:
                                   3221 ; genLabel
      000901                       3222 00112$:
                                   3223 ;	User/eric_proc.c: 548: adjustdt.dt[0] = (val2 & 0xff);
                                   3224 ; skipping iCode since result will be rematerialized
                                   3225 ; genPointerSet
      000901 C7u00u01         [ 1] 3226 	ld	_adjustdt+1, a
                                   3227 ;	User/eric_proc.c: 549: break;
                                   3228 ; genGoto
      000904 20 17            [ 2] 3229 	jra	00119$
                                   3230 ; peephole j5 changed absolute to relative unconditional jump.
                                   3231 ;	User/eric_proc.c: 550: case 0x01:
                                   3232 ; genLabel
      000906                       3233 00113$:
                                   3234 ;	User/eric_proc.c: 551: adjustdt.dt[1] = (val2 & 0xff);
                                   3235 ; skipping iCode since result will be rematerialized
                                   3236 ; genPointerSet
      000906 C7u00u02         [ 1] 3237 	ld	_adjustdt+2, a
                                   3238 ;	User/eric_proc.c: 552: break;
                                   3239 ; genGoto
      000909 20 12            [ 2] 3240 	jra	00119$
                                   3241 ; peephole j5 changed absolute to relative unconditional jump.
                                   3242 ;	User/eric_proc.c: 553: case 0x02:
                                   3243 ; genLabel
      00090B                       3244 00114$:
                                   3245 ;	User/eric_proc.c: 554: adjustdt.dt[2] = (val2 & 0xff);
                                   3246 ; skipping iCode since result will be rematerialized
                                   3247 ; genPointerSet
      00090B C7u00u03         [ 1] 3248 	ld	_adjustdt+3, a
                                   3249 ;	User/eric_proc.c: 555: break;
                                   3250 ; genGoto
      00090E 20 0D            [ 2] 3251 	jra	00119$
                                   3252 ; peephole j5 changed absolute to relative unconditional jump.
                                   3253 ;	User/eric_proc.c: 556: case 0x03:
                                   3254 ; genLabel
      000910                       3255 00115$:
                                   3256 ;	User/eric_proc.c: 557: adjustdt.dt[3] = (val2 & 0xff);
                                   3257 ; skipping iCode since result will be rematerialized
                                   3258 ; genPointerSet
      000910 C7u00u04         [ 1] 3259 	ld	_adjustdt+4, a
                                   3260 ;	User/eric_proc.c: 558: break;
                                   3261 ; genGoto
      000913 20 08            [ 2] 3262 	jra	00119$
                                   3263 ; peephole j5 changed absolute to relative unconditional jump.
                                   3264 ;	User/eric_proc.c: 559: case 0x04:
                                   3265 ; genLabel
      000915                       3266 00116$:
                                   3267 ;	User/eric_proc.c: 560: adjustdt.dt[4] = (val2 & 0xff);
                                   3268 ; skipping iCode since result will be rematerialized
                                   3269 ; genPointerSet
      000915 C7u00u05         [ 1] 3270 	ld	_adjustdt+5, a
                                   3271 ;	User/eric_proc.c: 561: break;
                                   3272 ; genGoto
      000918 20 03            [ 2] 3273 	jra	00119$
                                   3274 ; peephole j5 changed absolute to relative unconditional jump.
                                   3275 ;	User/eric_proc.c: 562: case 0x05:
                                   3276 ; genLabel
      00091A                       3277 00117$:
                                   3278 ;	User/eric_proc.c: 563: adjustdt.dt[5] = (val2 & 0xff);
                                   3279 ; skipping iCode since result will be rematerialized
                                   3280 ; genPointerSet
      00091A C7u00u06         [ 1] 3281 	ld	_adjustdt+6, a
                                   3282 ;	User/eric_proc.c: 568: }
                                   3283 ; genLabel
      00091D                       3284 00119$:
                                   3285 ;	User/eric_proc.c: 569: pbuf += 2;
                                   3286 ; genPlus
      00091D 1E 07            [ 2] 3287 	ldw	x, (0x07, sp)
      00091F 5C               [ 1] 3288 	incw	x
      000920 5C               [ 1] 3289 	incw	x
      000921 1F 07            [ 2] 3290 	ldw	(0x07, sp), x
                                   3291 ;	User/eric_proc.c: 540: for (addr = staddr - 0x8000; addr <= offset ; addr++)
                                   3292 ; genPlus
      000923 1E 09            [ 2] 3293 	ldw	x, (0x09, sp)
      000925 5C               [ 1] 3294 	incw	x
      000926 1F 09            [ 2] 3295 	ldw	(0x09, sp), x
                                   3296 ; peephole j30 removed unused label 00192$.
                                   3297 ; genGoto
      000928 20 A0            [ 2] 3298 	jra	00122$
                                   3299 ; peephole j5 changed absolute to relative unconditional jump.
                                   3300 ; genLabel
      00092A                       3301 00120$:
                                   3302 ;	User/eric_proc.c: 571: return 1;
                                   3303 ; genReturn
      00092A A6 01            [ 1] 3304 	ld	a, #0x01
                                   3305 ; genLabel
      00092C                       3306 00124$:
                                   3307 ;	User/eric_proc.c: 572: }
                                   3308 ; genEndFunction
      00092C 1E 0B            [ 2] 3309 	ldw	x, (11, sp)
      00092E 5B 10            [ 2] 3310 	addw	sp, #16
      000930 FC               [ 2] 3311 	jp	(x)
                                   3312 ;	Total Rs485_GetCfg function size at codegen: 5 bytes.
                                   3313 ;	User/eric_proc.c: 576: void Rs485_Proc(void)
                                   3314 ; genLabel
                                   3315 ;	-----------------------------------------
                                   3316 ;	 function Rs485_Proc
                                   3317 ;	-----------------------------------------
                                   3318 ;	Register assignment might be sub-optimal.
                                   3319 ;	Stack space usage: 8 bytes.
      000931                       3320 _Rs485_Proc:
      000931 52 08            [ 2] 3321 	sub	sp, #8
                                   3322 ;	User/eric_proc.c: 579: uint16_t pktlen = 0, recbyte = 0, len1 = 0, sta1 = 0, off1 = 0;
                                   3323 ; genAssign
      000933 5F               [ 1] 3324 	clrw	x
      000934 1F 01            [ 2] 3325 	ldw	(0x01, sp), x
                                   3326 ; genAssign
      000936 5F               [ 1] 3327 	clrw	x
      000937 1F 03            [ 2] 3328 	ldw	(0x03, sp), x
                                   3329 ;	User/eric_proc.c: 581: if (timeout) //2s超时计数
                                   3330 ; genIfx
      000939 C6u03u2E         [ 1] 3331 	ld	a, _Rs485_Proc_timeout_10000_793+0
                                   3332 ; peephole 625a changed tnz by ld
                                   3333 ; peephole j5 changed absolute to relative unconditional jump.
      00093C 27 04            [ 1] 3334 	jreq	00147$
                                   3335 ; peephole j10 removed jra by using inverse jump logic
                                   3336 ; peephole j30 removed unused label 00288$.
                                   3337 ;	User/eric_proc.c: 583: timeout--;
                                   3338 ; genMinus
      00093E 72 5Au03u2E      [ 1] 3339 	dec	_Rs485_Proc_timeout_10000_793+0
                                   3340 ;	User/eric_proc.c: 586: while (u1buf.r != u1buf.w)
                                   3341 ; genLabel
      000942                       3342 00147$:
                                   3343 ; skipping iCode since result will be rematerialized
                                   3344 ; skipping iCode since result will be rematerialized
                                   3345 ; skipping iCode since result will be rematerialized
                                   3346 ; skipping iCode since result will be rematerialized
                                   3347 ; skipping iCode since result will be rematerialized
                                   3348 ; skipping iCode since result will be rematerialized
                                   3349 ; skipping iCode since result will be rematerialized
                                   3350 ; skipping iCode since result will be rematerialized
                                   3351 ; skipping iCode since result will be rematerialized
                                   3352 ; skipping iCode since result will be rematerialized
                                   3353 ; skipping iCode since result will be rematerialized
                                   3354 ; skipping iCode since result will be rematerialized
                                   3355 ; skipping iCode since result will be rematerialized
                                   3356 ; skipping iCode since result will be rematerialized
                                   3357 ; skipping iCode since result will be rematerialized
                                   3358 ; skipping iCode since result will be rematerialized
                                   3359 ; skipping iCode since result will be rematerialized
                                   3360 ; genLabel
      000942                       3361 00136$:
                                   3362 ; genCast
                                   3363 ; genAssign
      000942 AEr00r00         [ 2] 3364 	ldw	x, #(_u1buf+0)
                                   3365 ; genPointerGet
      000945 1F 05            [ 2] 3366 	ldw	(0x05, sp), x
                                   3367 ; peephole 4w removed redundant load from (0x05, sp) into x.
      000947 FE               [ 2] 3368 	ldw	x, (x)
      000948 1F 07            [ 2] 3369 	ldw	(0x07, sp), x
                                   3370 ; genPointerGet
      00094A CEu00u02         [ 2] 3371 	ldw	x, _u1buf+2
                                   3372 ; genCmpEQorNE
      00094D 13 07            [ 2] 3373 	cpw	x, (0x07, sp)
      00094F 26 03            [ 1] 3374 	jrne	00290$
      000951 CCr0Br63         [ 2] 3375 	jp	00139$
      000954                       3376 00290$:
                                   3377 ; skipping generated iCode
                                   3378 ;	User/eric_proc.c: 588: temp2 = temp1;
                                   3379 ; genAssign
      000954 55u03u2Bu03u2C   [ 1] 3380 	mov	_Rs485_Proc_temp2_10000_793+0, _Rs485_Proc_temp1_10000_793+0
                                   3381 ;	User/eric_proc.c: 589: temp1 = u1buf.recbuf[u1buf.r];
                                   3382 ; skipping iCode since result will be rematerialized
                                   3383 ; genPointerGet
      000959 1E 05            [ 2] 3384 	ldw	x, (0x05, sp)
      00095B FE               [ 2] 3385 	ldw	x, (x)
                                   3386 ; genPlus
                                   3387 ; genPointerGet
                                   3388 ; peephole 10b moved addition of offset into storage instruction
      00095C D6u00u06         [ 1] 3389 	ld	a, (_u1buf+6, x)
      00095F C7u03u2B         [ 1] 3390 	ld	_Rs485_Proc_temp1_10000_793+0, a
                                   3391 ;	User/eric_proc.c: 590: u1buf.r = (u1buf.r + 1) % UBUFLEN;
                                   3392 ; genPointerGet
      000962 1E 05            [ 2] 3393 	ldw	x, (0x05, sp)
      000964 FE               [ 2] 3394 	ldw	x, (x)
                                   3395 ; genCast
                                   3396 ; genAssign
                                   3397 ; genPlus
      000965 5C               [ 1] 3398 	incw	x
                                   3399 ; peephole 0 removed dead load into a from xh.
                                   3400 ; genAnd
      000966 4F               [ 1] 3401 	clr	a
                                   3402 ; genCast
                                   3403 ; genAssign
      000967 95               [ 1] 3404 	ld	xh, a
                                   3405 ; genPointerSet
      000968 16 05            [ 2] 3406 	ldw	y, (0x05, sp)
      00096A 90 FF            [ 2] 3407 	ldw	(y), x
                                   3408 ;	User/eric_proc.c: 613: memcpy((uint8_t *)&m_cfg, rsUbuf, pktlen);
                                   3409 ; skipping iCode since result will be rematerialized
                                   3410 ;	User/eric_proc.c: 592: switch (stateU)
                                   3411 ; genCmpEQorNE
      00096C C6u03u2D         [ 1] 3412 	ld	a, _Rs485_Proc_stateU_10000_793+0
                                   3413 ; peephole 600a removed unneeded cp a, #0x00
      00096F 26 03            [ 1] 3414 	jrne	00293$
      000971 CCr0ArE8         [ 2] 3415 	jp	00126$
      000974                       3416 00293$:
                                   3417 ; skipping generated iCode
                                   3418 ;	User/eric_proc.c: 595: if (recbyte >= 128) { // 严格防止缓冲区溢出
                                   3419 ; genCast
                                   3420 ; genAssign
      000974 1E 03            [ 2] 3421 	ldw	x, (0x03, sp)
                                   3422 ;	User/eric_proc.c: 599: rsUbuf[recbyte++] = temp1;
                                   3423 ; genPlus
      000976 16 03            [ 2] 3424 	ldw	y, (0x03, sp)
      000978 90 5C            [ 1] 3425 	incw	y
      00097A 17 07            [ 2] 3426 	ldw	(0x07, sp), y
                                   3427 ;	User/eric_proc.c: 595: if (recbyte >= 128) { // 严格防止缓冲区溢出
                                   3428 ; genCmp
                                   3429 ; genCmpTnz
      00097C A3 00 80         [ 2] 3430 	cpw	x, #0x0080
      00097F 4F               [ 1] 3431 	clr	a
      000980 49               [ 1] 3432 	rlc	a
      000981 97               [ 1] 3433 	ld	xl, a
                                   3434 ;	User/eric_proc.c: 592: switch (stateU)
                                   3435 ; genCmpEQorNE
      000982 C6u03u2D         [ 1] 3436 	ld	a, _Rs485_Proc_stateU_10000_793+0
      000985 4A               [ 1] 3437 	dec	a
      000986 26 03            [ 1] 3438 	jrne	00296$
      000988 CCr0Ar66         [ 2] 3439 	jp	00117$
      00098B                       3440 00296$:
                                   3441 ; skipping generated iCode
                                   3442 ; genCmpEQorNE
      00098B C6u03u2D         [ 1] 3443 	ld	a, _Rs485_Proc_stateU_10000_793+0
      00098E A1 02            [ 1] 3444 	cp	a, #0x02
                                   3445 ; peephole j5 changed absolute to relative unconditional jump.
      000990 27 03            [ 1] 3446 	jreq	00300$
                                   3447 ; peephole j10 removed jra by using inverse jump logic
                                   3448 ; peephole j30 removed unused label 00299$.
      000992 CCr0Br5C         [ 2] 3449 	jp	00134$
      000995                       3450 00300$:
                                   3451 ; skipping generated iCode
                                   3452 ;	User/eric_proc.c: 595: if (recbyte >= 128) { // 严格防止缓冲区溢出
                                   3453 ; genIfx
      000995 9F               [ 1] 3454 	ld	a, xl
      000996 4D               [ 1] 3455 	tnz	a
                                   3456 ; peephole j5 changed absolute to relative unconditional jump.
      000997 26 06            [ 1] 3457 	jrne	00105$
                                   3458 ; peephole j7 removed jra by using inverse jump logic
                                   3459 ; peephole j30 removed unused label 00301$.
                                   3460 ;	User/eric_proc.c: 596: stateU = 0;
                                   3461 ; genAssign
      000999 72 5Fu03u2D      [ 1] 3462 	clr	_Rs485_Proc_stateU_10000_793+0
                                   3463 ;	User/eric_proc.c: 597: break;
                                   3464 ; genGoto
      00099D 20 A3            [ 2] 3465 	jra	00136$
                                   3466 ; peephole j5 changed absolute to relative unconditional jump.
                                   3467 ; genLabel
      00099F                       3468 00105$:
                                   3469 ;	User/eric_proc.c: 599: rsUbuf[recbyte++] = temp1;
                                   3470 ; genAssign
      00099F 1E 03            [ 2] 3471 	ldw	x, (0x03, sp)
                                   3472 ; genAssign
      0009A1 16 07            [ 2] 3473 	ldw	y, (0x07, sp)
      0009A3 17 03            [ 2] 3474 	ldw	(0x03, sp), y
                                   3475 ; genPlus
                                   3476 ; genPointerSet
                                   3477 ; peephole 9 moved addition of offset into storage instruction
      0009A5 C6u03u2B         [ 1] 3478 	ld	a, _Rs485_Proc_temp1_10000_793+0
      0009A8 D7u02u1F         [ 1] 3479 	ld	((_rsUbuf+0), x), a
                                   3480 ;	User/eric_proc.c: 601: if (recbyte == 7) //数据长度
                                   3481 ; genCast
                                   3482 ; genAssign
      0009AB 1E 03            [ 2] 3483 	ldw	x, (0x03, sp)
                                   3484 ; genCmpEQorNE
      0009AD A3 00 07         [ 2] 3485 	cpw	x, #0x0007
                                   3486 ; peephole j5 changed absolute to relative unconditional jump.
                                   3487 ; peephole j10 removed jra by using inverse jump logic
                                   3488 ; peephole j30 removed unused label 00303$.
                                   3489 ; peephole j5 changed absolute to relative unconditional jump.
      0009B0 26 13            [ 1] 3490 	jrne	00109$
                                   3491 ; peephole j7 removed jra by using inverse jump logic
                                   3492 ; peephole j30 removed unused label 00304$.
                                   3493 ; skipping generated iCode
                                   3494 ;	User/eric_proc.c: 603: pktlen = temp1 + 9; //总数据长度
                                   3495 ; genCast
                                   3496 ; genAssign
      0009B2 C6u03u2B         [ 1] 3497 	ld	a, _Rs485_Proc_temp1_10000_793+0
      0009B5 5F               [ 1] 3498 	clrw	x
                                   3499 ; genPlus
      0009B6 97               [ 1] 3500 	ld	xl, a
      0009B7 1C 00 09         [ 2] 3501 	addw	x, #0x0009
                                   3502 ; genCast
                                   3503 ; genAssign
                                   3504 ;	User/eric_proc.c: 604: if (pktlen > 128) //错误长度
                                   3505 ; genCast
                                   3506 ; genAssign
      0009BA 1F 01            [ 2] 3507 	ldw	(0x01, sp), x
                                   3508 ; peephole 4w removed redundant load from (0x01, sp) into x.
                                   3509 ; genCmp
                                   3510 ; genCmpTnz
      0009BC A3 00 80         [ 2] 3511 	cpw	x, #0x0080
                                   3512 ; peephole j5 changed absolute to relative unconditional jump.
      0009BF 23 04            [ 2] 3513 	jrule	00109$
                                   3514 ; peephole j16 removed jra by using inverse jump logic
                                   3515 ; peephole j30 removed unused label 00305$.
                                   3516 ; skipping generated iCode
                                   3517 ;	User/eric_proc.c: 606: stateU = 0;
                                   3518 ; genAssign
      0009C1 72 5Fu03u2D      [ 1] 3519 	clr	_Rs485_Proc_stateU_10000_793+0
                                   3520 ; genLabel
      0009C5                       3521 00109$:
                                   3522 ;	User/eric_proc.c: 610: if ((pktlen > 0) && (recbyte >= pktlen)) //接收到足够包长
                                   3523 ; genIfx
      0009C5 1E 01            [ 2] 3524 	ldw	x, (0x01, sp)
      0009C7 26 03            [ 1] 3525 	jrne	00306$
      0009C9 CCr09r42         [ 2] 3526 	jp	00136$
      0009CC                       3527 00306$:
                                   3528 ; genCmp
                                   3529 ; genCmpTnz
      0009CC 1E 03            [ 2] 3530 	ldw	x, (0x03, sp)
      0009CE 13 01            [ 2] 3531 	cpw	x, (0x01, sp)
      0009D0 24 03            [ 1] 3532 	jrnc	00307$
      0009D2 CCr09r42         [ 2] 3533 	jp	00136$
      0009D5                       3534 00307$:
                                   3535 ; skipping generated iCode
                                   3536 ;	User/eric_proc.c: 612: memset((uint8_t *)&m_cfg, 0, 88);
                                   3537 ; skipping iCode since result will be rematerialized
                                   3538 ; genIPush
      0009D5 4B 58            [ 1] 3539 	push	#0x58
      0009D7 4B 00            [ 1] 3540 	push	#0x00
                                   3541 ; genIPush
      0009D9 5F               [ 1] 3542 	clrw	x
      0009DA 89               [ 2] 3543 	pushw	x
                                   3544 ; genSend
      0009DB AEr01r37         [ 2] 3545 	ldw	x, #(_m_cfg+0)
                                   3546 ; genCall
      0009DE CDr00r00         [ 4] 3547 	call	_memset
                                   3548 ;	User/eric_proc.c: 613: memcpy((uint8_t *)&m_cfg, rsUbuf, pktlen);
                                   3549 ; genCast
                                   3550 ; genAssign
      0009E1 1E 01            [ 2] 3551 	ldw	x, (0x01, sp)
                                   3552 ; genIPush
      0009E3 89               [ 2] 3553 	pushw	x
                                   3554 ; genIPush
      0009E4 4Br1F            [ 1] 3555 	push	#<(_rsUbuf+0)
      0009E6 4Bs02            [ 1] 3556 	push	#((_rsUbuf+0) >> 8)
                                   3557 ; genSend
      0009E8 AEr01r37         [ 2] 3558 	ldw	x, #(_m_cfg+0)
                                   3559 ; genCall
      0009EB CDr00r00         [ 4] 3560 	call	___memcpy
                                   3561 ;	User/eric_proc.c: 614: if (crc_verify((uint8_t *)&m_cfg, pktlen)) //主机数据校验ok
                                   3562 ; skipping iCode since result will be rematerialized
                                   3563 ; genIPush
      0009EE 1E 01            [ 2] 3564 	ldw	x, (0x01, sp)
      0009F0 89               [ 2] 3565 	pushw	x
                                   3566 ; genSend
      0009F1 AEr01r37         [ 2] 3567 	ldw	x, #(_m_cfg+0)
                                   3568 ; genCall
      0009F4 CDr06rC3         [ 4] 3569 	call	_crc_verify
                                   3570 ; genIfx
      0009F7 4D               [ 1] 3571 	tnz	a
                                   3572 ; peephole j5 changed absolute to relative unconditional jump.
      0009F8 27 65            [ 1] 3573 	jreq	00113$
                                   3574 ; peephole j10 removed jra by using inverse jump logic
                                   3575 ; peephole j30 removed unused label 00308$.
                                   3576 ;	User/eric_proc.c: 616: c_ackcfg.addrID = r485id;
                                   3577 ; genPointerSet
      0009FA 55u00u75u01u8F   [ 1] 3578 	mov	_c_ackcfg+0, _r485id+0
                                   3579 ;	User/eric_proc.c: 617: c_ackcfg.funID = 0x10;
                                   3580 ; skipping iCode since result will be rematerialized
                                   3581 ; genPointerSet
      0009FF 35 10u01u90      [ 1] 3582 	mov	_c_ackcfg+1, #0x10
                                   3583 ;	User/eric_proc.c: 618: c_ackcfg.staddr = m_cfg.staddr; //获取用于应答的数据包地址
                                   3584 ; skipping iCode since result will be rematerialized
                                   3585 ; skipping iCode since result will be rematerialized
                                   3586 ; genPointerGet
      000A03 CEu01u39         [ 2] 3587 	ldw	x, _m_cfg+2
                                   3588 ; genPointerSet
      000A06 CFu01u91         [ 2] 3589 	ldw	_c_ackcfg+2, x
                                   3590 ;	User/eric_proc.c: 619: c_ackcfg.offset = m_cfg.offset; //获取用于应答的数据偏移量						
                                   3591 ; skipping iCode since result will be rematerialized
                                   3592 ; skipping iCode since result will be rematerialized
                                   3593 ; genPointerGet
      000A09 CEu01u3B         [ 2] 3594 	ldw	x, _m_cfg+4
                                   3595 ; genPointerSet
      000A0C CFu01u93         [ 2] 3596 	ldw	_c_ackcfg+4, x
                                   3597 ;	User/eric_proc.c: 621: sta1 = Rev16(m_cfg.staddr); //大小端转换
                                   3598 ; genPointerGet
      000A0F CEu01u39         [ 2] 3599 	ldw	x, _m_cfg+2
                                   3600 ; genSend
                                   3601 ; genCall
      000A12 CDr06rB6         [ 4] 3602 	call	_Rev16
                                   3603 ;	User/eric_proc.c: 622: m_cfg.staddr = sta1;
                                   3604 ; genPointerSet
      000A15 CFu01u39         [ 2] 3605 	ldw	_m_cfg+2, x
                                   3606 ;	User/eric_proc.c: 623: off1 = Rev16(m_cfg.offset);
                                   3607 ; genPointerGet
      000A18 CEu01u3B         [ 2] 3608 	ldw	x, _m_cfg+4
                                   3609 ; genSend
                                   3610 ; genCall
      000A1B CDr06rB6         [ 4] 3611 	call	_Rev16
                                   3612 ;	User/eric_proc.c: 624: m_cfg.offset = off1;
                                   3613 ; genPointerSet
      000A1E CFu01u3B         [ 2] 3614 	ldw	_m_cfg+4, x
                                   3615 ;	User/eric_proc.c: 626: if (Rs485_GetCfg(m_cfg.staddr, m_cfg.offset, m_cfg.buf) > 0)//配置时间
                                   3616 ; skipping iCode since result will be rematerialized
                                   3617 ; genPointerGet
      000A21 90 CEu01u39      [ 2] 3618 	ldw	y, _m_cfg+2
                                   3619 ; genIPush
      000A25 4Br3E            [ 1] 3620 	push	#<(_m_cfg+7)
      000A27 4Bs01            [ 1] 3621 	push	#((_m_cfg+7) >> 8)
                                   3622 ; genIPush
      000A29 89               [ 2] 3623 	pushw	x
                                   3624 ; genSend
      000A2A 93               [ 1] 3625 	ldw	x, y
                                   3626 ; genCall
      000A2B CDr08r7A         [ 4] 3627 	call	_Rs485_GetCfg
                                   3628 ; genIfx
      000A2E 4D               [ 1] 3629 	tnz	a
                                   3630 ; peephole j5 changed absolute to relative unconditional jump.
      000A2F 27 2E            [ 1] 3631 	jreq	00113$
                                   3632 ; peephole j10 removed jra by using inverse jump logic
                                   3633 ; peephole j30 removed unused label 00309$.
                                   3634 ;	User/eric_proc.c: 628: rtc_set_datetime();
                                   3635 ; genCall
      000A31 CDr00r00         [ 4] 3636 	call	_rtc_set_datetime
                                   3637 ;	User/eric_proc.c: 629: c_ackcfg.crc = CRC_GetModbus16((uint8_t *)&c_ackcfg, 6);
                                   3638 ; skipping iCode since result will be rematerialized
                                   3639 ; skipping iCode since result will be rematerialized
                                   3640 ; genIPush
      000A34 4B 06            [ 1] 3641 	push	#0x06
      000A36 4B 00            [ 1] 3642 	push	#0x00
                                   3643 ; genSend
      000A38 AEr01r8F         [ 2] 3644 	ldw	x, #(_c_ackcfg+0)
                                   3645 ; genCall
      000A3B CDr02r54         [ 4] 3646 	call	_CRC_GetModbus16
                                   3647 ; genPointerSet
                                   3648 ;	User/eric_proc.c: 630: c_ackcfg.crc = Rev16(c_ackcfg.crc);//stm8是大端模式
                                   3649 ; skipping iCode since result will be rematerialized
                                   3650 ; genPointerGet
      000A3E CFu01u95         [ 2] 3651 	ldw	_c_ackcfg+6, x
                                   3652 ; peephole 4w removed redundant load from _c_ackcfg+6 into x.
                                   3653 ; genSend
                                   3654 ; genCall
      000A41 CDr06rB6         [ 4] 3655 	call	_Rev16
                                   3656 ; genPointerSet
      000A44 CFu01u95         [ 2] 3657 	ldw	_c_ackcfg+6, x
                                   3658 ;	User/eric_proc.c: 631: memcpy(pkt1, (uint8_t *)&c_ackcfg, 8);
                                   3659 ; skipping iCode since result will be rematerialized
                                   3660 ; skipping iCode since result will be rematerialized
                                   3661 ; genIPush
      000A47 4B 08            [ 1] 3662 	push	#0x08
      000A49 4B 00            [ 1] 3663 	push	#0x00
                                   3664 ; genIPush
      000A4B 4Br8F            [ 1] 3665 	push	#<(_c_ackcfg+0)
      000A4D 4Bs01            [ 1] 3666 	push	#((_c_ackcfg+0) >> 8)
                                   3667 ; genSend
      000A4F AEr02r9F         [ 2] 3668 	ldw	x, #(_pkt1+0)
                                   3669 ; genCall
      000A52 CDr00r00         [ 4] 3670 	call	___memcpy
                                   3671 ;	User/eric_proc.c: 632: Uart1_Send(pkt1, 10);
                                   3672 ; skipping iCode since result will be rematerialized
                                   3673 ; genIPush
      000A55 4B 0A            [ 1] 3674 	push	#0x0a
      000A57 4B 00            [ 1] 3675 	push	#0x00
                                   3676 ; genSend
      000A59 AEr02r9F         [ 2] 3677 	ldw	x, #(_pkt1+0)
                                   3678 ; genCall
      000A5C CDr00r00         [ 4] 3679 	call	_Uart1_Send
                                   3680 ; genLabel
      000A5F                       3681 00113$:
                                   3682 ;	User/eric_proc.c: 635: stateU = 0;
                                   3683 ; genAssign
      000A5F 72 5Fu03u2D      [ 1] 3684 	clr	_Rs485_Proc_stateU_10000_793+0
                                   3685 ;	User/eric_proc.c: 637: break;
                                   3686 ; genGoto
      000A63 CCr09r42         [ 2] 3687 	jp	00136$
                                   3688 ;	User/eric_proc.c: 640: case 1://下取数据,0x03
                                   3689 ; genLabel
      000A66                       3690 00117$:
                                   3691 ;	User/eric_proc.c: 641: if (recbyte >= 128) { // 严格防止缓冲区溢出
                                   3692 ; genIfx
      000A66 9F               [ 1] 3693 	ld	a, xl
      000A67 4D               [ 1] 3694 	tnz	a
                                   3695 ; peephole j5 changed absolute to relative unconditional jump.
      000A68 26 07            [ 1] 3696 	jrne	00119$
                                   3697 ; peephole j7 removed jra by using inverse jump logic
                                   3698 ; peephole j30 removed unused label 00310$.
                                   3699 ;	User/eric_proc.c: 642: stateU = 0;
                                   3700 ; genAssign
      000A6A 72 5Fu03u2D      [ 1] 3701 	clr	_Rs485_Proc_stateU_10000_793+0
                                   3702 ;	User/eric_proc.c: 643: break;
                                   3703 ; genGoto
      000A6E CCr09r42         [ 2] 3704 	jp	00136$
                                   3705 ; genLabel
      000A71                       3706 00119$:
                                   3707 ;	User/eric_proc.c: 645: rsUbuf[recbyte++] = temp1;
                                   3708 ; genAssign
      000A71 1E 03            [ 2] 3709 	ldw	x, (0x03, sp)
                                   3710 ; genAssign
      000A73 16 07            [ 2] 3711 	ldw	y, (0x07, sp)
      000A75 17 03            [ 2] 3712 	ldw	(0x03, sp), y
                                   3713 ; genPlus
                                   3714 ; genPointerSet
                                   3715 ; peephole 9 moved addition of offset into storage instruction
      000A77 C6u03u2B         [ 1] 3716 	ld	a, _Rs485_Proc_temp1_10000_793+0
      000A7A D7u02u1F         [ 1] 3717 	ld	((_rsUbuf+0), x), a
                                   3718 ;	User/eric_proc.c: 646: if (recbyte >= RS485_AQ_PktLen)//一个包长 8bytes
                                   3719 ; genCast
                                   3720 ; genAssign
      000A7D 1E 03            [ 2] 3721 	ldw	x, (0x03, sp)
                                   3722 ; genCmp
                                   3723 ; genCmpTnz
      000A7F A3 00 08         [ 2] 3724 	cpw	x, #0x0008
      000A82 24 03            [ 1] 3725 	jrnc	00311$
      000A84 CCr09r42         [ 2] 3726 	jp	00136$
      000A87                       3727 00311$:
                                   3728 ; skipping generated iCode
                                   3729 ;	User/eric_proc.c: 648: memset((uint8_t *)&m_query, 0, RS485_AQ_PktLen);
                                   3730 ; skipping iCode since result will be rematerialized
                                   3731 ; genIPush
      000A87 4B 08            [ 1] 3732 	push	#0x08
      000A89 4B 00            [ 1] 3733 	push	#0x00
                                   3734 ; genIPush
      000A8B 5F               [ 1] 3735 	clrw	x
      000A8C 89               [ 2] 3736 	pushw	x
                                   3737 ; genSend
      000A8D AEr01r97         [ 2] 3738 	ldw	x, #(_m_query+0)
                                   3739 ; genCall
      000A90 CDr00r00         [ 4] 3740 	call	_memset
                                   3741 ;	User/eric_proc.c: 649: memcpy((uint8_t *)&m_query, rsUbuf, RS485_AQ_PktLen);
                                   3742 ; skipping iCode since result will be rematerialized
                                   3743 ; genIPush
      000A93 4B 08            [ 1] 3744 	push	#0x08
      000A95 4B 00            [ 1] 3745 	push	#0x00
                                   3746 ; genIPush
      000A97 4Br1F            [ 1] 3747 	push	#<(_rsUbuf+0)
      000A99 4Bs02            [ 1] 3748 	push	#((_rsUbuf+0) >> 8)
                                   3749 ; genSend
      000A9B AEr01r97         [ 2] 3750 	ldw	x, #(_m_query+0)
                                   3751 ; genCall
      000A9E CDr00r00         [ 4] 3752 	call	___memcpy
                                   3753 ;	User/eric_proc.c: 651: if (crc_verify((uint8_t *)&m_query, RS485_AQ_PktLen)) //主机数据校验ok
                                   3754 ; skipping iCode since result will be rematerialized
                                   3755 ; genIPush
      000AA1 4B 08            [ 1] 3756 	push	#0x08
      000AA3 4B 00            [ 1] 3757 	push	#0x00
                                   3758 ; genSend
      000AA5 AEr01r97         [ 2] 3759 	ldw	x, #(_m_query+0)
                                   3760 ; genCall
      000AA8 CDr06rC3         [ 4] 3761 	call	_crc_verify
                                   3762 ; genIfx
      000AAB 4D               [ 1] 3763 	tnz	a
                                   3764 ; peephole j5 changed absolute to relative unconditional jump.
      000AAC 27 33            [ 1] 3765 	jreq	00123$
                                   3766 ; peephole j10 removed jra by using inverse jump logic
                                   3767 ; peephole j30 removed unused label 00312$.
                                   3768 ;	User/eric_proc.c: 653: Get_Record(timeout);
                                   3769 ; genSend
      000AAE C6u03u2E         [ 1] 3770 	ld	a, _Rs485_Proc_timeout_10000_793+0
                                   3771 ; genCall
      000AB1 CDr07rE2         [ 4] 3772 	call	_Get_Record
                                   3773 ;	User/eric_proc.c: 654: timeout = 10;
                                   3774 ; genAssign
      000AB4 35 0Au03u2E      [ 1] 3775 	mov	_Rs485_Proc_timeout_10000_793+0, #0x0a
                                   3776 ;	User/eric_proc.c: 655: len1 = Pkt_485ackquery(r485id, 0x03, m_query.staddr, m_query.offset, &r485rlt, pkt1);
                                   3777 ; skipping iCode since result will be rematerialized
                                   3778 ; skipping iCode since result will be rematerialized
                                   3779 ; genPointerGet
      000AB8 90 CEu01u9B      [ 2] 3780 	ldw	y, _m_query+4
                                   3781 ; genPointerGet
      000ABC CEu01u99         [ 2] 3782 	ldw	x, _m_query+2
                                   3783 ; genIPush
      000ABF 4Br9F            [ 1] 3784 	push	#<(_pkt1+0)
      000AC1 4Bs02            [ 1] 3785 	push	#((_pkt1+0) >> 8)
                                   3786 ; genIPush
      000AC3 4Br76            [ 1] 3787 	push	#<(_r485rlt+0)
      000AC5 4Bs00            [ 1] 3788 	push	#((_r485rlt+0) >> 8)
                                   3789 ; genIPush
      000AC7 90 89            [ 2] 3790 	pushw	y
                                   3791 ; genIPush
      000AC9 89               [ 2] 3792 	pushw	x
                                   3793 ; genIPush
      000ACA 4B 03            [ 1] 3794 	push	#0x03
                                   3795 ; genSend
      000ACC C6u00u75         [ 1] 3796 	ld	a, _r485id+0
                                   3797 ; genCall
      000ACF CDr06rFB         [ 4] 3798 	call	_Pkt_485ackquery
                                   3799 ;	User/eric_proc.c: 656: if (len1 > 5)
                                   3800 ; genCast
                                   3801 ; genAssign
      000AD2 90 93            [ 1] 3802 	ldw	y, x
                                   3803 ; genCmp
                                   3804 ; genCmpTnz
      000AD4 90 A3 00 05      [ 2] 3805 	cpw	y, #0x0005
                                   3806 ; peephole j5 changed absolute to relative unconditional jump.
      000AD8 23 07            [ 2] 3807 	jrule	00123$
                                   3808 ; peephole j16 removed jra by using inverse jump logic
                                   3809 ; peephole j30 removed unused label 00313$.
                                   3810 ; skipping generated iCode
                                   3811 ;	User/eric_proc.c: 658: Uart1_Send(pkt1, len1);
                                   3812 ; genIPush
      000ADA 89               [ 2] 3813 	pushw	x
                                   3814 ; genSend
      000ADB AEr02r9F         [ 2] 3815 	ldw	x, #(_pkt1+0)
                                   3816 ; genCall
      000ADE CDr00r00         [ 4] 3817 	call	_Uart1_Send
                                   3818 ; genLabel
      000AE1                       3819 00123$:
                                   3820 ;	User/eric_proc.c: 661: stateU = 0;
                                   3821 ; genAssign
      000AE1 72 5Fu03u2D      [ 1] 3822 	clr	_Rs485_Proc_stateU_10000_793+0
                                   3823 ;	User/eric_proc.c: 663: break;
                                   3824 ; genGoto
      000AE5 CCr09r42         [ 2] 3825 	jp	00136$
                                   3826 ;	User/eric_proc.c: 665: case 0:
                                   3827 ; genLabel
      000AE8                       3828 00126$:
                                   3829 ;	User/eric_proc.c: 666: if ((r485id == temp2) && (0x03 == temp1)) //下取数据
                                   3830 ; genCmpEQorNE
      000AE8 C6u03u2C         [ 1] 3831 	ld	a, _Rs485_Proc_temp2_10000_793+0
      000AEB C0u00u75         [ 1] 3832 	sub	a, _r485id+0
      000AEE 26 04            [ 1] 3833 	jrne	00315$
      000AF0 4C               [ 1] 3834 	inc	a
                                   3835 ; peephole 51 used inc to get #1 into a.
      000AF1 6B 08            [ 1] 3836 	ld	(0x08, sp), a
                                   3837 ; peephole j5 changed absolute to relative unconditional jump.
      000AF3 C5                    3838 	.byte 0xc5
                                   3839 ; peephole jrf7 used bcp opcode to jump over 2-byte instruction.
      000AF4                       3840 00315$:
      000AF4 0F 08            [ 1] 3841 	clr	(0x08, sp)
      000AF6                       3842 00316$:
                                   3843 ;	User/eric_proc.c: 672: rsUbuf[recbyte++] = temp1;
                                   3844 ; skipping iCode since result will be rematerialized
                                   3845 ;	User/eric_proc.c: 666: if ((r485id == temp2) && (0x03 == temp1)) //下取数据
                                   3846 ; genIfx
      000AF6 0D 08            [ 1] 3847 	tnz	(0x08, sp)
                                   3848 ; peephole j5 changed absolute to relative unconditional jump.
      000AF8 27 2C            [ 1] 3849 	jreq	00131$
                                   3850 ; peephole j10 removed jra by using inverse jump logic
                                   3851 ; peephole j30 removed unused label 00317$.
                                   3852 ; genCmpEQorNE
      000AFA C6u03u2B         [ 1] 3853 	ld	a, _Rs485_Proc_temp1_10000_793+0
      000AFD A1 03            [ 1] 3854 	cp	a, #0x03
                                   3855 ; peephole j5 changed absolute to relative unconditional jump.
                                   3856 ; peephole j10 removed jra by using inverse jump logic
                                   3857 ; peephole j30 removed unused label 00319$.
                                   3858 ; peephole j5 changed absolute to relative unconditional jump.
      000AFF 26 25            [ 1] 3859 	jrne	00131$
                                   3860 ; peephole j7 removed jra by using inverse jump logic
                                   3861 ; peephole j30 removed unused label 00320$.
                                   3862 ; skipping generated iCode
                                   3863 ;	User/eric_proc.c: 668: memset(rsUbuf, 0, 128);
                                   3864 ; genIPush
      000B01 4B 80            [ 1] 3865 	push	#0x80
      000B03 4B 00            [ 1] 3866 	push	#0x00
                                   3867 ; genIPush
      000B05 5F               [ 1] 3868 	clrw	x
      000B06 89               [ 2] 3869 	pushw	x
                                   3870 ; genSend
      000B07 AEr02r1F         [ 2] 3871 	ldw	x, #(_rsUbuf+0)
                                   3872 ; genCall
      000B0A CDr00r00         [ 4] 3873 	call	_memset
                                   3874 ;	User/eric_proc.c: 670: pktlen = 0;
                                   3875 ; genAssign
      000B0D 5F               [ 1] 3876 	clrw	x
      000B0E 1F 01            [ 2] 3877 	ldw	(0x01, sp), x
                                   3878 ;	User/eric_proc.c: 671: rsUbuf[recbyte++] = temp2;
                                   3879 ; genPointerSet
      000B10 55u03u2Cu02u1F   [ 1] 3880 	mov	_rsUbuf+0, _Rs485_Proc_temp2_10000_793+0
                                   3881 ;	User/eric_proc.c: 672: rsUbuf[recbyte++] = temp1;
                                   3882 ; genAssign
      000B15 AE 00 02         [ 2] 3883 	ldw	x, #0x0002
      000B18 1F 03            [ 2] 3884 	ldw	(0x03, sp), x
                                   3885 ; genPointerSet
      000B1A 55u03u2Bu02u20   [ 1] 3886 	mov	_rsUbuf+1, _Rs485_Proc_temp1_10000_793+0
                                   3887 ;	User/eric_proc.c: 673: stateU = 1;
                                   3888 ; genAssign
      000B1F 35 01u03u2D      [ 1] 3889 	mov	_Rs485_Proc_stateU_10000_793+0, #0x01
                                   3890 ; genGoto
      000B23 CCr09r42         [ 2] 3891 	jp	00136$
                                   3892 ; genLabel
      000B26                       3893 00131$:
                                   3894 ;	User/eric_proc.c: 675: else if ((r485id == temp2) && (0x10 == temp1)) //下发数据
                                   3895 ; genIfx
      000B26 0D 08            [ 1] 3896 	tnz	(0x08, sp)
      000B28 26 03            [ 1] 3897 	jrne	00321$
      000B2A CCr09r42         [ 2] 3898 	jp	00136$
      000B2D                       3899 00321$:
                                   3900 ; genCmpEQorNE
      000B2D C6u03u2B         [ 1] 3901 	ld	a, _Rs485_Proc_temp1_10000_793+0
      000B30 A1 10            [ 1] 3902 	cp	a, #0x10
                                   3903 ; peephole j5 changed absolute to relative unconditional jump.
      000B32 27 03            [ 1] 3904 	jreq	00324$
                                   3905 ; peephole j10 removed jra by using inverse jump logic
                                   3906 ; peephole j30 removed unused label 00323$.
      000B34 CCr09r42         [ 2] 3907 	jp	00136$
      000B37                       3908 00324$:
                                   3909 ; skipping generated iCode
                                   3910 ;	User/eric_proc.c: 677: memset(rsUbuf, 0, 128);
                                   3911 ; genIPush
      000B37 4B 80            [ 1] 3912 	push	#0x80
      000B39 4B 00            [ 1] 3913 	push	#0x00
                                   3914 ; genIPush
      000B3B 5F               [ 1] 3915 	clrw	x
      000B3C 89               [ 2] 3916 	pushw	x
                                   3917 ; genSend
      000B3D AEr02r1F         [ 2] 3918 	ldw	x, #(_rsUbuf+0)
                                   3919 ; genCall
      000B40 CDr00r00         [ 4] 3920 	call	_memset
                                   3921 ;	User/eric_proc.c: 679: pktlen = 0;
                                   3922 ; genAssign
      000B43 5F               [ 1] 3923 	clrw	x
      000B44 1F 01            [ 2] 3924 	ldw	(0x01, sp), x
                                   3925 ;	User/eric_proc.c: 680: rsUbuf[recbyte++] = temp2;
                                   3926 ; genPointerSet
      000B46 55u03u2Cu02u1F   [ 1] 3927 	mov	_rsUbuf+0, _Rs485_Proc_temp2_10000_793+0
                                   3928 ;	User/eric_proc.c: 681: rsUbuf[recbyte++] = temp1;
                                   3929 ; genAssign
      000B4B AE 00 02         [ 2] 3930 	ldw	x, #0x0002
      000B4E 1F 03            [ 2] 3931 	ldw	(0x03, sp), x
                                   3932 ; genPointerSet
      000B50 55u03u2Bu02u20   [ 1] 3933 	mov	_rsUbuf+1, _Rs485_Proc_temp1_10000_793+0
                                   3934 ;	User/eric_proc.c: 682: stateU = 2;
                                   3935 ; genAssign
      000B55 35 02u03u2D      [ 1] 3936 	mov	_Rs485_Proc_stateU_10000_793+0, #0x02
                                   3937 ;	User/eric_proc.c: 684: break;
                                   3938 ; genGoto
      000B59 CCr09r42         [ 2] 3939 	jp	00136$
                                   3940 ;	User/eric_proc.c: 686: default:
                                   3941 ; genLabel
      000B5C                       3942 00134$:
                                   3943 ;	User/eric_proc.c: 687: stateU = 0;
                                   3944 ; genAssign
      000B5C 72 5Fu03u2D      [ 1] 3945 	clr	_Rs485_Proc_stateU_10000_793+0
                                   3946 ;	User/eric_proc.c: 689: }
                                   3947 ; genGoto
      000B60 CCr09r42         [ 2] 3948 	jp	00136$
                                   3949 ; genLabel
      000B63                       3950 00139$:
                                   3951 ;	User/eric_proc.c: 691: }//用于检测485接口是否接收到有效数据，100ms
                                   3952 ; genEndFunction
      000B63 5B 08            [ 2] 3953 	addw	sp, #8
      000B65 81               [ 4] 3954 	ret
                                   3955 ;	Total Rs485_Proc function size at codegen: 3 bytes.
                                   3956 ;	User/eric_proc.c: 693: void Chk_State(void)
                                   3957 ; genLabel
                                   3958 ;	-----------------------------------------
                                   3959 ;	 function Chk_State
                                   3960 ;	-----------------------------------------
                                   3961 ;	Register assignment is optimal.
                                   3962 ;	Stack space usage: 0 bytes.
      000B66                       3963 _Chk_State:
                                   3964 ;	User/eric_proc.c: 697: last = sysmode;
                                   3965 ; genAssign
      000B66 55u00u84u03u2F   [ 1] 3966 	mov	_Chk_State_last_10000_810+0, _sysmode+0
                                   3967 ;	User/eric_proc.c: 698: sysmode = GPIO_ReadInputDataBit(GPIOC, GPIO_Pin_4);
                                   3968 ; genSend
      000B6B A6 10            [ 1] 3969 	ld	a, #0x10
                                   3970 ; genSend
      000B6D AE 50 0A         [ 2] 3971 	ldw	x, #0x500a
                                   3972 ; genCall
      000B70 CDr00r00         [ 4] 3973 	call	_GPIO_ReadInputDataBit
                                   3974 ; genCast
                                   3975 ; genAssign
      000B73 C7u00u84         [ 1] 3976 	ld	_sysmode+0, a
                                   3977 ;	User/eric_proc.c: 699: if (last != sysmode)
                                   3978 ; genCmpEQorNE
      000B76 C6u00u84         [ 1] 3979 	ld	a, _sysmode+0
      000B79 C1u03u2F         [ 1] 3980 	cp	a, _Chk_State_last_10000_810+0
      000B7C 26 01            [ 1] 3981 	jrne	00123$
      000B7E 81               [ 4] 3982 	ret
                                   3983 ; peephole j2e replaced jump by return.
      000B7F                       3984 00123$:
                                   3985 ; skipping generated iCode
                                   3986 ;	User/eric_proc.c: 701: if (sysmode) //电池
                                   3987 ; genIfx
      000B7F C6u00u84         [ 1] 3988 	ld	a, _sysmode+0
                                   3989 ; peephole 625a changed tnz by ld
                                   3990 ; peephole j5 changed absolute to relative unconditional jump.
      000B82 27 12            [ 1] 3991 	jreq	00102$
                                   3992 ; peephole j10 removed jra by using inverse jump logic
                                   3993 ; peephole j30 removed unused label 00125$.
                                   3994 ;	User/eric_proc.c: 703: USART_DeInit(USART1);       //复位UART1
                                   3995 ; genSend
      000B84 AE 52 30         [ 2] 3996 	ldw	x, #0x5230
                                   3997 ; genCall
      000B87 CDr00r00         [ 4] 3998 	call	_USART_DeInit
                                   3999 ;	User/eric_proc.c: 704: GPIO_Init(GPIOC, 0xEC, GPIO_Mode_Out_PP_Low_Slow);//除PC0，PC1(I2C1)，PC4
                                   4000 ; genIPush
      000B8A 4B C0            [ 1] 4001 	push	#0xc0
                                   4002 ; genSend
      000B8C A6 EC            [ 1] 4003 	ld	a, #0xec
                                   4004 ; genSend
      000B8E AE 50 0A         [ 2] 4005 	ldw	x, #0x500a
                                   4006 ; genCall
      000B91 CDr00r00         [ 4] 4007 	call	_GPIO_Init
                                   4008 ; genGoto
      000B94 20 03            [ 2] 4009 	jra	00103$
                                   4010 ; peephole j5 changed absolute to relative unconditional jump.
                                   4011 ; genLabel
      000B96                       4012 00102$:
                                   4013 ;	User/eric_proc.c: 708: Uart1_Init();
                                   4014 ; genCall
      000B96 CDr00r00         [ 4] 4015 	call	_Uart1_Init
                                   4016 ; genLabel
      000B99                       4017 00103$:
                                   4018 ;	User/eric_proc.c: 710: delay_halt = HALT_TIMEOUT;
                                   4019 ; genAssign
      000B99 35 FFu00u00      [ 1] 4020 	mov	_delay_halt+0, #0xff
                                   4021 ; genLabel
                                   4022 ; peephole j30 removed unused label 00106$.
                                   4023 ;	User/eric_proc.c: 712: }
                                   4024 ; genEndFunction
      000B9D 81               [ 4] 4025 	ret
                                   4026 ;	Total Chk_State function size at codegen: 1 bytes.
                                   4027 ;	User/eric_proc.c: 721: void Storage_SaveSettings(uint8_t lang, uint8_t id_b3, uint8_t id_b2, uint8_t id_b1, uint8_t id_b0)
                                   4028 ; genLabel
                                   4029 ;	-----------------------------------------
                                   4030 ;	 function Storage_SaveSettings
                                   4031 ;	-----------------------------------------
                                   4032 ;	Register assignment is optimal.
                                   4033 ;	Stack space usage: 1 bytes.
      000B9E                       4034 _Storage_SaveSettings:
      000B9E 88               [ 1] 4035 	push	a
                                   4036 ; genReceive
      000B9F 6B 01            [ 1] 4037 	ld	(0x01, sp), a
                                   4038 ;	User/eric_proc.c: 723: I2C_WriteByte(0xa0,252,id_b3);
                                   4039 ; genIPush
      000BA1 7B 04            [ 1] 4040 	ld	a, (0x04, sp)
      000BA3 88               [ 1] 4041 	push	a
                                   4042 ; genIPush
      000BA4 4B FC            [ 1] 4043 	push	#0xfc
                                   4044 ; genSend
      000BA6 A6 A0            [ 1] 4045 	ld	a, #0xa0
                                   4046 ; genCall
      000BA8 CDr00r00         [ 4] 4047 	call	_I2C_WriteByte
                                   4048 ;	User/eric_proc.c: 724: Delay(IIC_TIMEOUT);
                                   4049 ; genSend
      000BAB AE 07 D0         [ 2] 4050 	ldw	x, #0x07d0
                                   4051 ; genCall
      000BAE CDr00r00         [ 4] 4052 	call	_Delay
                                   4053 ;	User/eric_proc.c: 725: I2C_WriteByte(0xa0,253,id_b2);
                                   4054 ; genIPush
      000BB1 7B 05            [ 1] 4055 	ld	a, (0x05, sp)
      000BB3 88               [ 1] 4056 	push	a
                                   4057 ; genIPush
      000BB4 4B FD            [ 1] 4058 	push	#0xfd
                                   4059 ; genSend
      000BB6 A6 A0            [ 1] 4060 	ld	a, #0xa0
                                   4061 ; genCall
      000BB8 CDr00r00         [ 4] 4062 	call	_I2C_WriteByte
                                   4063 ;	User/eric_proc.c: 726: Delay(IIC_TIMEOUT);
                                   4064 ; genSend
      000BBB AE 07 D0         [ 2] 4065 	ldw	x, #0x07d0
                                   4066 ; genCall
      000BBE CDr00r00         [ 4] 4067 	call	_Delay
                                   4068 ;	User/eric_proc.c: 727: I2C_WriteByte(0xa0,254,id_b1);
                                   4069 ; genIPush
      000BC1 7B 06            [ 1] 4070 	ld	a, (0x06, sp)
      000BC3 88               [ 1] 4071 	push	a
                                   4072 ; genIPush
      000BC4 4B FE            [ 1] 4073 	push	#0xfe
                                   4074 ; genSend
      000BC6 A6 A0            [ 1] 4075 	ld	a, #0xa0
                                   4076 ; genCall
      000BC8 CDr00r00         [ 4] 4077 	call	_I2C_WriteByte
                                   4078 ;	User/eric_proc.c: 728: Delay(IIC_TIMEOUT);
                                   4079 ; genSend
      000BCB AE 07 D0         [ 2] 4080 	ldw	x, #0x07d0
                                   4081 ; genCall
      000BCE CDr00r00         [ 4] 4082 	call	_Delay
                                   4083 ;	User/eric_proc.c: 729: I2C_WriteByte(0xa0,255,id_b0);
                                   4084 ; genIPush
      000BD1 7B 07            [ 1] 4085 	ld	a, (0x07, sp)
      000BD3 88               [ 1] 4086 	push	a
                                   4087 ; genIPush
      000BD4 4B FF            [ 1] 4088 	push	#0xff
                                   4089 ; genSend
      000BD6 A6 A0            [ 1] 4090 	ld	a, #0xa0
                                   4091 ; genCall
      000BD8 CDr00r00         [ 4] 4092 	call	_I2C_WriteByte
                                   4093 ;	User/eric_proc.c: 730: Delay(IIC_TIMEOUT);
                                   4094 ; genSend
      000BDB AE 07 D0         [ 2] 4095 	ldw	x, #0x07d0
                                   4096 ; genCall
      000BDE CDr00r00         [ 4] 4097 	call	_Delay
                                   4098 ;	User/eric_proc.c: 732: I2C_WriteByte(0xa0,80,lang);
                                   4099 ; genIPush
      000BE1 7B 01            [ 1] 4100 	ld	a, (0x01, sp)
      000BE3 88               [ 1] 4101 	push	a
                                   4102 ; genIPush
      000BE4 4B 50            [ 1] 4103 	push	#0x50
                                   4104 ; genSend
      000BE6 A6 A0            [ 1] 4105 	ld	a, #0xa0
                                   4106 ; genCall
      000BE8 CDr00r00         [ 4] 4107 	call	_I2C_WriteByte
                                   4108 ;	User/eric_proc.c: 733: Delay(IIC_TIMEOUT);
                                   4109 ; genSend
      000BEB AE 07 D0         [ 2] 4110 	ldw	x, #0x07d0
                                   4111 ; genCall
      000BEE CDr00r00         [ 4] 4112 	call	_Delay
                                   4113 ; genLabel
                                   4114 ; peephole j30 removed unused label 00101$.
                                   4115 ;	User/eric_proc.c: 734: }
                                   4116 ; genEndFunction
      000BF1 1E 02            [ 2] 4117 	ldw	x, (2, sp)
      000BF3 5B 07            [ 2] 4118 	addw	sp, #7
      000BF5 FC               [ 2] 4119 	jp	(x)
                                   4120 ;	Total Storage_SaveSettings function size at codegen: 5 bytes.
                                   4121 ;	User/eric_proc.c: 737: void Storage_ClearHistory(void)
                                   4122 ; genLabel
                                   4123 ;	-----------------------------------------
                                   4124 ;	 function Storage_ClearHistory
                                   4125 ;	-----------------------------------------
                                   4126 ;	Register assignment might be sub-optimal.
                                   4127 ;	Stack space usage: 0 bytes.
      000BF6                       4128 _Storage_ClearHistory:
                                   4129 ;	User/eric_proc.c: 739: I2C_WriteByte(0xa0,250,data_index.w);
                                   4130 ; skipping iCode since result will be rematerialized
                                   4131 ; skipping iCode since result will be rematerialized
                                   4132 ; genPointerGet
      000BF6 C6u00u01         [ 1] 4133 	ld	a, _data_index+1
                                   4134 ; genIPush
      000BF9 88               [ 1] 4135 	push	a
                                   4136 ; genIPush
      000BFA 4B FA            [ 1] 4137 	push	#0xfa
                                   4138 ; genSend
      000BFC A6 A0            [ 1] 4139 	ld	a, #0xa0
                                   4140 ; genCall
      000BFE CDr00r00         [ 4] 4141 	call	_I2C_WriteByte
                                   4142 ;	User/eric_proc.c: 740: Delay(IIC_TIMEOUT);
                                   4143 ; genSend
      000C01 AE 07 D0         [ 2] 4144 	ldw	x, #0x07d0
                                   4145 ; genCall
      000C04 CDr00r00         [ 4] 4146 	call	_Delay
                                   4147 ;	User/eric_proc.c: 741: I2C_WriteByte(0xa0,251,data_index.used);
                                   4148 ; skipping iCode since result will be rematerialized
                                   4149 ; genPointerGet
      000C07 C6u00u02         [ 1] 4150 	ld	a, _data_index+2
                                   4151 ; genIPush
      000C0A 88               [ 1] 4152 	push	a
                                   4153 ; genIPush
      000C0B 4B FB            [ 1] 4154 	push	#0xfb
                                   4155 ; genSend
      000C0D A6 A0            [ 1] 4156 	ld	a, #0xa0
                                   4157 ; genCall
      000C0F CDr00r00         [ 4] 4158 	call	_I2C_WriteByte
                                   4159 ;	User/eric_proc.c: 742: Delay(IIC_TIMEOUT);
                                   4160 ; genSend
      000C12 AE 07 D0         [ 2] 4161 	ldw	x, #0x07d0
                                   4162 ; genCall
                                   4163 ; genLabel
                                   4164 ; peephole j30 removed unused label 00101$.
                                   4165 ;	User/eric_proc.c: 743: }
                                   4166 ; genEndFunction
      000C15 CCr00r00         [ 2] 4167 	jp	_Delay
                                   4168 ; peephole 52 removed unreachable ret.
                                   4169 ;	Total Storage_ClearHistory function size at codegen: 1 bytes.
                                   4170 ;	User/eric_proc.c: 747: void Storage_FactoryReset(void)
                                   4171 ; genLabel
                                   4172 ;	-----------------------------------------
                                   4173 ;	 function Storage_FactoryReset
                                   4174 ;	-----------------------------------------
                                   4175 ;	Register assignment might be sub-optimal.
                                   4176 ;	Stack space usage: 0 bytes.
      000C18                       4177 _Storage_FactoryReset:
                                   4178 ;	User/eric_proc.c: 749: I2C_WriteByte(0xa0,250,0);
                                   4179 ; genIPush
      000C18 4B 00            [ 1] 4180 	push	#0x00
                                   4181 ; genIPush
      000C1A 4B FA            [ 1] 4182 	push	#0xfa
                                   4183 ; genSend
      000C1C A6 A0            [ 1] 4184 	ld	a, #0xa0
                                   4185 ; genCall
      000C1E CDr00r00         [ 4] 4186 	call	_I2C_WriteByte
                                   4187 ;	User/eric_proc.c: 750: Delay(IIC_TIMEOUT);
                                   4188 ; genSend
      000C21 AE 07 D0         [ 2] 4189 	ldw	x, #0x07d0
                                   4190 ; genCall
      000C24 CDr00r00         [ 4] 4191 	call	_Delay
                                   4192 ;	User/eric_proc.c: 751: I2C_WriteByte(0xa0,251,0);
                                   4193 ; genIPush
      000C27 4B 00            [ 1] 4194 	push	#0x00
                                   4195 ; genIPush
      000C29 4B FB            [ 1] 4196 	push	#0xfb
                                   4197 ; genSend
      000C2B A6 A0            [ 1] 4198 	ld	a, #0xa0
                                   4199 ; genCall
      000C2D CDr00r00         [ 4] 4200 	call	_I2C_WriteByte
                                   4201 ;	User/eric_proc.c: 752: Delay(IIC_TIMEOUT);
                                   4202 ; genSend
      000C30 AE 07 D0         [ 2] 4203 	ldw	x, #0x07d0
                                   4204 ; genCall
      000C33 CDr00r00         [ 4] 4205 	call	_Delay
                                   4206 ;	User/eric_proc.c: 753: data_index.w=0;
                                   4207 ; skipping iCode since result will be rematerialized
                                   4208 ; skipping iCode since result will be rematerialized
                                   4209 ; genPointerSet
      000C36 35 00u00u01      [ 1] 4210 	mov	_data_index+1, #0x00
                                   4211 ;	User/eric_proc.c: 754: data_index.used=0;
                                   4212 ; skipping iCode since result will be rematerialized
                                   4213 ; genPointerSet
      000C3A 35 00u00u02      [ 1] 4214 	mov	_data_index+2, #0x00
                                   4215 ;	User/eric_proc.c: 756: I2C_WriteByte(0xa0,252,0);
                                   4216 ; genIPush
      000C3E 4B 00            [ 1] 4217 	push	#0x00
                                   4218 ; genIPush
      000C40 4B FC            [ 1] 4219 	push	#0xfc
                                   4220 ; genSend
      000C42 A6 A0            [ 1] 4221 	ld	a, #0xa0
                                   4222 ; genCall
      000C44 CDr00r00         [ 4] 4223 	call	_I2C_WriteByte
                                   4224 ;	User/eric_proc.c: 757: Delay(IIC_TIMEOUT);
                                   4225 ; genSend
      000C47 AE 07 D0         [ 2] 4226 	ldw	x, #0x07d0
                                   4227 ; genCall
      000C4A CDr00r00         [ 4] 4228 	call	_Delay
                                   4229 ;	User/eric_proc.c: 758: I2C_WriteByte(0xa0,253,0);
                                   4230 ; genIPush
      000C4D 4B 00            [ 1] 4231 	push	#0x00
                                   4232 ; genIPush
      000C4F 4B FD            [ 1] 4233 	push	#0xfd
                                   4234 ; genSend
      000C51 A6 A0            [ 1] 4235 	ld	a, #0xa0
                                   4236 ; genCall
      000C53 CDr00r00         [ 4] 4237 	call	_I2C_WriteByte
                                   4238 ;	User/eric_proc.c: 759: Delay(IIC_TIMEOUT);
                                   4239 ; genSend
      000C56 AE 07 D0         [ 2] 4240 	ldw	x, #0x07d0
                                   4241 ; genCall
      000C59 CDr00r00         [ 4] 4242 	call	_Delay
                                   4243 ;	User/eric_proc.c: 760: I2C_WriteByte(0xa0,254,0);
                                   4244 ; genIPush
      000C5C 4B 00            [ 1] 4245 	push	#0x00
                                   4246 ; genIPush
      000C5E 4B FE            [ 1] 4247 	push	#0xfe
                                   4248 ; genSend
      000C60 A6 A0            [ 1] 4249 	ld	a, #0xa0
                                   4250 ; genCall
      000C62 CDr00r00         [ 4] 4251 	call	_I2C_WriteByte
                                   4252 ;	User/eric_proc.c: 761: Delay(IIC_TIMEOUT);
                                   4253 ; genSend
      000C65 AE 07 D0         [ 2] 4254 	ldw	x, #0x07d0
                                   4255 ; genCall
      000C68 CDr00r00         [ 4] 4256 	call	_Delay
                                   4257 ;	User/eric_proc.c: 762: I2C_WriteByte(0xa0,255,1);
                                   4258 ; genIPush
      000C6B 4B 01            [ 1] 4259 	push	#0x01
                                   4260 ; genIPush
      000C6D 4B FF            [ 1] 4261 	push	#0xff
                                   4262 ; genSend
      000C6F A6 A0            [ 1] 4263 	ld	a, #0xa0
                                   4264 ; genCall
      000C71 CDr00r00         [ 4] 4265 	call	_I2C_WriteByte
                                   4266 ;	User/eric_proc.c: 763: Delay(IIC_TIMEOUT);
                                   4267 ; genSend
      000C74 AE 07 D0         [ 2] 4268 	ldw	x, #0x07d0
                                   4269 ; genCall
      000C77 CDr00r00         [ 4] 4270 	call	_Delay
                                   4271 ;	User/eric_proc.c: 765: memset((uint8_t *)&stt,0,70);
                                   4272 ; skipping iCode since result will be rematerialized
                                   4273 ; skipping iCode since result will be rematerialized
                                   4274 ; genIPush
      000C7A 4B 46            [ 1] 4275 	push	#0x46
      000C7C 4B 00            [ 1] 4276 	push	#0x00
                                   4277 ; genIPush
      000C7E 5F               [ 1] 4278 	clrw	x
      000C7F 89               [ 2] 4279 	pushw	x
                                   4280 ; genSend
      000C80 AEr00r2B         [ 2] 4281 	ldw	x, #(_stt+0)
                                   4282 ; genCall
      000C83 CDr00r00         [ 4] 4283 	call	_memset
                                   4284 ;	User/eric_proc.c: 766: Save_Stat((uint8_t *)&stt);
                                   4285 ; skipping iCode since result will be rematerialized
                                   4286 ; genSend
      000C86 AEr00r2B         [ 2] 4287 	ldw	x, #(_stt+0)
                                   4288 ; genCall
      000C89 CDr00r00         [ 4] 4289 	call	_Save_Stat
                                   4290 ;	User/eric_proc.c: 768: Delay(IIC_TIMEOUT);
                                   4291 ; genSend
      000C8C AE 07 D0         [ 2] 4292 	ldw	x, #0x07d0
                                   4293 ; genCall
      000C8F CDr00r00         [ 4] 4294 	call	_Delay
                                   4295 ;	User/eric_proc.c: 769: WWDG_SWReset();
                                   4296 ; genCall
                                   4297 ; genLabel
                                   4298 ; peephole j30 removed unused label 00101$.
                                   4299 ;	User/eric_proc.c: 770: }
                                   4300 ; genEndFunction
      000C92 CCr00r00         [ 2] 4301 	jp	_WWDG_SWReset
                                   4302 ; peephole 52 removed unreachable ret.
                                   4303 ;	Total Storage_FactoryReset function size at codegen: 1 bytes.
                                   4304 ;	User/eric_proc.c: 773: void Storage_Init(void)
                                   4305 ; genLabel
                                   4306 ;	-----------------------------------------
                                   4307 ;	 function Storage_Init
                                   4308 ;	-----------------------------------------
                                   4309 ;	Register assignment might be sub-optimal.
                                   4310 ;	Stack space usage: 13 bytes.
      000C95                       4311 _Storage_Init:
      000C95 52 0D            [ 2] 4312 	sub	sp, #13
                                   4313 ;	User/eric_proc.c: 777: Load_Stat((uint8_t *)&stt);//读取统计数据
                                   4314 ; skipping iCode since result will be rematerialized
                                   4315 ; skipping iCode since result will be rematerialized
                                   4316 ; genSend
      000C97 AEr00r2B         [ 2] 4317 	ldw	x, #(_stt+0)
                                   4318 ; genCall
      000C9A CDr00r00         [ 4] 4319 	call	_Load_Stat
                                   4320 ;	User/eric_proc.c: 778: if ((stt[A].tscount == 0xffff) && (stt[B].tscount == 0xffff) && (stt[C].tscount == 0xffff)) //如果是首次读取，先初始化
                                   4321 ; skipping iCode since result will be rematerialized
                                   4322 ; skipping iCode since result will be rematerialized
                                   4323 ; genPointerGet
      000C9D CEu00u35         [ 2] 4324 	ldw	x, _stt+10
                                   4325 ; genCast
                                   4326 ; genAssign
                                   4327 ; genCmpEQorNE
      000CA0 5C               [ 1] 4328 	incw	x
                                   4329 ; peephole j5 changed absolute to relative unconditional jump.
                                   4330 ; peephole j10 removed jra by using inverse jump logic
                                   4331 ; peephole j30 removed unused label 00156$.
                                   4332 ; peephole j5 changed absolute to relative unconditional jump.
      000CA1 26 18            [ 1] 4333 	jrne	00102$
                                   4334 ; peephole j7 removed jra by using inverse jump logic
                                   4335 ; peephole j30 removed unused label 00157$.
                                   4336 ; skipping generated iCode
                                   4337 ; skipping iCode since result will be rematerialized
                                   4338 ; genPointerGet
      000CA3 CEu00u3F         [ 2] 4339 	ldw	x, _stt+20
                                   4340 ; genCast
                                   4341 ; genAssign
                                   4342 ; genCmpEQorNE
      000CA6 5C               [ 1] 4343 	incw	x
                                   4344 ; peephole j5 changed absolute to relative unconditional jump.
                                   4345 ; peephole j10 removed jra by using inverse jump logic
                                   4346 ; peephole j30 removed unused label 00159$.
                                   4347 ; peephole j5 changed absolute to relative unconditional jump.
      000CA7 26 12            [ 1] 4348 	jrne	00102$
                                   4349 ; peephole j7 removed jra by using inverse jump logic
                                   4350 ; peephole j30 removed unused label 00160$.
                                   4351 ; skipping generated iCode
                                   4352 ; skipping iCode since result will be rematerialized
                                   4353 ; genPointerGet
      000CA9 CEu00u53         [ 2] 4354 	ldw	x, _stt+40
                                   4355 ; genCast
                                   4356 ; genAssign
                                   4357 ; genCmpEQorNE
      000CAC 5C               [ 1] 4358 	incw	x
                                   4359 ; peephole j5 changed absolute to relative unconditional jump.
                                   4360 ; peephole j10 removed jra by using inverse jump logic
                                   4361 ; peephole j30 removed unused label 00162$.
                                   4362 ; peephole j5 changed absolute to relative unconditional jump.
      000CAD 26 0C            [ 1] 4363 	jrne	00102$
                                   4364 ; peephole j7 removed jra by using inverse jump logic
                                   4365 ; peephole j30 removed unused label 00163$.
                                   4366 ; skipping generated iCode
                                   4367 ;	User/eric_proc.c: 779: memset((uint8_t *)&stt, 0, 70);
                                   4368 ; skipping iCode since result will be rematerialized
                                   4369 ; skipping iCode since result will be rematerialized
                                   4370 ; genIPush
      000CAF 4B 46            [ 1] 4371 	push	#0x46
      000CB1 4B 00            [ 1] 4372 	push	#0x00
                                   4373 ; genIPush
      000CB3 5F               [ 1] 4374 	clrw	x
      000CB4 89               [ 2] 4375 	pushw	x
                                   4376 ; genSend
      000CB5 AEr00r2B         [ 2] 4377 	ldw	x, #(_stt+0)
                                   4378 ; genCall
      000CB8 CDr00r00         [ 4] 4379 	call	_memset
                                   4380 ; genLabel
      000CBB                       4381 00102$:
                                   4382 ;	User/eric_proc.c: 781: Delay(IIC_TIMEOUT);
                                   4383 ; genSend
      000CBB AE 07 D0         [ 2] 4384 	ldw	x, #0x07d0
                                   4385 ; genCall
      000CBE CDr00r00         [ 4] 4386 	call	_Delay
                                   4387 ;	User/eric_proc.c: 782: adjustdt.dt[11] = I2C_ReadByte(0xa0, 80); //语言选择
                                   4388 ; skipping iCode since result will be rematerialized
                                   4389 ; genIPush
      000CC1 4B 50            [ 1] 4390 	push	#0x50
                                   4391 ; genSend
      000CC3 A6 A0            [ 1] 4392 	ld	a, #0xa0
                                   4393 ; genCall
      000CC5 CDr00r00         [ 4] 4394 	call	_I2C_ReadByte
                                   4395 ; genPointerSet
      000CC8 C7u00u0C         [ 1] 4396 	ld	_adjustdt+12, a
                                   4397 ;	User/eric_proc.c: 783: language = adjustdt.dt[11];
                                   4398 ; genAssign
      000CCB C7u00u00         [ 1] 4399 	ld	_language+0, a
                                   4400 ;	User/eric_proc.c: 785: Delay(IIC_TIMEOUT);
                                   4401 ; genSend
      000CCE AE 07 D0         [ 2] 4402 	ldw	x, #0x07d0
                                   4403 ; genCall
      000CD1 CDr00r00         [ 4] 4404 	call	_Delay
                                   4405 ;	User/eric_proc.c: 786: data_index.w = I2C_ReadByte(0xa0, 250); //读取保存了的数据索引
                                   4406 ; skipping iCode since result will be rematerialized
                                   4407 ; skipping iCode since result will be rematerialized
                                   4408 ; genIPush
      000CD4 4B FA            [ 1] 4409 	push	#0xfa
                                   4410 ; genSend
      000CD6 A6 A0            [ 1] 4411 	ld	a, #0xa0
                                   4412 ; genCall
      000CD8 CDr00r00         [ 4] 4413 	call	_I2C_ReadByte
                                   4414 ; genPointerSet
      000CDB C7u00u01         [ 1] 4415 	ld	_data_index+1, a
                                   4416 ;	User/eric_proc.c: 787: if (data_index.w == 0xff)
                                   4417 ; genCmpEQorNE
      000CDE 4C               [ 1] 4418 	inc	a
                                   4419 ; peephole j5 changed absolute to relative unconditional jump.
                                   4420 ; peephole j10 removed jra by using inverse jump logic
                                   4421 ; peephole j30 removed unused label 00165$.
                                   4422 ; peephole j5 changed absolute to relative unconditional jump.
      000CDF 26 04            [ 1] 4423 	jrne	00106$
                                   4424 ; peephole j7 removed jra by using inverse jump logic
                                   4425 ; peephole j30 removed unused label 00166$.
                                   4426 ; skipping generated iCode
                                   4427 ;	User/eric_proc.c: 788: data_index.w = 0;
                                   4428 ; genPointerSet
      000CE1 35 00u00u01      [ 1] 4429 	mov	_data_index+1, #0x00
                                   4430 ; genLabel
      000CE5                       4431 00106$:
                                   4432 ;	User/eric_proc.c: 789: Delay(IIC_TIMEOUT);
                                   4433 ; genSend
      000CE5 AE 07 D0         [ 2] 4434 	ldw	x, #0x07d0
                                   4435 ; genCall
      000CE8 CDr00r00         [ 4] 4436 	call	_Delay
                                   4437 ;	User/eric_proc.c: 790: data_index.used = I2C_ReadByte(0xa0, 251);
                                   4438 ; skipping iCode since result will be rematerialized
                                   4439 ; genIPush
      000CEB 4B FB            [ 1] 4440 	push	#0xfb
                                   4441 ; genSend
      000CED A6 A0            [ 1] 4442 	ld	a, #0xa0
                                   4443 ; genCall
      000CEF CDr00r00         [ 4] 4444 	call	_I2C_ReadByte
                                   4445 ; genPointerSet
      000CF2 C7u00u02         [ 1] 4446 	ld	_data_index+2, a
                                   4447 ;	User/eric_proc.c: 791: if (data_index.used == 0xff)
                                   4448 ; genCmpEQorNE
      000CF5 4C               [ 1] 4449 	inc	a
                                   4450 ; peephole j5 changed absolute to relative unconditional jump.
                                   4451 ; peephole j10 removed jra by using inverse jump logic
                                   4452 ; peephole j30 removed unused label 00168$.
                                   4453 ; peephole j5 changed absolute to relative unconditional jump.
      000CF6 26 04            [ 1] 4454 	jrne	00108$
                                   4455 ; peephole j7 removed jra by using inverse jump logic
                                   4456 ; peephole j30 removed unused label 00169$.
                                   4457 ; skipping generated iCode
                                   4458 ;	User/eric_proc.c: 792: data_index.used = 0;
                                   4459 ; genPointerSet
      000CF8 35 00u00u02      [ 1] 4460 	mov	_data_index+2, #0x00
                                   4461 ; genLabel
      000CFC                       4462 00108$:
                                   4463 ;	User/eric_proc.c: 794: id[0] = I2C_ReadByte(0xa0, 252);
                                   4464 ; skipping iCode since result will be rematerialized
                                   4465 ; genIPush
      000CFC 4B FC            [ 1] 4466 	push	#0xfc
                                   4467 ; genSend
      000CFE A6 A0            [ 1] 4468 	ld	a, #0xa0
                                   4469 ; genCall
      000D00 CDr00r00         [ 4] 4470 	call	_I2C_ReadByte
                                   4471 ; genPointerSet
      000D03 6B 01            [ 1] 4472 	ld	(0x01, sp), a
                                   4473 ;	User/eric_proc.c: 795: Delay(IIC_TIMEOUT);
                                   4474 ; genSend
      000D05 AE 07 D0         [ 2] 4475 	ldw	x, #0x07d0
                                   4476 ; genCall
      000D08 CDr00r00         [ 4] 4477 	call	_Delay
                                   4478 ;	User/eric_proc.c: 796: id[1] = I2C_ReadByte(0xa0, 253);
                                   4479 ; skipping iCode since result will be rematerialized
                                   4480 ; genIPush
      000D0B 4B FD            [ 1] 4481 	push	#0xfd
                                   4482 ; genSend
      000D0D A6 A0            [ 1] 4483 	ld	a, #0xa0
                                   4484 ; genCall
      000D0F CDr00r00         [ 4] 4485 	call	_I2C_ReadByte
                                   4486 ; genPointerSet
      000D12 6B 02            [ 1] 4487 	ld	(0x02, sp), a
                                   4488 ;	User/eric_proc.c: 797: Delay(IIC_TIMEOUT);
                                   4489 ; genSend
      000D14 AE 07 D0         [ 2] 4490 	ldw	x, #0x07d0
                                   4491 ; genCall
      000D17 CDr00r00         [ 4] 4492 	call	_Delay
                                   4493 ;	User/eric_proc.c: 798: id[2] = I2C_ReadByte(0xa0, 254);
                                   4494 ; skipping iCode since result will be rematerialized
                                   4495 ; genIPush
      000D1A 4B FE            [ 1] 4496 	push	#0xfe
                                   4497 ; genSend
      000D1C A6 A0            [ 1] 4498 	ld	a, #0xa0
                                   4499 ; genCall
      000D1E CDr00r00         [ 4] 4500 	call	_I2C_ReadByte
                                   4501 ; genPointerSet
      000D21 6B 03            [ 1] 4502 	ld	(0x03, sp), a
                                   4503 ;	User/eric_proc.c: 799: Delay(IIC_TIMEOUT);
                                   4504 ; genSend
      000D23 AE 07 D0         [ 2] 4505 	ldw	x, #0x07d0
                                   4506 ; genCall
      000D26 CDr00r00         [ 4] 4507 	call	_Delay
                                   4508 ;	User/eric_proc.c: 800: id[3] = I2C_ReadByte(0xa0, 255);
                                   4509 ; skipping iCode since result will be rematerialized
                                   4510 ; genIPush
      000D29 4B FF            [ 1] 4511 	push	#0xff
                                   4512 ; genSend
      000D2B A6 A0            [ 1] 4513 	ld	a, #0xa0
                                   4514 ; genCall
      000D2D CDr00r00         [ 4] 4515 	call	_I2C_ReadByte
                                   4516 ; genPointerSet
      000D30 6B 05            [ 1] 4517 	ld	(0x05, sp), a
                                   4518 ; peephole 4 removed redundant load from (0x05, sp) into a.
      000D32 6B 04            [ 1] 4519 	ld	(0x04, sp), a
                                   4520 ;	User/eric_proc.c: 802: selfid = id[0] * 1000000 + id[1] * 10000 + id[2] * 100 + id[3];
                                   4521 ; genPointerGet
      000D34 7B 01            [ 1] 4522 	ld	a, (0x01, sp)
                                   4523 ; genCast
                                   4524 ; genAssign
      000D36 5F               [ 1] 4525 	clrw	x
      000D37 0F 0A            [ 1] 4526 	clr	(0x0a, sp)
                                   4527 ; genIPush
      000D39 88               [ 1] 4528 	push	a
      000D3A 89               [ 2] 4529 	pushw	x
      000D3B 4F               [ 1] 4530 	clr	a
      000D3C 88               [ 1] 4531 	push	a
                                   4532 ; genIPush
      000D3D 4B 40            [ 1] 4533 	push	#0x40
      000D3F 4B 42            [ 1] 4534 	push	#0x42
      000D41 4B 0F            [ 1] 4535 	push	#0x0f
      000D43 4B 00            [ 1] 4536 	push	#0x00
                                   4537 ; genCall
      000D45 CDr00r00         [ 4] 4538 	call	__mullong
      000D48 5B 08            [ 2] 4539 	addw	sp, #8
      000D4A 1F 0C            [ 2] 4540 	ldw	(0x0c, sp), x
      000D4C 17 0A            [ 2] 4541 	ldw	(0x0a, sp), y
                                   4542 ; genPointerGet
      000D4E 7B 02            [ 1] 4543 	ld	a, (0x02, sp)
                                   4544 ; genCast
                                   4545 ; genAssign
      000D50 5F               [ 1] 4546 	clrw	x
      000D51 97               [ 1] 4547 	ld	xl, a
                                   4548 ; genIPush
      000D52 89               [ 2] 4549 	pushw	x
                                   4550 ; genSend
      000D53 AE 27 10         [ 2] 4551 	ldw	x, #0x2710
                                   4552 ; genCall
      000D56 CDr00r00         [ 4] 4553 	call	__mulint
                                   4554 ; genCast
      000D59 51               [ 1] 4555 	exgw	x, y
      000D5A 5F               [ 1] 4556 	clrw	x
      000D5B 90 5D            [ 2] 4557 	tnzw	y
      000D5D 2A 01            [ 1] 4558 	jrpl	00170$
      000D5F 5A               [ 2] 4559 	decw	x
      000D60                       4560 00170$:
                                   4561 ; genPlus
      000D60 72 F9 0C         [ 2] 4562 	addw	y, (0x0c, sp)
      000D63 17 08            [ 2] 4563 	ldw	(0x08, sp), y
      000D65 9F               [ 1] 4564 	ld	a, xl
      000D66 19 0B            [ 1] 4565 	adc	a, (0x0b, sp)
      000D68 6B 07            [ 1] 4566 	ld	(0x07, sp), a
      000D6A 9E               [ 1] 4567 	ld	a, xh
      000D6B 19 0A            [ 1] 4568 	adc	a, (0x0a, sp)
      000D6D 6B 06            [ 1] 4569 	ld	(0x06, sp), a
                                   4570 ; genPointerGet
      000D6F 7B 03            [ 1] 4571 	ld	a, (0x03, sp)
                                   4572 ; genCast
                                   4573 ; genAssign
      000D71 5F               [ 1] 4574 	clrw	x
      000D72 97               [ 1] 4575 	ld	xl, a
                                   4576 ; genIPush
      000D73 89               [ 2] 4577 	pushw	x
                                   4578 ; genSend
      000D74 AE 00 64         [ 2] 4579 	ldw	x, #0x0064
                                   4580 ; genCall
      000D77 CDr00r00         [ 4] 4581 	call	__mulint
                                   4582 ; genCast
      000D7A 51               [ 1] 4583 	exgw	x, y
      000D7B 5F               [ 1] 4584 	clrw	x
      000D7C 90 5D            [ 2] 4585 	tnzw	y
      000D7E 2A 01            [ 1] 4586 	jrpl	00171$
      000D80 5A               [ 2] 4587 	decw	x
      000D81                       4588 00171$:
                                   4589 ; genPlus
      000D81 72 F9 08         [ 2] 4590 	addw	y, (0x08, sp)
      000D84 9F               [ 1] 4591 	ld	a, xl
      000D85 19 07            [ 1] 4592 	adc	a, (0x07, sp)
      000D87 6B 0B            [ 1] 4593 	ld	(0x0b, sp), a
      000D89 9E               [ 1] 4594 	ld	a, xh
      000D8A 19 06            [ 1] 4595 	adc	a, (0x06, sp)
      000D8C 6B 0A            [ 1] 4596 	ld	(0x0a, sp), a
                                   4597 ; genCast
                                   4598 ; genAssign
      000D8E 7B 05            [ 1] 4599 	ld	a, (0x05, sp)
                                   4600 ; genCast
                                   4601 ; genAssign
      000D90 0F 08            [ 1] 4602 	clr	(0x08, sp)
      000D92 5F               [ 1] 4603 	clrw	x
                                   4604 ; genPlus
      000D93 90 89            [ 2] 4605 	pushw	y
      000D95 1B 02            [ 1] 4606 	add	a, (2, sp)
      000D97 90 85            [ 2] 4607 	popw	y
      000D99 90 02            [ 1] 4608 	rlwa	y
                                   4609 ; peephole r2 used rlwa.
      000D9B 19 08            [ 1] 4610 	adc	a, (0x08, sp)
      000D9D 90 95            [ 1] 4611 	ld	yh, a
      000D9F 9F               [ 1] 4612 	ld	a, xl
      000DA0 19 0B            [ 1] 4613 	adc	a, (0x0b, sp)
      000DA2 02               [ 1] 4614 	rlwa	x
                                   4615 ; peephole r1 used rlwa.
      000DA3 19 0A            [ 1] 4616 	adc	a, (0x0a, sp)
      000DA5 95               [ 1] 4617 	ld	xh, a
                                   4618 ; genAssign
      000DA6 90 CFu00u73      [ 2] 4619 	ldw	_selfid+2, y
      000DAA CFu00u71         [ 2] 4620 	ldw	_selfid+0, x
                                   4621 ;	User/eric_proc.c: 803: if (selfid > 99999999)
                                   4622 ; genCmp
                                   4623 ; genCmpTnz
      000DAD AE E0 FF         [ 2] 4624 	ldw	x, #0xe0ff
      000DB0 C3u00u73         [ 2] 4625 	cpw	x, _selfid+2
      000DB3 A6 F5            [ 1] 4626 	ld	a, #0xf5
      000DB5 C2u00u72         [ 1] 4627 	sbc	a, _selfid+1
      000DB8 A6 05            [ 1] 4628 	ld	a, #0x05
      000DBA C2u00u71         [ 1] 4629 	sbc	a, _selfid+0
                                   4630 ; peephole j5 changed absolute to relative unconditional jump.
      000DBD 24 09            [ 1] 4631 	jrnc	00110$
                                   4632 ; peephole j6 removed jra by using inverse jump logic
                                   4633 ; peephole j30 removed unused label 00172$.
                                   4634 ; skipping generated iCode
                                   4635 ;	User/eric_proc.c: 804: selfid = 1;
                                   4636 ; genAssign
      000DBF 5F               [ 1] 4637 	clrw	x
      000DC0 5C               [ 1] 4638 	incw	x
      000DC1 CFu00u73         [ 2] 4639 	ldw	_selfid+2, x
      000DC4 5F               [ 1] 4640 	clrw	x
      000DC5 CFu00u71         [ 2] 4641 	ldw	_selfid+0, x
                                   4642 ; genLabel
      000DC8                       4643 00110$:
                                   4644 ;	User/eric_proc.c: 805: r485id = (selfid & 0xff);
                                   4645 ; genCast
                                   4646 ; genAssign
      000DC8 55u00u74u00u75   [ 1] 4647 	mov	_r485id+0, _selfid+3
                                   4648 ; genLabel
                                   4649 ; peephole j30 removed unused label 00111$.
                                   4650 ;	User/eric_proc.c: 806: }
                                   4651 ; genEndFunction
      000DCD 5B 0D            [ 2] 4652 	addw	sp, #13
      000DCF 81               [ 4] 4653 	ret
                                   4654 ;	Total Storage_Init function size at codegen: 3 bytes.
                                   4655 	.area CODE
                                   4656 	.area CONST
                                   4657 	.area INITIALIZER
      000000                       4658 __xinit__strokeA:
      000000 01                    4659 	.db #0x01	; 1
      000001 00 00 00 00           4660 	.byte #0x00, #0x00, #0x00, #0x00	; 0
      000005 00 00 00 00           4661 	.byte #0x00, #0x00, #0x00, #0x00	; 0
      000009 00 00 00 00           4662 	.byte #0x00, #0x00, #0x00, #0x00	; 0
      00000D                       4663 __xinit__strokeB:
      00000D 01                    4664 	.db #0x01	; 1
      00000E 00 00 00 00           4665 	.byte #0x00, #0x00, #0x00, #0x00	; 0
      000012 00 00 00 00           4666 	.byte #0x00, #0x00, #0x00, #0x00	; 0
      000016 00 00 00 00           4667 	.byte #0x00, #0x00, #0x00, #0x00	; 0
      00001A                       4668 __xinit__strokeC:
      00001A 01                    4669 	.db #0x01	; 1
      00001B 00 00 00 00           4670 	.byte #0x00, #0x00, #0x00, #0x00	; 0
      00001F 00 00 00 00           4671 	.byte #0x00, #0x00, #0x00, #0x00	; 0
      000023 00 00 00 00           4672 	.byte #0x00, #0x00, #0x00, #0x00	; 0
      000027                       4673 __xinit__ticks:
      000027 00 00 00 00           4674 	.byte #0x00, #0x00, #0x00, #0x00	; 0
      00002B                       4675 __xinit__stt:
      00002B 00 00                 4676 	.dw #0x0000
      00002D 00 00 00 00           4677 	.byte #0x00, #0x00, #0x00, #0x00	; 0
      000031 00 00 00 00           4678 	.byte #0x00, #0x00, #0x00, #0x00	; 0
      000035 00 00                 4679 	.dw #0x0000
      000037 00 00 00 00           4680 	.byte #0x00, #0x00, #0x00, #0x00	; 0
      00003B 00 00 00 00           4681 	.byte #0x00, #0x00, #0x00, #0x00	; 0
      00003F 00 00                 4682 	.dw #0x0000
      000041 00 00 00 00           4683 	.byte #0x00, #0x00, #0x00, #0x00	; 0
      000045 00 00 00 00           4684 	.byte #0x00, #0x00, #0x00, #0x00	; 0
      000049 00 00                 4685 	.dw #0x0000
      00004B 00 00 00 00           4686 	.byte #0x00, #0x00, #0x00, #0x00	; 0
      00004F 00 00 00 00           4687 	.byte #0x00, #0x00, #0x00, #0x00	; 0
      000053 00 00                 4688 	.dw #0x0000
      000055 00 00 00 00           4689 	.byte #0x00, #0x00, #0x00, #0x00	; 0
      000059 00 00 00 00           4690 	.byte #0x00, #0x00, #0x00, #0x00	; 0
      00005D 00 00                 4691 	.dw #0x0000
      00005F 00 00 00 00           4692 	.byte #0x00, #0x00, #0x00, #0x00	; 0
      000063 00 00 00 00           4693 	.byte #0x00, #0x00, #0x00, #0x00	; 0
      000067 00 00                 4694 	.dw #0x0000
      000069 00 00 00 00           4695 	.byte #0x00, #0x00, #0x00, #0x00	; 0
      00006D 00 00 00 00           4696 	.byte #0x00, #0x00, #0x00, #0x00	; 0
      000071                       4697 __xinit__selfid:
      000071 00 00 00 00           4698 	.byte #0x00, #0x00, #0x00, #0x00	; 0
      000075                       4699 __xinit__r485id:
      000075 00                    4700 	.db #0x00	; 0
      000076                       4701 __xinit__r485rlt:
      000076 00 00                 4702 	.dw #0x0000
      000078 00 00                 4703 	.dw #0x0000
      00007A 00 00                 4704 	.dw #0x0000
      00007C 00 00                 4705 	.dw #0x0000
      00007E 00 00                 4706 	.dw #0x0000
      000080 00 00                 4707 	.dw #0x0000
      000082 00 00                 4708 	.dw #0x0000
      000084                       4709 __xinit__sysmode:
      000084 01                    4710 	.db #0x01	; 1
                                   4711 	.area CABS (ABS)
